ARM GAS  C:\Users\hoodc\AppData\Local\Temp\ccE7VNC4.s 			page 1


   1              		.cpu cortex-m4
   2              		.eabi_attribute 20, 1
   3              		.eabi_attribute 21, 1
   4              		.eabi_attribute 23, 3
   5              		.eabi_attribute 24, 1
   6              		.eabi_attribute 25, 1
   7              		.eabi_attribute 26, 1
   8              		.eabi_attribute 30, 1
   9              		.eabi_attribute 34, 1
  10              		.eabi_attribute 18, 4
  11              		.file	"list.c"
  12              		.text
  13              	.Ltext0:
  14              		.cfi_sections	.debug_frame
  15              		.align	1
  16              		.global	List_Init
  17              		.arch armv7e-m
  18              		.syntax unified
  19              		.thumb
  20              		.thumb_func
  21              		.fpu softvfp
  22              		.type	List_Init, %function
  23              	List_Init:
  24              	.LVL0:
  25              	.LFB0:
  26              		.file 1 "../Src/list.c"
   1:../Src/list.c **** /********************************************************************************
   2:../Src/list.c ****   * @file       : list.c
   3:../Src/list.c ****   * @brief      : This is a generic light-weight linked-list library to build a dynamic list.
   4:../Src/list.c ****   *               See the comments below for example implementation.
   5:../Src/list.c ****   * @author     : Charles H
   6:../Src/list.c ****   * @date       : Mar 2020
   7:../Src/list.c ****   *
   8:../Src/list.c ****   *******************************************************************************/
   9:../Src/list.c **** 
  10:../Src/list.c **** #include <stdlib.h>
  11:../Src/list.c **** #include <string.h>
  12:../Src/list.c **** #include "list.h"
  13:../Src/list.c **** 
  14:../Src/list.c **** /**
  15:../Src/list.c ****   * @brief This initializes the first node and sets up the list for usage
  16:../Src/list.c ****   * @param hlist Handle to the list instance
  17:../Src/list.c ****   * @param object_size Size of objects (bytes) put into each node
  18:../Src/list.c ****   * @retval None
  19:../Src/list.c ****   */
  20:../Src/list.c **** ListStatus_t List_Init(ListHandle_t *hlist, uint16_t object_size)
  21:../Src/list.c **** {
  27              		.loc 1 21 1 view -0
  28              		.cfi_startproc
  29              		@ args = 0, pretend = 0, frame = 0
  30              		@ frame_needed = 0, uses_anonymous_args = 0
  31              		.loc 1 21 1 is_stmt 0 view .LVU1
  32 0000 38B5     		push	{r3, r4, r5, lr}
  33              	.LCFI0:
  34              		.cfi_def_cfa_offset 16
  35              		.cfi_offset 3, -16
  36              		.cfi_offset 4, -12
ARM GAS  C:\Users\hoodc\AppData\Local\Temp\ccE7VNC4.s 			page 2


  37              		.cfi_offset 5, -8
  38              		.cfi_offset 14, -4
  39 0002 0446     		mov	r4, r0
  40 0004 0D46     		mov	r5, r1
  22:../Src/list.c ****     // Malloc appropriate memory for first list_node
  23:../Src/list.c ****     hlist->list_head = (void *)malloc(sizeof(ListNode_t));
  41              		.loc 1 23 5 is_stmt 1 view .LVU2
  42              		.loc 1 23 24 is_stmt 0 view .LVU3
  43 0006 0820     		movs	r0, #8
  44              	.LVL1:
  45              		.loc 1 23 24 view .LVU4
  46 0008 FFF7FEFF 		bl	malloc
  47              	.LVL2:
  48              		.loc 1 23 22 view .LVU5
  49 000c 2060     		str	r0, [r4]
  24:../Src/list.c ****     if(hlist->list_head == NULL)
  50              		.loc 1 24 5 is_stmt 1 view .LVU6
  51              		.loc 1 24 7 is_stmt 0 view .LVU7
  52 000e 30B1     		cbz	r0, .L3
  25:../Src/list.c ****       return LIST_FAILED;
  26:../Src/list.c **** 
  27:../Src/list.c ****     hlist->list_head->next = NULL; // End of list
  53              		.loc 1 27 5 is_stmt 1 view .LVU8
  54              		.loc 1 27 28 is_stmt 0 view .LVU9
  55 0010 0023     		movs	r3, #0
  56 0012 0360     		str	r3, [r0]
  28:../Src/list.c **** 
  29:../Src/list.c ****     // Set other parameters
  30:../Src/list.c ****     hlist->object_size = object_size;
  57              		.loc 1 30 5 is_stmt 1 view .LVU10
  58              		.loc 1 30 24 is_stmt 0 view .LVU11
  59 0014 A580     		strh	r5, [r4, #4]	@ movhi
  31:../Src/list.c ****     hlist->empty = true;
  60              		.loc 1 31 5 is_stmt 1 view .LVU12
  61              		.loc 1 31 18 is_stmt 0 view .LVU13
  62 0016 0122     		movs	r2, #1
  63 0018 A271     		strb	r2, [r4, #6]
  32:../Src/list.c **** 
  33:../Src/list.c ****     return LIST_OK;
  64              		.loc 1 33 5 is_stmt 1 view .LVU14
  65              		.loc 1 33 12 is_stmt 0 view .LVU15
  66 001a 1846     		mov	r0, r3
  67              	.L2:
  34:../Src/list.c **** }
  68              		.loc 1 34 1 view .LVU16
  69 001c 38BD     		pop	{r3, r4, r5, pc}
  70              	.LVL3:
  71              	.L3:
  25:../Src/list.c **** 
  72              		.loc 1 25 14 view .LVU17
  73 001e 0220     		movs	r0, #2
  74 0020 FCE7     		b	.L2
  75              		.cfi_endproc
  76              	.LFE0:
  77              		.size	List_Init, .-List_Init
  78              		.align	1
  79              		.global	List_Add_To_End
ARM GAS  C:\Users\hoodc\AppData\Local\Temp\ccE7VNC4.s 			page 3


  80              		.syntax unified
  81              		.thumb
  82              		.thumb_func
  83              		.fpu softvfp
  84              		.type	List_Add_To_End, %function
  85              	List_Add_To_End:
  86              	.LVL4:
  87              	.LFB1:
  35:../Src/list.c **** 
  36:../Src/list.c **** /**
  37:../Src/list.c ****   * @brief Adds the value to the end of the list. Loops through all the nodes and adds on to the en
  38:../Src/list.c ****   * @param value Pointer to the data to store in the list. Uses the ListHandle_t->object_size to de
  39:../Src/list.c ****   * @retval None
  40:../Src/list.c ****   */
  41:../Src/list.c **** ListStatus_t List_Add_To_End(ListHandle_t *hlist, void *value)
  42:../Src/list.c **** {
  88              		.loc 1 42 1 is_stmt 1 view -0
  89              		.cfi_startproc
  90              		@ args = 0, pretend = 0, frame = 0
  91              		@ frame_needed = 0, uses_anonymous_args = 0
  92              		.loc 1 42 1 is_stmt 0 view .LVU19
  93 0022 F8B5     		push	{r3, r4, r5, r6, r7, lr}
  94              	.LCFI1:
  95              		.cfi_def_cfa_offset 24
  96              		.cfi_offset 3, -24
  97              		.cfi_offset 4, -20
  98              		.cfi_offset 5, -16
  99              		.cfi_offset 6, -12
 100              		.cfi_offset 7, -8
 101              		.cfi_offset 14, -4
 102 0024 0446     		mov	r4, r0
 103 0026 0E46     		mov	r6, r1
  43:../Src/list.c ****     if (hlist->empty)
 104              		.loc 1 43 5 is_stmt 1 view .LVU20
 105              		.loc 1 43 8 is_stmt 0 view .LVU21
 106 0028 8379     		ldrb	r3, [r0, #6]	@ zero_extendqisi2
 107 002a 93B1     		cbz	r3, .L5
  44:../Src/list.c ****     {
  45:../Src/list.c ****         hlist->list_head->object = (void*)malloc(hlist->object_size); // Allocate object only
 108              		.loc 1 45 9 is_stmt 1 view .LVU22
 109              		.loc 1 45 14 is_stmt 0 view .LVU23
 110 002c 0568     		ldr	r5, [r0]
 111              		.loc 1 45 36 view .LVU24
 112 002e 8088     		ldrh	r0, [r0, #4]
 113              	.LVL5:
 114              		.loc 1 45 36 view .LVU25
 115 0030 FFF7FEFF 		bl	malloc
 116              	.LVL6:
 117              		.loc 1 45 34 view .LVU26
 118 0034 6860     		str	r0, [r5, #4]
  46:../Src/list.c ****         if(hlist->list_head->object == NULL)
 119              		.loc 1 46 9 is_stmt 1 view .LVU27
 120              		.loc 1 46 17 is_stmt 0 view .LVU28
 121 0036 2368     		ldr	r3, [r4]
 122              		.loc 1 46 11 view .LVU29
 123 0038 5A68     		ldr	r2, [r3, #4]
 124 003a 12B3     		cbz	r2, .L8
ARM GAS  C:\Users\hoodc\AppData\Local\Temp\ccE7VNC4.s 			page 4


  47:../Src/list.c ****           return LIST_FAILED;
  48:../Src/list.c **** 
  49:../Src/list.c ****         hlist->list_head->next = NULL; // End of list
 125              		.loc 1 49 9 is_stmt 1 view .LVU30
 126              		.loc 1 49 32 is_stmt 0 view .LVU31
 127 003c 0025     		movs	r5, #0
 128 003e 1D60     		str	r5, [r3]
  50:../Src/list.c ****         hlist->empty = false;
 129              		.loc 1 50 9 is_stmt 1 view .LVU32
 130              		.loc 1 50 22 is_stmt 0 view .LVU33
 131 0040 A571     		strb	r5, [r4, #6]
  51:../Src/list.c ****         memcpy(hlist->list_head->object, value, hlist->object_size); // Copy object into memory
 132              		.loc 1 51 9 is_stmt 1 view .LVU34
 133 0042 2368     		ldr	r3, [r4]
 134 0044 A288     		ldrh	r2, [r4, #4]
 135 0046 3146     		mov	r1, r6
 136 0048 5868     		ldr	r0, [r3, #4]
 137 004a FFF7FEFF 		bl	memcpy
 138              	.LVL7:
  52:../Src/list.c ****     }
  53:../Src/list.c ****     else
  54:../Src/list.c ****     {
  55:../Src/list.c ****         ListNode_t *node = (ListNode_t*) malloc(sizeof(ListNode_t));   // Allocate new list node
  56:../Src/list.c ****         if(node == NULL)
  57:../Src/list.c ****           return LIST_FAILED;
  58:../Src/list.c **** 
  59:../Src/list.c ****         node->object = (void*)malloc(hlist->object_size);       // Allocate object
  60:../Src/list.c ****         if(node == NULL)
  61:../Src/list.c ****         {
  62:../Src/list.c ****           free(node);
  63:../Src/list.c ****           return LIST_FAILED;
  64:../Src/list.c ****         }
  65:../Src/list.c **** 
  66:../Src/list.c ****         memcpy(node->object, value, hlist->object_size); // Copy object into memory
  67:../Src/list.c ****         node->next = NULL; // End of list
  68:../Src/list.c **** 
  69:../Src/list.c ****         ListNode_t *tail = hlist->list_head; // Get the tail
  70:../Src/list.c ****         while (tail->next != NULL)
  71:../Src/list.c ****         {
  72:../Src/list.c ****             tail = tail->next;
  73:../Src/list.c ****         }
  74:../Src/list.c **** 
  75:../Src/list.c ****         tail->next = node; // Append on to the end
  76:../Src/list.c ****     }
  77:../Src/list.c **** 
  78:../Src/list.c ****     return LIST_OK;
 139              		.loc 1 78 12 is_stmt 0 view .LVU35
 140 004e 2846     		mov	r0, r5
 141 0050 16E0     		b	.L6
 142              	.LVL8:
 143              	.L5:
 144              	.LBB2:
  55:../Src/list.c ****         if(node == NULL)
 145              		.loc 1 55 9 is_stmt 1 view .LVU36
  55:../Src/list.c ****         if(node == NULL)
 146              		.loc 1 55 42 is_stmt 0 view .LVU37
 147 0052 0820     		movs	r0, #8
ARM GAS  C:\Users\hoodc\AppData\Local\Temp\ccE7VNC4.s 			page 5


 148              	.LVL9:
  55:../Src/list.c ****         if(node == NULL)
 149              		.loc 1 55 42 view .LVU38
 150 0054 FFF7FEFF 		bl	malloc
 151              	.LVL10:
  56:../Src/list.c ****           return LIST_FAILED;
 152              		.loc 1 56 9 is_stmt 1 view .LVU39
  56:../Src/list.c ****           return LIST_FAILED;
 153              		.loc 1 56 11 is_stmt 0 view .LVU40
 154 0058 0546     		mov	r5, r0
 155 005a A0B1     		cbz	r0, .L9
  59:../Src/list.c ****         if(node == NULL)
 156              		.loc 1 59 9 is_stmt 1 view .LVU41
  59:../Src/list.c ****         if(node == NULL)
 157              		.loc 1 59 24 is_stmt 0 view .LVU42
 158 005c A788     		ldrh	r7, [r4, #4]
 159 005e 3846     		mov	r0, r7
 160              	.LVL11:
  59:../Src/list.c ****         if(node == NULL)
 161              		.loc 1 59 24 view .LVU43
 162 0060 FFF7FEFF 		bl	malloc
 163              	.LVL12:
  59:../Src/list.c ****         if(node == NULL)
 164              		.loc 1 59 22 view .LVU44
 165 0064 6860     		str	r0, [r5, #4]
  60:../Src/list.c ****         {
 166              		.loc 1 60 9 is_stmt 1 view .LVU45
  66:../Src/list.c ****         node->next = NULL; // End of list
 167              		.loc 1 66 9 view .LVU46
 168 0066 3A46     		mov	r2, r7
 169 0068 3146     		mov	r1, r6
 170 006a FFF7FEFF 		bl	memcpy
 171              	.LVL13:
  67:../Src/list.c **** 
 172              		.loc 1 67 9 view .LVU47
  67:../Src/list.c **** 
 173              		.loc 1 67 20 is_stmt 0 view .LVU48
 174 006e 0023     		movs	r3, #0
 175 0070 2B60     		str	r3, [r5]
  69:../Src/list.c ****         while (tail->next != NULL)
 176              		.loc 1 69 9 is_stmt 1 view .LVU49
  69:../Src/list.c ****         while (tail->next != NULL)
 177              		.loc 1 69 21 is_stmt 0 view .LVU50
 178 0072 2368     		ldr	r3, [r4]
 179              	.LVL14:
  70:../Src/list.c ****         {
 180              		.loc 1 70 9 is_stmt 1 view .LVU51
 181              	.L7:
  70:../Src/list.c ****         {
 182              		.loc 1 70 15 view .LVU52
 183 0074 1A46     		mov	r2, r3
  70:../Src/list.c ****         {
 184              		.loc 1 70 20 is_stmt 0 view .LVU53
 185 0076 1B68     		ldr	r3, [r3]
 186              	.LVL15:
  70:../Src/list.c ****         {
 187              		.loc 1 70 15 view .LVU54
ARM GAS  C:\Users\hoodc\AppData\Local\Temp\ccE7VNC4.s 			page 6


 188 0078 002B     		cmp	r3, #0
 189 007a FBD1     		bne	.L7
  75:../Src/list.c ****     }
 190              		.loc 1 75 9 is_stmt 1 view .LVU55
  75:../Src/list.c ****     }
 191              		.loc 1 75 20 is_stmt 0 view .LVU56
 192 007c 1560     		str	r5, [r2]
 193              	.LBE2:
 194              		.loc 1 78 12 view .LVU57
 195 007e 0020     		movs	r0, #0
 196              	.LVL16:
 197              	.L6:
  79:../Src/list.c **** }
 198              		.loc 1 79 1 view .LVU58
 199 0080 F8BD     		pop	{r3, r4, r5, r6, r7, pc}
 200              	.LVL17:
 201              	.L8:
  47:../Src/list.c **** 
 202              		.loc 1 47 18 view .LVU59
 203 0082 0220     		movs	r0, #2
 204 0084 FCE7     		b	.L6
 205              	.LVL18:
 206              	.L9:
 207              	.LBB3:
  57:../Src/list.c **** 
 208              		.loc 1 57 18 view .LVU60
 209 0086 0220     		movs	r0, #2
 210              	.LVL19:
  57:../Src/list.c **** 
 211              		.loc 1 57 18 view .LVU61
 212 0088 FAE7     		b	.L6
 213              	.LBE3:
 214              		.cfi_endproc
 215              	.LFE1:
 216              		.size	List_Add_To_End, .-List_Add_To_End
 217              		.align	1
 218              		.global	List_Add_To_Beginning
 219              		.syntax unified
 220              		.thumb
 221              		.thumb_func
 222              		.fpu softvfp
 223              		.type	List_Add_To_Beginning, %function
 224              	List_Add_To_Beginning:
 225              	.LVL20:
 226              	.LFB2:
  80:../Src/list.c **** 
  81:../Src/list.c **** /**
  82:../Src/list.c ****   * @brief Adds the value to the beginning of the list. Shuffles the pointers to put the new node u
  83:../Src/list.c ****   * @param value Pointer to the data to store in the list. Uses the ListHandle_t->object_size to de
  84:../Src/list.c ****   * @retval None
  85:../Src/list.c ****   */
  86:../Src/list.c **** ListStatus_t List_Add_To_Beginning(ListHandle_t *hlist, void *value)
  87:../Src/list.c **** {
 227              		.loc 1 87 1 is_stmt 1 view -0
 228              		.cfi_startproc
 229              		@ args = 0, pretend = 0, frame = 0
 230              		@ frame_needed = 0, uses_anonymous_args = 0
ARM GAS  C:\Users\hoodc\AppData\Local\Temp\ccE7VNC4.s 			page 7


 231              		.loc 1 87 1 is_stmt 0 view .LVU63
 232 008a F8B5     		push	{r3, r4, r5, r6, r7, lr}
 233              	.LCFI2:
 234              		.cfi_def_cfa_offset 24
 235              		.cfi_offset 3, -24
 236              		.cfi_offset 4, -20
 237              		.cfi_offset 5, -16
 238              		.cfi_offset 6, -12
 239              		.cfi_offset 7, -8
 240              		.cfi_offset 14, -4
 241 008c 0446     		mov	r4, r0
 242 008e 0E46     		mov	r6, r1
  88:../Src/list.c ****     if (hlist->empty)
 243              		.loc 1 88 5 is_stmt 1 view .LVU64
 244              		.loc 1 88 8 is_stmt 0 view .LVU65
 245 0090 8379     		ldrb	r3, [r0, #6]	@ zero_extendqisi2
 246 0092 93B1     		cbz	r3, .L12
  89:../Src/list.c ****     {
  90:../Src/list.c ****         hlist->list_head->object = (void*)malloc(hlist->object_size); // Allocate object only
 247              		.loc 1 90 9 is_stmt 1 view .LVU66
 248              		.loc 1 90 14 is_stmt 0 view .LVU67
 249 0094 0568     		ldr	r5, [r0]
 250              		.loc 1 90 36 view .LVU68
 251 0096 8088     		ldrh	r0, [r0, #4]
 252              	.LVL21:
 253              		.loc 1 90 36 view .LVU69
 254 0098 FFF7FEFF 		bl	malloc
 255              	.LVL22:
 256              		.loc 1 90 34 view .LVU70
 257 009c 6860     		str	r0, [r5, #4]
  91:../Src/list.c ****         if(hlist->list_head->object == NULL)
 258              		.loc 1 91 9 is_stmt 1 view .LVU71
 259              		.loc 1 91 17 is_stmt 0 view .LVU72
 260 009e 2368     		ldr	r3, [r4]
 261              		.loc 1 91 11 view .LVU73
 262 00a0 5A68     		ldr	r2, [r3, #4]
 263 00a2 1AB3     		cbz	r2, .L15
  92:../Src/list.c ****           return LIST_FAILED;
  93:../Src/list.c **** 
  94:../Src/list.c ****         hlist->empty = false;
 264              		.loc 1 94 9 is_stmt 1 view .LVU74
 265              		.loc 1 94 22 is_stmt 0 view .LVU75
 266 00a4 0025     		movs	r5, #0
 267 00a6 A571     		strb	r5, [r4, #6]
  95:../Src/list.c ****         memcpy(hlist->list_head->object, value, hlist->object_size); // Copy object into memory
 268              		.loc 1 95 9 is_stmt 1 view .LVU76
 269 00a8 A288     		ldrh	r2, [r4, #4]
 270 00aa 3146     		mov	r1, r6
 271 00ac 5868     		ldr	r0, [r3, #4]
 272 00ae FFF7FEFF 		bl	memcpy
 273              	.LVL23:
  96:../Src/list.c ****         hlist->list_head->next = NULL; // End of list
 274              		.loc 1 96 9 view .LVU77
 275              		.loc 1 96 14 is_stmt 0 view .LVU78
 276 00b2 2368     		ldr	r3, [r4]
 277              		.loc 1 96 32 view .LVU79
 278 00b4 1D60     		str	r5, [r3]
ARM GAS  C:\Users\hoodc\AppData\Local\Temp\ccE7VNC4.s 			page 8


  97:../Src/list.c ****     }
  98:../Src/list.c ****     else
  99:../Src/list.c ****     {
 100:../Src/list.c ****         ListNode_t *node = (ListNode_t*)malloc(sizeof(ListNode_t));   // Allocate new list node
 101:../Src/list.c ****         if(node == NULL)
 102:../Src/list.c ****           return LIST_FAILED;
 103:../Src/list.c **** 
 104:../Src/list.c ****         node->object = (void*)malloc(hlist->object_size);       // Allocate object
 105:../Src/list.c ****         if(node->object == NULL)
 106:../Src/list.c ****         {
 107:../Src/list.c ****           free(node);
 108:../Src/list.c ****           return LIST_FAILED;
 109:../Src/list.c ****         }
 110:../Src/list.c ****         memcpy(node->object, value, hlist->object_size); // Copy object into memory
 111:../Src/list.c ****         node->next = hlist->list_head;                   // Put the temp *node as the head
 112:../Src/list.c ****         hlist->list_head = node;
 113:../Src/list.c ****     }
 114:../Src/list.c **** 
 115:../Src/list.c ****     return LIST_OK;
 279              		.loc 1 115 12 view .LVU80
 280 00b6 2846     		mov	r0, r5
 281 00b8 12E0     		b	.L13
 282              	.LVL24:
 283              	.L12:
 284              	.LBB4:
 100:../Src/list.c ****         if(node == NULL)
 285              		.loc 1 100 9 is_stmt 1 view .LVU81
 100:../Src/list.c ****         if(node == NULL)
 286              		.loc 1 100 41 is_stmt 0 view .LVU82
 287 00ba 0820     		movs	r0, #8
 288              	.LVL25:
 100:../Src/list.c ****         if(node == NULL)
 289              		.loc 1 100 41 view .LVU83
 290 00bc FFF7FEFF 		bl	malloc
 291              	.LVL26:
 101:../Src/list.c ****           return LIST_FAILED;
 292              		.loc 1 101 9 is_stmt 1 view .LVU84
 101:../Src/list.c ****           return LIST_FAILED;
 293              		.loc 1 101 11 is_stmt 0 view .LVU85
 294 00c0 0546     		mov	r5, r0
 295 00c2 A8B1     		cbz	r0, .L16
 104:../Src/list.c ****         if(node->object == NULL)
 296              		.loc 1 104 9 is_stmt 1 view .LVU86
 104:../Src/list.c ****         if(node->object == NULL)
 297              		.loc 1 104 24 is_stmt 0 view .LVU87
 298 00c4 A788     		ldrh	r7, [r4, #4]
 299 00c6 3846     		mov	r0, r7
 300              	.LVL27:
 104:../Src/list.c ****         if(node->object == NULL)
 301              		.loc 1 104 24 view .LVU88
 302 00c8 FFF7FEFF 		bl	malloc
 303              	.LVL28:
 104:../Src/list.c ****         if(node->object == NULL)
 304              		.loc 1 104 22 view .LVU89
 305 00cc 6860     		str	r0, [r5, #4]
 105:../Src/list.c ****         {
 306              		.loc 1 105 9 is_stmt 1 view .LVU90
ARM GAS  C:\Users\hoodc\AppData\Local\Temp\ccE7VNC4.s 			page 9


 105:../Src/list.c ****         {
 307              		.loc 1 105 11 is_stmt 0 view .LVU91
 308 00ce 40B1     		cbz	r0, .L17
 110:../Src/list.c ****         node->next = hlist->list_head;                   // Put the temp *node as the head
 309              		.loc 1 110 9 is_stmt 1 view .LVU92
 310 00d0 3A46     		mov	r2, r7
 311 00d2 3146     		mov	r1, r6
 312 00d4 FFF7FEFF 		bl	memcpy
 313              	.LVL29:
 111:../Src/list.c ****         hlist->list_head = node;
 314              		.loc 1 111 9 view .LVU93
 111:../Src/list.c ****         hlist->list_head = node;
 315              		.loc 1 111 20 is_stmt 0 view .LVU94
 316 00d8 2368     		ldr	r3, [r4]
 317 00da 2B60     		str	r3, [r5]
 112:../Src/list.c ****     }
 318              		.loc 1 112 9 is_stmt 1 view .LVU95
 112:../Src/list.c ****     }
 319              		.loc 1 112 26 is_stmt 0 view .LVU96
 320 00dc 2560     		str	r5, [r4]
 321              	.LBE4:
 322              		.loc 1 115 12 view .LVU97
 323 00de 0020     		movs	r0, #0
 324              	.LVL30:
 325              	.L13:
 116:../Src/list.c **** }
 326              		.loc 1 116 1 view .LVU98
 327 00e0 F8BD     		pop	{r3, r4, r5, r6, r7, pc}
 328              	.LVL31:
 329              	.L17:
 330              	.LBB5:
 107:../Src/list.c ****           return LIST_FAILED;
 331              		.loc 1 107 11 is_stmt 1 view .LVU99
 332 00e2 2846     		mov	r0, r5
 333 00e4 FFF7FEFF 		bl	free
 334              	.LVL32:
 108:../Src/list.c ****         }
 335              		.loc 1 108 11 view .LVU100
 108:../Src/list.c ****         }
 336              		.loc 1 108 18 is_stmt 0 view .LVU101
 337 00e8 0220     		movs	r0, #2
 338 00ea F9E7     		b	.L13
 339              	.LVL33:
 340              	.L15:
 108:../Src/list.c ****         }
 341              		.loc 1 108 18 view .LVU102
 342              	.LBE5:
  92:../Src/list.c **** 
 343              		.loc 1 92 18 view .LVU103
 344 00ec 0220     		movs	r0, #2
 345 00ee F7E7     		b	.L13
 346              	.LVL34:
 347              	.L16:
 348              	.LBB6:
 102:../Src/list.c **** 
 349              		.loc 1 102 18 view .LVU104
 350 00f0 0220     		movs	r0, #2
ARM GAS  C:\Users\hoodc\AppData\Local\Temp\ccE7VNC4.s 			page 10


 351              	.LVL35:
 102:../Src/list.c **** 
 352              		.loc 1 102 18 view .LVU105
 353 00f2 F5E7     		b	.L13
 354              	.LBE6:
 355              		.cfi_endproc
 356              	.LFE2:
 357              		.size	List_Add_To_Beginning, .-List_Add_To_Beginning
 358              		.align	1
 359              		.global	List_Is_Empty
 360              		.syntax unified
 361              		.thumb
 362              		.thumb_func
 363              		.fpu softvfp
 364              		.type	List_Is_Empty, %function
 365              	List_Is_Empty:
 366              	.LVL36:
 367              	.LFB3:
 117:../Src/list.c **** 
 118:../Src/list.c **** /**
 119:../Src/list.c ****   * @brief Checks if the list is empty
 120:../Src/list.c ****   * @param hlist Handle to the list instance
 121:../Src/list.c ****   * @retval bool Is the list empty
 122:../Src/list.c ****   */
 123:../Src/list.c **** bool List_Is_Empty(ListHandle_t *hlist)
 124:../Src/list.c **** {
 368              		.loc 1 124 1 is_stmt 1 view -0
 369              		.cfi_startproc
 370              		@ args = 0, pretend = 0, frame = 0
 371              		@ frame_needed = 0, uses_anonymous_args = 0
 372              		@ link register save eliminated.
 125:../Src/list.c ****   return hlist->empty;
 373              		.loc 1 125 3 view .LVU107
 126:../Src/list.c **** }
 374              		.loc 1 126 1 is_stmt 0 view .LVU108
 375 00f4 8079     		ldrb	r0, [r0, #6]	@ zero_extendqisi2
 376              	.LVL37:
 377              		.loc 1 126 1 view .LVU109
 378 00f6 7047     		bx	lr
 379              		.cfi_endproc
 380              	.LFE3:
 381              		.size	List_Is_Empty, .-List_Is_Empty
 382              	.Letext0:
 383              		.file 2 "c:\\program files (x86)\\gnu arm embedded toolchain\\10 2020-q4-major\\arm-none-eabi\\inc
 384              		.file 3 "c:\\program files (x86)\\gnu arm embedded toolchain\\10 2020-q4-major\\arm-none-eabi\\inc
 385              		.file 4 "../Inc/list.h"
 386              		.file 5 "c:\\program files (x86)\\gnu arm embedded toolchain\\10 2020-q4-major\\arm-none-eabi\\inc
 387              		.file 6 "<built-in>"