ARM GAS  C:\Users\hoodc\AppData\Local\Temp\cc0s45Xa.s 			page 1


   1              		.cpu cortex-m4
   2              		.eabi_attribute 20, 1
   3              		.eabi_attribute 21, 1
   4              		.eabi_attribute 23, 3
   5              		.eabi_attribute 24, 1
   6              		.eabi_attribute 25, 1
   7              		.eabi_attribute 26, 1
   8              		.eabi_attribute 30, 1
   9              		.eabi_attribute 34, 1
  10              		.eabi_attribute 18, 4
  11              		.file	"stm32l4xx_hal.c"
  12              		.text
  13              	.Ltext0:
  14              		.cfi_sections	.debug_frame
  15              		.align	1
  16              		.weak	HAL_MspInit
  17              		.arch armv7e-m
  18              		.syntax unified
  19              		.thumb
  20              		.thumb_func
  21              		.fpu softvfp
  22              		.type	HAL_MspInit, %function
  23              	HAL_MspInit:
  24              	.LFB135:
  25              		.file 1 "../Drivers/STM32L4xx_HAL_Driver/Src/stm32l4xx_hal.c"
   1:../Drivers/STM32L4xx_HAL_Driver/Src/stm32l4xx_hal.c **** /**
   2:../Drivers/STM32L4xx_HAL_Driver/Src/stm32l4xx_hal.c ****   ******************************************************************************
   3:../Drivers/STM32L4xx_HAL_Driver/Src/stm32l4xx_hal.c ****   * @file    stm32l4xx_hal.c
   4:../Drivers/STM32L4xx_HAL_Driver/Src/stm32l4xx_hal.c ****   * @author  MCD Application Team
   5:../Drivers/STM32L4xx_HAL_Driver/Src/stm32l4xx_hal.c ****   * @brief   HAL module driver.
   6:../Drivers/STM32L4xx_HAL_Driver/Src/stm32l4xx_hal.c ****   *          This is the common part of the HAL initialization
   7:../Drivers/STM32L4xx_HAL_Driver/Src/stm32l4xx_hal.c ****   *
   8:../Drivers/STM32L4xx_HAL_Driver/Src/stm32l4xx_hal.c ****   @verbatim
   9:../Drivers/STM32L4xx_HAL_Driver/Src/stm32l4xx_hal.c ****   ==============================================================================
  10:../Drivers/STM32L4xx_HAL_Driver/Src/stm32l4xx_hal.c ****                      ##### How to use this driver #####
  11:../Drivers/STM32L4xx_HAL_Driver/Src/stm32l4xx_hal.c ****   ==============================================================================
  12:../Drivers/STM32L4xx_HAL_Driver/Src/stm32l4xx_hal.c ****     [..]
  13:../Drivers/STM32L4xx_HAL_Driver/Src/stm32l4xx_hal.c ****     The common HAL driver contains a set of generic and common APIs that can be
  14:../Drivers/STM32L4xx_HAL_Driver/Src/stm32l4xx_hal.c ****     used by the PPP peripheral drivers and the user to start using the HAL.
  15:../Drivers/STM32L4xx_HAL_Driver/Src/stm32l4xx_hal.c ****     [..]
  16:../Drivers/STM32L4xx_HAL_Driver/Src/stm32l4xx_hal.c ****     The HAL contains two APIs' categories:
  17:../Drivers/STM32L4xx_HAL_Driver/Src/stm32l4xx_hal.c ****          (+) Common HAL APIs
  18:../Drivers/STM32L4xx_HAL_Driver/Src/stm32l4xx_hal.c ****          (+) Services HAL APIs
  19:../Drivers/STM32L4xx_HAL_Driver/Src/stm32l4xx_hal.c **** 
  20:../Drivers/STM32L4xx_HAL_Driver/Src/stm32l4xx_hal.c ****   @endverbatim
  21:../Drivers/STM32L4xx_HAL_Driver/Src/stm32l4xx_hal.c ****   ******************************************************************************
  22:../Drivers/STM32L4xx_HAL_Driver/Src/stm32l4xx_hal.c ****   * @attention
  23:../Drivers/STM32L4xx_HAL_Driver/Src/stm32l4xx_hal.c ****   *
  24:../Drivers/STM32L4xx_HAL_Driver/Src/stm32l4xx_hal.c ****   * <h2><center>&copy; Copyright (c) 2017 STMicroelectronics.
  25:../Drivers/STM32L4xx_HAL_Driver/Src/stm32l4xx_hal.c ****   * All rights reserved.</center></h2>
  26:../Drivers/STM32L4xx_HAL_Driver/Src/stm32l4xx_hal.c ****   *
  27:../Drivers/STM32L4xx_HAL_Driver/Src/stm32l4xx_hal.c ****   * This software component is licensed by ST under BSD 3-Clause license,
  28:../Drivers/STM32L4xx_HAL_Driver/Src/stm32l4xx_hal.c ****   * the "License"; You may not use this file except in compliance with the
  29:../Drivers/STM32L4xx_HAL_Driver/Src/stm32l4xx_hal.c ****   * License. You may obtain a copy of the License at:
  30:../Drivers/STM32L4xx_HAL_Driver/Src/stm32l4xx_hal.c ****   *                        opensource.org/licenses/BSD-3-Clause
  31:../Drivers/STM32L4xx_HAL_Driver/Src/stm32l4xx_hal.c ****   *
  32:../Drivers/STM32L4xx_HAL_Driver/Src/stm32l4xx_hal.c ****   ******************************************************************************
ARM GAS  C:\Users\hoodc\AppData\Local\Temp\cc0s45Xa.s 			page 2


  33:../Drivers/STM32L4xx_HAL_Driver/Src/stm32l4xx_hal.c ****   */
  34:../Drivers/STM32L4xx_HAL_Driver/Src/stm32l4xx_hal.c **** 
  35:../Drivers/STM32L4xx_HAL_Driver/Src/stm32l4xx_hal.c **** /* Includes ------------------------------------------------------------------*/
  36:../Drivers/STM32L4xx_HAL_Driver/Src/stm32l4xx_hal.c **** #include "stm32l4xx_hal.h"
  37:../Drivers/STM32L4xx_HAL_Driver/Src/stm32l4xx_hal.c **** 
  38:../Drivers/STM32L4xx_HAL_Driver/Src/stm32l4xx_hal.c **** /** @addtogroup STM32L4xx_HAL_Driver
  39:../Drivers/STM32L4xx_HAL_Driver/Src/stm32l4xx_hal.c ****   * @{
  40:../Drivers/STM32L4xx_HAL_Driver/Src/stm32l4xx_hal.c ****   */
  41:../Drivers/STM32L4xx_HAL_Driver/Src/stm32l4xx_hal.c **** 
  42:../Drivers/STM32L4xx_HAL_Driver/Src/stm32l4xx_hal.c **** /** @defgroup HAL HAL
  43:../Drivers/STM32L4xx_HAL_Driver/Src/stm32l4xx_hal.c ****   * @brief HAL module driver
  44:../Drivers/STM32L4xx_HAL_Driver/Src/stm32l4xx_hal.c ****   * @{
  45:../Drivers/STM32L4xx_HAL_Driver/Src/stm32l4xx_hal.c ****   */
  46:../Drivers/STM32L4xx_HAL_Driver/Src/stm32l4xx_hal.c **** 
  47:../Drivers/STM32L4xx_HAL_Driver/Src/stm32l4xx_hal.c **** #ifdef HAL_MODULE_ENABLED
  48:../Drivers/STM32L4xx_HAL_Driver/Src/stm32l4xx_hal.c **** 
  49:../Drivers/STM32L4xx_HAL_Driver/Src/stm32l4xx_hal.c **** /* Private typedef -----------------------------------------------------------*/
  50:../Drivers/STM32L4xx_HAL_Driver/Src/stm32l4xx_hal.c **** /* Private define ------------------------------------------------------------*/
  51:../Drivers/STM32L4xx_HAL_Driver/Src/stm32l4xx_hal.c **** /**
  52:../Drivers/STM32L4xx_HAL_Driver/Src/stm32l4xx_hal.c ****  * @brief STM32L4xx HAL Driver version number
  53:../Drivers/STM32L4xx_HAL_Driver/Src/stm32l4xx_hal.c ****    */
  54:../Drivers/STM32L4xx_HAL_Driver/Src/stm32l4xx_hal.c **** #define STM32L4XX_HAL_VERSION_MAIN   (0x01U) /*!< [31:24] main version */
  55:../Drivers/STM32L4xx_HAL_Driver/Src/stm32l4xx_hal.c **** #define STM32L4XX_HAL_VERSION_SUB1   (0x0BU) /*!< [23:16] sub1 version */
  56:../Drivers/STM32L4xx_HAL_Driver/Src/stm32l4xx_hal.c **** #define STM32L4XX_HAL_VERSION_SUB2   (0x01U) /*!< [15:8]  sub2 version */
  57:../Drivers/STM32L4xx_HAL_Driver/Src/stm32l4xx_hal.c **** #define STM32L4XX_HAL_VERSION_RC     (0x00U) /*!< [7:0]  release candidate */
  58:../Drivers/STM32L4xx_HAL_Driver/Src/stm32l4xx_hal.c **** #define STM32L4XX_HAL_VERSION        ((STM32L4XX_HAL_VERSION_MAIN  << 24U)\
  59:../Drivers/STM32L4xx_HAL_Driver/Src/stm32l4xx_hal.c ****                                       |(STM32L4XX_HAL_VERSION_SUB1 << 16U)\
  60:../Drivers/STM32L4xx_HAL_Driver/Src/stm32l4xx_hal.c ****                                       |(STM32L4XX_HAL_VERSION_SUB2 << 8U)\
  61:../Drivers/STM32L4xx_HAL_Driver/Src/stm32l4xx_hal.c ****                                       |(STM32L4XX_HAL_VERSION_RC))
  62:../Drivers/STM32L4xx_HAL_Driver/Src/stm32l4xx_hal.c **** 
  63:../Drivers/STM32L4xx_HAL_Driver/Src/stm32l4xx_hal.c **** #if defined(VREFBUF)
  64:../Drivers/STM32L4xx_HAL_Driver/Src/stm32l4xx_hal.c **** #define VREFBUF_TIMEOUT_VALUE     10U   /* 10 ms (to be confirmed) */
  65:../Drivers/STM32L4xx_HAL_Driver/Src/stm32l4xx_hal.c **** #endif /* VREFBUF */
  66:../Drivers/STM32L4xx_HAL_Driver/Src/stm32l4xx_hal.c **** 
  67:../Drivers/STM32L4xx_HAL_Driver/Src/stm32l4xx_hal.c **** /* ------------ SYSCFG registers bit address in the alias region ------------ */
  68:../Drivers/STM32L4xx_HAL_Driver/Src/stm32l4xx_hal.c **** #define SYSCFG_OFFSET             (SYSCFG_BASE - PERIPH_BASE)
  69:../Drivers/STM32L4xx_HAL_Driver/Src/stm32l4xx_hal.c **** /* ---  MEMRMP Register ---*/
  70:../Drivers/STM32L4xx_HAL_Driver/Src/stm32l4xx_hal.c **** /* Alias word address of FB_MODE bit */
  71:../Drivers/STM32L4xx_HAL_Driver/Src/stm32l4xx_hal.c **** #define MEMRMP_OFFSET             SYSCFG_OFFSET
  72:../Drivers/STM32L4xx_HAL_Driver/Src/stm32l4xx_hal.c **** #define FB_MODE_BitNumber         8U
  73:../Drivers/STM32L4xx_HAL_Driver/Src/stm32l4xx_hal.c **** #define FB_MODE_BB                (PERIPH_BB_BASE + (MEMRMP_OFFSET * 32U) + (FB_MODE_BitNumber * 4U
  74:../Drivers/STM32L4xx_HAL_Driver/Src/stm32l4xx_hal.c **** 
  75:../Drivers/STM32L4xx_HAL_Driver/Src/stm32l4xx_hal.c **** /* --- SCSR Register ---*/
  76:../Drivers/STM32L4xx_HAL_Driver/Src/stm32l4xx_hal.c **** /* Alias word address of SRAM2ER bit */
  77:../Drivers/STM32L4xx_HAL_Driver/Src/stm32l4xx_hal.c **** #define SCSR_OFFSET               (SYSCFG_OFFSET + 0x18U)
  78:../Drivers/STM32L4xx_HAL_Driver/Src/stm32l4xx_hal.c **** #define BRER_BitNumber            0U
  79:../Drivers/STM32L4xx_HAL_Driver/Src/stm32l4xx_hal.c **** #define SCSR_SRAM2ER_BB           (PERIPH_BB_BASE + (SCSR_OFFSET * 32U) + (BRER_BitNumber * 4U))
  80:../Drivers/STM32L4xx_HAL_Driver/Src/stm32l4xx_hal.c **** 
  81:../Drivers/STM32L4xx_HAL_Driver/Src/stm32l4xx_hal.c **** /* Private macro -------------------------------------------------------------*/
  82:../Drivers/STM32L4xx_HAL_Driver/Src/stm32l4xx_hal.c **** /* Private variables ---------------------------------------------------------*/
  83:../Drivers/STM32L4xx_HAL_Driver/Src/stm32l4xx_hal.c **** /* Private function prototypes -----------------------------------------------*/
  84:../Drivers/STM32L4xx_HAL_Driver/Src/stm32l4xx_hal.c **** 
  85:../Drivers/STM32L4xx_HAL_Driver/Src/stm32l4xx_hal.c **** /* Exported variables --------------------------------------------------------*/
  86:../Drivers/STM32L4xx_HAL_Driver/Src/stm32l4xx_hal.c **** 
  87:../Drivers/STM32L4xx_HAL_Driver/Src/stm32l4xx_hal.c **** /** @defgroup HAL_Exported_Variables HAL Exported Variables
  88:../Drivers/STM32L4xx_HAL_Driver/Src/stm32l4xx_hal.c ****   * @{
  89:../Drivers/STM32L4xx_HAL_Driver/Src/stm32l4xx_hal.c ****   */
ARM GAS  C:\Users\hoodc\AppData\Local\Temp\cc0s45Xa.s 			page 3


  90:../Drivers/STM32L4xx_HAL_Driver/Src/stm32l4xx_hal.c **** __IO uint32_t uwTick;
  91:../Drivers/STM32L4xx_HAL_Driver/Src/stm32l4xx_hal.c **** uint32_t uwTickPrio = (1UL << __NVIC_PRIO_BITS); /* Invalid priority */
  92:../Drivers/STM32L4xx_HAL_Driver/Src/stm32l4xx_hal.c **** uint32_t uwTickFreq = HAL_TICK_FREQ_DEFAULT;  /* 1KHz */
  93:../Drivers/STM32L4xx_HAL_Driver/Src/stm32l4xx_hal.c **** /**
  94:../Drivers/STM32L4xx_HAL_Driver/Src/stm32l4xx_hal.c ****   * @}
  95:../Drivers/STM32L4xx_HAL_Driver/Src/stm32l4xx_hal.c ****   */
  96:../Drivers/STM32L4xx_HAL_Driver/Src/stm32l4xx_hal.c **** 
  97:../Drivers/STM32L4xx_HAL_Driver/Src/stm32l4xx_hal.c **** /* Exported functions --------------------------------------------------------*/
  98:../Drivers/STM32L4xx_HAL_Driver/Src/stm32l4xx_hal.c **** 
  99:../Drivers/STM32L4xx_HAL_Driver/Src/stm32l4xx_hal.c **** /** @defgroup HAL_Exported_Functions HAL Exported Functions
 100:../Drivers/STM32L4xx_HAL_Driver/Src/stm32l4xx_hal.c ****   * @{
 101:../Drivers/STM32L4xx_HAL_Driver/Src/stm32l4xx_hal.c ****   */
 102:../Drivers/STM32L4xx_HAL_Driver/Src/stm32l4xx_hal.c **** 
 103:../Drivers/STM32L4xx_HAL_Driver/Src/stm32l4xx_hal.c **** /** @defgroup HAL_Exported_Functions_Group1 Initialization and de-initialization Functions
 104:../Drivers/STM32L4xx_HAL_Driver/Src/stm32l4xx_hal.c ****  *  @brief    Initialization and de-initialization functions
 105:../Drivers/STM32L4xx_HAL_Driver/Src/stm32l4xx_hal.c ****  *
 106:../Drivers/STM32L4xx_HAL_Driver/Src/stm32l4xx_hal.c **** @verbatim
 107:../Drivers/STM32L4xx_HAL_Driver/Src/stm32l4xx_hal.c ****  ===============================================================================
 108:../Drivers/STM32L4xx_HAL_Driver/Src/stm32l4xx_hal.c ****               ##### Initialization and de-initialization functions #####
 109:../Drivers/STM32L4xx_HAL_Driver/Src/stm32l4xx_hal.c ****  ===============================================================================
 110:../Drivers/STM32L4xx_HAL_Driver/Src/stm32l4xx_hal.c ****     [..]  This section provides functions allowing to:
 111:../Drivers/STM32L4xx_HAL_Driver/Src/stm32l4xx_hal.c ****       (+) Initialize the Flash interface, the NVIC allocation and initial time base
 112:../Drivers/STM32L4xx_HAL_Driver/Src/stm32l4xx_hal.c ****           clock configuration.
 113:../Drivers/STM32L4xx_HAL_Driver/Src/stm32l4xx_hal.c ****       (+) De-initialize common part of the HAL.
 114:../Drivers/STM32L4xx_HAL_Driver/Src/stm32l4xx_hal.c ****       (+) Configure the time base source to have 1ms time base with a dedicated
 115:../Drivers/STM32L4xx_HAL_Driver/Src/stm32l4xx_hal.c ****           Tick interrupt priority.
 116:../Drivers/STM32L4xx_HAL_Driver/Src/stm32l4xx_hal.c ****         (++) SysTick timer is used by default as source of time base, but user
 117:../Drivers/STM32L4xx_HAL_Driver/Src/stm32l4xx_hal.c ****              can eventually implement his proper time base source (a general purpose
 118:../Drivers/STM32L4xx_HAL_Driver/Src/stm32l4xx_hal.c ****              timer for example or other time source), keeping in mind that Time base
 119:../Drivers/STM32L4xx_HAL_Driver/Src/stm32l4xx_hal.c ****              duration should be kept 1ms since PPP_TIMEOUT_VALUEs are defined and
 120:../Drivers/STM32L4xx_HAL_Driver/Src/stm32l4xx_hal.c ****              handled in milliseconds basis.
 121:../Drivers/STM32L4xx_HAL_Driver/Src/stm32l4xx_hal.c ****         (++) Time base configuration function (HAL_InitTick ()) is called automatically
 122:../Drivers/STM32L4xx_HAL_Driver/Src/stm32l4xx_hal.c ****              at the beginning of the program after reset by HAL_Init() or at any time
 123:../Drivers/STM32L4xx_HAL_Driver/Src/stm32l4xx_hal.c ****              when clock is configured, by HAL_RCC_ClockConfig().
 124:../Drivers/STM32L4xx_HAL_Driver/Src/stm32l4xx_hal.c ****         (++) Source of time base is configured  to generate interrupts at regular
 125:../Drivers/STM32L4xx_HAL_Driver/Src/stm32l4xx_hal.c ****              time intervals. Care must be taken if HAL_Delay() is called from a
 126:../Drivers/STM32L4xx_HAL_Driver/Src/stm32l4xx_hal.c ****              peripheral ISR process, the Tick interrupt line must have higher priority
 127:../Drivers/STM32L4xx_HAL_Driver/Src/stm32l4xx_hal.c ****             (numerically lower) than the peripheral interrupt. Otherwise the caller
 128:../Drivers/STM32L4xx_HAL_Driver/Src/stm32l4xx_hal.c ****             ISR process will be blocked.
 129:../Drivers/STM32L4xx_HAL_Driver/Src/stm32l4xx_hal.c ****        (++) functions affecting time base configurations are declared as __weak
 130:../Drivers/STM32L4xx_HAL_Driver/Src/stm32l4xx_hal.c ****              to make  override possible  in case of other  implementations in user file.
 131:../Drivers/STM32L4xx_HAL_Driver/Src/stm32l4xx_hal.c **** @endverbatim
 132:../Drivers/STM32L4xx_HAL_Driver/Src/stm32l4xx_hal.c ****   * @{
 133:../Drivers/STM32L4xx_HAL_Driver/Src/stm32l4xx_hal.c ****   */
 134:../Drivers/STM32L4xx_HAL_Driver/Src/stm32l4xx_hal.c **** 
 135:../Drivers/STM32L4xx_HAL_Driver/Src/stm32l4xx_hal.c **** /**
 136:../Drivers/STM32L4xx_HAL_Driver/Src/stm32l4xx_hal.c ****   * @brief  Configure the Flash prefetch, the Instruction and Data caches,
 137:../Drivers/STM32L4xx_HAL_Driver/Src/stm32l4xx_hal.c ****   *         the time base source, NVIC and any required global low level hardware
 138:../Drivers/STM32L4xx_HAL_Driver/Src/stm32l4xx_hal.c ****   *         by calling the HAL_MspInit() callback function to be optionally defined in user file
 139:../Drivers/STM32L4xx_HAL_Driver/Src/stm32l4xx_hal.c ****   *         stm32l4xx_hal_msp.c.
 140:../Drivers/STM32L4xx_HAL_Driver/Src/stm32l4xx_hal.c ****   *
 141:../Drivers/STM32L4xx_HAL_Driver/Src/stm32l4xx_hal.c ****   * @note   HAL_Init() function is called at the beginning of program after reset and before
 142:../Drivers/STM32L4xx_HAL_Driver/Src/stm32l4xx_hal.c ****   *         the clock configuration.
 143:../Drivers/STM32L4xx_HAL_Driver/Src/stm32l4xx_hal.c ****   *
 144:../Drivers/STM32L4xx_HAL_Driver/Src/stm32l4xx_hal.c ****   * @note   In the default implementation the System Timer (Systick) is used as source of time base
 145:../Drivers/STM32L4xx_HAL_Driver/Src/stm32l4xx_hal.c ****   *         The Systick configuration is based on MSI clock, as MSI is the clock
 146:../Drivers/STM32L4xx_HAL_Driver/Src/stm32l4xx_hal.c ****   *         used after a system Reset and the NVIC configuration is set to Priority group 4.
ARM GAS  C:\Users\hoodc\AppData\Local\Temp\cc0s45Xa.s 			page 4


 147:../Drivers/STM32L4xx_HAL_Driver/Src/stm32l4xx_hal.c ****   *         Once done, time base tick starts incrementing: the tick variable counter is incremented
 148:../Drivers/STM32L4xx_HAL_Driver/Src/stm32l4xx_hal.c ****   *         each 1ms in the SysTick_Handler() interrupt handler.
 149:../Drivers/STM32L4xx_HAL_Driver/Src/stm32l4xx_hal.c ****   *
 150:../Drivers/STM32L4xx_HAL_Driver/Src/stm32l4xx_hal.c ****   * @retval HAL status
 151:../Drivers/STM32L4xx_HAL_Driver/Src/stm32l4xx_hal.c ****   */
 152:../Drivers/STM32L4xx_HAL_Driver/Src/stm32l4xx_hal.c **** HAL_StatusTypeDef HAL_Init(void)
 153:../Drivers/STM32L4xx_HAL_Driver/Src/stm32l4xx_hal.c **** {
 154:../Drivers/STM32L4xx_HAL_Driver/Src/stm32l4xx_hal.c ****   HAL_StatusTypeDef  status = HAL_OK;
 155:../Drivers/STM32L4xx_HAL_Driver/Src/stm32l4xx_hal.c **** 
 156:../Drivers/STM32L4xx_HAL_Driver/Src/stm32l4xx_hal.c ****   /* Configure Flash prefetch, Instruction cache, Data cache */
 157:../Drivers/STM32L4xx_HAL_Driver/Src/stm32l4xx_hal.c ****   /* Default configuration at reset is:                      */
 158:../Drivers/STM32L4xx_HAL_Driver/Src/stm32l4xx_hal.c ****   /* - Prefetch disabled                                     */
 159:../Drivers/STM32L4xx_HAL_Driver/Src/stm32l4xx_hal.c ****   /* - Instruction cache enabled                             */
 160:../Drivers/STM32L4xx_HAL_Driver/Src/stm32l4xx_hal.c ****   /* - Data cache enabled                                    */
 161:../Drivers/STM32L4xx_HAL_Driver/Src/stm32l4xx_hal.c **** #if (INSTRUCTION_CACHE_ENABLE == 0)
 162:../Drivers/STM32L4xx_HAL_Driver/Src/stm32l4xx_hal.c ****    __HAL_FLASH_INSTRUCTION_CACHE_DISABLE();
 163:../Drivers/STM32L4xx_HAL_Driver/Src/stm32l4xx_hal.c **** #endif /* INSTRUCTION_CACHE_ENABLE */
 164:../Drivers/STM32L4xx_HAL_Driver/Src/stm32l4xx_hal.c **** 
 165:../Drivers/STM32L4xx_HAL_Driver/Src/stm32l4xx_hal.c **** #if (DATA_CACHE_ENABLE == 0)
 166:../Drivers/STM32L4xx_HAL_Driver/Src/stm32l4xx_hal.c ****    __HAL_FLASH_DATA_CACHE_DISABLE();
 167:../Drivers/STM32L4xx_HAL_Driver/Src/stm32l4xx_hal.c **** #endif /* DATA_CACHE_ENABLE */
 168:../Drivers/STM32L4xx_HAL_Driver/Src/stm32l4xx_hal.c **** 
 169:../Drivers/STM32L4xx_HAL_Driver/Src/stm32l4xx_hal.c **** #if (PREFETCH_ENABLE != 0)
 170:../Drivers/STM32L4xx_HAL_Driver/Src/stm32l4xx_hal.c ****   __HAL_FLASH_PREFETCH_BUFFER_ENABLE();
 171:../Drivers/STM32L4xx_HAL_Driver/Src/stm32l4xx_hal.c **** #endif /* PREFETCH_ENABLE */
 172:../Drivers/STM32L4xx_HAL_Driver/Src/stm32l4xx_hal.c **** 
 173:../Drivers/STM32L4xx_HAL_Driver/Src/stm32l4xx_hal.c ****   /* Set Interrupt Group Priority */
 174:../Drivers/STM32L4xx_HAL_Driver/Src/stm32l4xx_hal.c ****   HAL_NVIC_SetPriorityGrouping(NVIC_PRIORITYGROUP_4);
 175:../Drivers/STM32L4xx_HAL_Driver/Src/stm32l4xx_hal.c **** 
 176:../Drivers/STM32L4xx_HAL_Driver/Src/stm32l4xx_hal.c ****   /* Use SysTick as time base source and configure 1ms tick (default clock after Reset is MSI) */
 177:../Drivers/STM32L4xx_HAL_Driver/Src/stm32l4xx_hal.c ****   if (HAL_InitTick(TICK_INT_PRIORITY) != HAL_OK)
 178:../Drivers/STM32L4xx_HAL_Driver/Src/stm32l4xx_hal.c ****   {
 179:../Drivers/STM32L4xx_HAL_Driver/Src/stm32l4xx_hal.c ****     status = HAL_ERROR;
 180:../Drivers/STM32L4xx_HAL_Driver/Src/stm32l4xx_hal.c ****   }
 181:../Drivers/STM32L4xx_HAL_Driver/Src/stm32l4xx_hal.c ****   else
 182:../Drivers/STM32L4xx_HAL_Driver/Src/stm32l4xx_hal.c ****   {
 183:../Drivers/STM32L4xx_HAL_Driver/Src/stm32l4xx_hal.c ****     /* Init the low level hardware */
 184:../Drivers/STM32L4xx_HAL_Driver/Src/stm32l4xx_hal.c ****     HAL_MspInit();
 185:../Drivers/STM32L4xx_HAL_Driver/Src/stm32l4xx_hal.c ****   }
 186:../Drivers/STM32L4xx_HAL_Driver/Src/stm32l4xx_hal.c **** 
 187:../Drivers/STM32L4xx_HAL_Driver/Src/stm32l4xx_hal.c ****   /* Return function status */
 188:../Drivers/STM32L4xx_HAL_Driver/Src/stm32l4xx_hal.c ****   return status;
 189:../Drivers/STM32L4xx_HAL_Driver/Src/stm32l4xx_hal.c **** }
 190:../Drivers/STM32L4xx_HAL_Driver/Src/stm32l4xx_hal.c **** 
 191:../Drivers/STM32L4xx_HAL_Driver/Src/stm32l4xx_hal.c **** /**
 192:../Drivers/STM32L4xx_HAL_Driver/Src/stm32l4xx_hal.c ****   * @brief De-initialize common part of the HAL and stop the source of time base.
 193:../Drivers/STM32L4xx_HAL_Driver/Src/stm32l4xx_hal.c ****   * @note This function is optional.
 194:../Drivers/STM32L4xx_HAL_Driver/Src/stm32l4xx_hal.c ****   * @retval HAL status
 195:../Drivers/STM32L4xx_HAL_Driver/Src/stm32l4xx_hal.c ****   */
 196:../Drivers/STM32L4xx_HAL_Driver/Src/stm32l4xx_hal.c **** HAL_StatusTypeDef HAL_DeInit(void)
 197:../Drivers/STM32L4xx_HAL_Driver/Src/stm32l4xx_hal.c **** {
 198:../Drivers/STM32L4xx_HAL_Driver/Src/stm32l4xx_hal.c ****   /* Reset of all peripherals */
 199:../Drivers/STM32L4xx_HAL_Driver/Src/stm32l4xx_hal.c ****   __HAL_RCC_APB1_FORCE_RESET();
 200:../Drivers/STM32L4xx_HAL_Driver/Src/stm32l4xx_hal.c ****   __HAL_RCC_APB1_RELEASE_RESET();
 201:../Drivers/STM32L4xx_HAL_Driver/Src/stm32l4xx_hal.c **** 
 202:../Drivers/STM32L4xx_HAL_Driver/Src/stm32l4xx_hal.c ****   __HAL_RCC_APB2_FORCE_RESET();
 203:../Drivers/STM32L4xx_HAL_Driver/Src/stm32l4xx_hal.c ****   __HAL_RCC_APB2_RELEASE_RESET();
ARM GAS  C:\Users\hoodc\AppData\Local\Temp\cc0s45Xa.s 			page 5


 204:../Drivers/STM32L4xx_HAL_Driver/Src/stm32l4xx_hal.c **** 
 205:../Drivers/STM32L4xx_HAL_Driver/Src/stm32l4xx_hal.c ****   __HAL_RCC_AHB1_FORCE_RESET();
 206:../Drivers/STM32L4xx_HAL_Driver/Src/stm32l4xx_hal.c ****   __HAL_RCC_AHB1_RELEASE_RESET();
 207:../Drivers/STM32L4xx_HAL_Driver/Src/stm32l4xx_hal.c **** 
 208:../Drivers/STM32L4xx_HAL_Driver/Src/stm32l4xx_hal.c ****   __HAL_RCC_AHB2_FORCE_RESET();
 209:../Drivers/STM32L4xx_HAL_Driver/Src/stm32l4xx_hal.c ****   __HAL_RCC_AHB2_RELEASE_RESET();
 210:../Drivers/STM32L4xx_HAL_Driver/Src/stm32l4xx_hal.c **** 
 211:../Drivers/STM32L4xx_HAL_Driver/Src/stm32l4xx_hal.c ****   __HAL_RCC_AHB3_FORCE_RESET();
 212:../Drivers/STM32L4xx_HAL_Driver/Src/stm32l4xx_hal.c ****   __HAL_RCC_AHB3_RELEASE_RESET();
 213:../Drivers/STM32L4xx_HAL_Driver/Src/stm32l4xx_hal.c **** 
 214:../Drivers/STM32L4xx_HAL_Driver/Src/stm32l4xx_hal.c ****   /* De-Init the low level hardware */
 215:../Drivers/STM32L4xx_HAL_Driver/Src/stm32l4xx_hal.c ****   HAL_MspDeInit();
 216:../Drivers/STM32L4xx_HAL_Driver/Src/stm32l4xx_hal.c **** 
 217:../Drivers/STM32L4xx_HAL_Driver/Src/stm32l4xx_hal.c ****   /* Return function status */
 218:../Drivers/STM32L4xx_HAL_Driver/Src/stm32l4xx_hal.c ****   return HAL_OK;
 219:../Drivers/STM32L4xx_HAL_Driver/Src/stm32l4xx_hal.c **** }
 220:../Drivers/STM32L4xx_HAL_Driver/Src/stm32l4xx_hal.c **** 
 221:../Drivers/STM32L4xx_HAL_Driver/Src/stm32l4xx_hal.c **** /**
 222:../Drivers/STM32L4xx_HAL_Driver/Src/stm32l4xx_hal.c ****   * @brief  Initialize the MSP.
 223:../Drivers/STM32L4xx_HAL_Driver/Src/stm32l4xx_hal.c ****   * @retval None
 224:../Drivers/STM32L4xx_HAL_Driver/Src/stm32l4xx_hal.c ****   */
 225:../Drivers/STM32L4xx_HAL_Driver/Src/stm32l4xx_hal.c **** __weak void HAL_MspInit(void)
 226:../Drivers/STM32L4xx_HAL_Driver/Src/stm32l4xx_hal.c **** {
  26              		.loc 1 226 1 view -0
  27              		.cfi_startproc
  28              		@ args = 0, pretend = 0, frame = 0
  29              		@ frame_needed = 0, uses_anonymous_args = 0
  30              		@ link register save eliminated.
 227:../Drivers/STM32L4xx_HAL_Driver/Src/stm32l4xx_hal.c ****   /* NOTE : This function should not be modified, when the callback is needed,
 228:../Drivers/STM32L4xx_HAL_Driver/Src/stm32l4xx_hal.c ****             the HAL_MspInit could be implemented in the user file
 229:../Drivers/STM32L4xx_HAL_Driver/Src/stm32l4xx_hal.c ****    */
 230:../Drivers/STM32L4xx_HAL_Driver/Src/stm32l4xx_hal.c **** }
  31              		.loc 1 230 1 view .LVU1
  32 0000 7047     		bx	lr
  33              		.cfi_endproc
  34              	.LFE135:
  35              		.size	HAL_MspInit, .-HAL_MspInit
  36              		.align	1
  37              		.weak	HAL_MspDeInit
  38              		.syntax unified
  39              		.thumb
  40              		.thumb_func
  41              		.fpu softvfp
  42              		.type	HAL_MspDeInit, %function
  43              	HAL_MspDeInit:
  44              	.LFB136:
 231:../Drivers/STM32L4xx_HAL_Driver/Src/stm32l4xx_hal.c **** 
 232:../Drivers/STM32L4xx_HAL_Driver/Src/stm32l4xx_hal.c **** /**
 233:../Drivers/STM32L4xx_HAL_Driver/Src/stm32l4xx_hal.c ****   * @brief  DeInitialize the MSP.
 234:../Drivers/STM32L4xx_HAL_Driver/Src/stm32l4xx_hal.c ****   * @retval None
 235:../Drivers/STM32L4xx_HAL_Driver/Src/stm32l4xx_hal.c ****   */
 236:../Drivers/STM32L4xx_HAL_Driver/Src/stm32l4xx_hal.c **** __weak void HAL_MspDeInit(void)
 237:../Drivers/STM32L4xx_HAL_Driver/Src/stm32l4xx_hal.c **** {
  45              		.loc 1 237 1 view -0
  46              		.cfi_startproc
  47              		@ args = 0, pretend = 0, frame = 0
  48              		@ frame_needed = 0, uses_anonymous_args = 0
ARM GAS  C:\Users\hoodc\AppData\Local\Temp\cc0s45Xa.s 			page 6


  49              		@ link register save eliminated.
 238:../Drivers/STM32L4xx_HAL_Driver/Src/stm32l4xx_hal.c ****   /* NOTE : This function should not be modified, when the callback is needed,
 239:../Drivers/STM32L4xx_HAL_Driver/Src/stm32l4xx_hal.c ****             the HAL_MspDeInit could be implemented in the user file
 240:../Drivers/STM32L4xx_HAL_Driver/Src/stm32l4xx_hal.c ****    */
 241:../Drivers/STM32L4xx_HAL_Driver/Src/stm32l4xx_hal.c **** }
  50              		.loc 1 241 1 view .LVU3
  51 0002 7047     		bx	lr
  52              		.cfi_endproc
  53              	.LFE136:
  54              		.size	HAL_MspDeInit, .-HAL_MspDeInit
  55              		.align	1
  56              		.global	HAL_DeInit
  57              		.syntax unified
  58              		.thumb
  59              		.thumb_func
  60              		.fpu softvfp
  61              		.type	HAL_DeInit, %function
  62              	HAL_DeInit:
  63              	.LFB134:
 197:../Drivers/STM32L4xx_HAL_Driver/Src/stm32l4xx_hal.c ****   /* Reset of all peripherals */
  64              		.loc 1 197 1 view -0
  65              		.cfi_startproc
  66              		@ args = 0, pretend = 0, frame = 0
  67              		@ frame_needed = 0, uses_anonymous_args = 0
  68 0004 10B5     		push	{r4, lr}
  69              	.LCFI0:
  70              		.cfi_def_cfa_offset 8
  71              		.cfi_offset 4, -8
  72              		.cfi_offset 14, -4
 199:../Drivers/STM32L4xx_HAL_Driver/Src/stm32l4xx_hal.c ****   __HAL_RCC_APB1_RELEASE_RESET();
  73              		.loc 1 199 3 view .LVU5
  74 0006 094B     		ldr	r3, .L4
  75 0008 4FF0FF32 		mov	r2, #-1
  76 000c 9A63     		str	r2, [r3, #56]
 200:../Drivers/STM32L4xx_HAL_Driver/Src/stm32l4xx_hal.c **** 
  77              		.loc 1 200 3 view .LVU6
  78 000e 0024     		movs	r4, #0
  79 0010 9C63     		str	r4, [r3, #56]
 202:../Drivers/STM32L4xx_HAL_Driver/Src/stm32l4xx_hal.c ****   __HAL_RCC_APB2_RELEASE_RESET();
  80              		.loc 1 202 3 view .LVU7
  81 0012 1A64     		str	r2, [r3, #64]
 203:../Drivers/STM32L4xx_HAL_Driver/Src/stm32l4xx_hal.c **** 
  82              		.loc 1 203 3 view .LVU8
  83 0014 1C64     		str	r4, [r3, #64]
 205:../Drivers/STM32L4xx_HAL_Driver/Src/stm32l4xx_hal.c ****   __HAL_RCC_AHB1_RELEASE_RESET();
  84              		.loc 1 205 3 view .LVU9
  85 0016 9A62     		str	r2, [r3, #40]
 206:../Drivers/STM32L4xx_HAL_Driver/Src/stm32l4xx_hal.c **** 
  86              		.loc 1 206 3 view .LVU10
  87 0018 9C62     		str	r4, [r3, #40]
 208:../Drivers/STM32L4xx_HAL_Driver/Src/stm32l4xx_hal.c ****   __HAL_RCC_AHB2_RELEASE_RESET();
  88              		.loc 1 208 3 view .LVU11
  89 001a DA62     		str	r2, [r3, #44]
 209:../Drivers/STM32L4xx_HAL_Driver/Src/stm32l4xx_hal.c **** 
  90              		.loc 1 209 3 view .LVU12
  91 001c DC62     		str	r4, [r3, #44]
 211:../Drivers/STM32L4xx_HAL_Driver/Src/stm32l4xx_hal.c ****   __HAL_RCC_AHB3_RELEASE_RESET();
ARM GAS  C:\Users\hoodc\AppData\Local\Temp\cc0s45Xa.s 			page 7


  92              		.loc 1 211 3 view .LVU13
  93 001e 1A63     		str	r2, [r3, #48]
 212:../Drivers/STM32L4xx_HAL_Driver/Src/stm32l4xx_hal.c **** 
  94              		.loc 1 212 3 view .LVU14
  95 0020 1C63     		str	r4, [r3, #48]
 215:../Drivers/STM32L4xx_HAL_Driver/Src/stm32l4xx_hal.c **** 
  96              		.loc 1 215 3 view .LVU15
  97 0022 FFF7FEFF 		bl	HAL_MspDeInit
  98              	.LVL0:
 218:../Drivers/STM32L4xx_HAL_Driver/Src/stm32l4xx_hal.c **** }
  99              		.loc 1 218 3 view .LVU16
 219:../Drivers/STM32L4xx_HAL_Driver/Src/stm32l4xx_hal.c **** 
 100              		.loc 1 219 1 is_stmt 0 view .LVU17
 101 0026 2046     		mov	r0, r4
 102 0028 10BD     		pop	{r4, pc}
 103              	.L5:
 104 002a 00BF     		.align	2
 105              	.L4:
 106 002c 00100240 		.word	1073876992
 107              		.cfi_endproc
 108              	.LFE134:
 109              		.size	HAL_DeInit, .-HAL_DeInit
 110              		.align	1
 111              		.weak	HAL_InitTick
 112              		.syntax unified
 113              		.thumb
 114              		.thumb_func
 115              		.fpu softvfp
 116              		.type	HAL_InitTick, %function
 117              	HAL_InitTick:
 118              	.LVL1:
 119              	.LFB137:
 242:../Drivers/STM32L4xx_HAL_Driver/Src/stm32l4xx_hal.c **** 
 243:../Drivers/STM32L4xx_HAL_Driver/Src/stm32l4xx_hal.c **** /**
 244:../Drivers/STM32L4xx_HAL_Driver/Src/stm32l4xx_hal.c ****   * @brief This function configures the source of the time base:
 245:../Drivers/STM32L4xx_HAL_Driver/Src/stm32l4xx_hal.c ****   *        The time source is configured to have 1ms time base with a dedicated
 246:../Drivers/STM32L4xx_HAL_Driver/Src/stm32l4xx_hal.c ****   *        Tick interrupt priority.
 247:../Drivers/STM32L4xx_HAL_Driver/Src/stm32l4xx_hal.c ****   * @note This function is called  automatically at the beginning of program after
 248:../Drivers/STM32L4xx_HAL_Driver/Src/stm32l4xx_hal.c ****   *       reset by HAL_Init() or at any time when clock is reconfigured  by HAL_RCC_ClockConfig().
 249:../Drivers/STM32L4xx_HAL_Driver/Src/stm32l4xx_hal.c ****   * @note In the default implementation, SysTick timer is the source of time base.
 250:../Drivers/STM32L4xx_HAL_Driver/Src/stm32l4xx_hal.c ****   *       It is used to generate interrupts at regular time intervals.
 251:../Drivers/STM32L4xx_HAL_Driver/Src/stm32l4xx_hal.c ****   *       Care must be taken if HAL_Delay() is called from a peripheral ISR process,
 252:../Drivers/STM32L4xx_HAL_Driver/Src/stm32l4xx_hal.c ****   *       The SysTick interrupt must have higher priority (numerically lower)
 253:../Drivers/STM32L4xx_HAL_Driver/Src/stm32l4xx_hal.c ****   *       than the peripheral interrupt. Otherwise the caller ISR process will be blocked.
 254:../Drivers/STM32L4xx_HAL_Driver/Src/stm32l4xx_hal.c ****   *       The function is declared as __weak  to be overwritten  in case of other
 255:../Drivers/STM32L4xx_HAL_Driver/Src/stm32l4xx_hal.c ****   *       implementation  in user file.
 256:../Drivers/STM32L4xx_HAL_Driver/Src/stm32l4xx_hal.c ****   * @param TickPriority  Tick interrupt priority.
 257:../Drivers/STM32L4xx_HAL_Driver/Src/stm32l4xx_hal.c ****   * @retval HAL status
 258:../Drivers/STM32L4xx_HAL_Driver/Src/stm32l4xx_hal.c ****   */
 259:../Drivers/STM32L4xx_HAL_Driver/Src/stm32l4xx_hal.c **** __weak HAL_StatusTypeDef HAL_InitTick(uint32_t TickPriority)
 260:../Drivers/STM32L4xx_HAL_Driver/Src/stm32l4xx_hal.c **** {
 120              		.loc 1 260 1 is_stmt 1 view -0
 121              		.cfi_startproc
 122              		@ args = 0, pretend = 0, frame = 0
 123              		@ frame_needed = 0, uses_anonymous_args = 0
 124              		.loc 1 260 1 is_stmt 0 view .LVU19
 125 0030 10B5     		push	{r4, lr}
ARM GAS  C:\Users\hoodc\AppData\Local\Temp\cc0s45Xa.s 			page 8


 126              	.LCFI1:
 127              		.cfi_def_cfa_offset 8
 128              		.cfi_offset 4, -8
 129              		.cfi_offset 14, -4
 130 0032 0446     		mov	r4, r0
 261:../Drivers/STM32L4xx_HAL_Driver/Src/stm32l4xx_hal.c ****   HAL_StatusTypeDef  status = HAL_OK;
 131              		.loc 1 261 3 is_stmt 1 view .LVU20
 132              	.LVL2:
 262:../Drivers/STM32L4xx_HAL_Driver/Src/stm32l4xx_hal.c **** 
 263:../Drivers/STM32L4xx_HAL_Driver/Src/stm32l4xx_hal.c ****   if (uwTickFreq != 0U)
 133              		.loc 1 263 3 view .LVU21
 134              		.loc 1 263 18 is_stmt 0 view .LVU22
 135 0034 0F4B     		ldr	r3, .L13
 136 0036 1B68     		ldr	r3, [r3]
 137              		.loc 1 263 6 view .LVU23
 138 0038 0BB9     		cbnz	r3, .L11
 264:../Drivers/STM32L4xx_HAL_Driver/Src/stm32l4xx_hal.c ****   {
 265:../Drivers/STM32L4xx_HAL_Driver/Src/stm32l4xx_hal.c ****     /*Configure the SysTick to have interrupt in 1ms time basis*/
 266:../Drivers/STM32L4xx_HAL_Driver/Src/stm32l4xx_hal.c ****     if (HAL_SYSTICK_Config(SystemCoreClock / (1000U / uwTickFreq)) == 0U)
 267:../Drivers/STM32L4xx_HAL_Driver/Src/stm32l4xx_hal.c ****     {
 268:../Drivers/STM32L4xx_HAL_Driver/Src/stm32l4xx_hal.c ****       /* Configure the SysTick IRQ priority */
 269:../Drivers/STM32L4xx_HAL_Driver/Src/stm32l4xx_hal.c ****       if (TickPriority < (1UL << __NVIC_PRIO_BITS))
 270:../Drivers/STM32L4xx_HAL_Driver/Src/stm32l4xx_hal.c ****       {
 271:../Drivers/STM32L4xx_HAL_Driver/Src/stm32l4xx_hal.c ****         HAL_NVIC_SetPriority(SysTick_IRQn, TickPriority, 0U);
 272:../Drivers/STM32L4xx_HAL_Driver/Src/stm32l4xx_hal.c ****         uwTickPrio = TickPriority;
 273:../Drivers/STM32L4xx_HAL_Driver/Src/stm32l4xx_hal.c ****       }
 274:../Drivers/STM32L4xx_HAL_Driver/Src/stm32l4xx_hal.c ****       else
 275:../Drivers/STM32L4xx_HAL_Driver/Src/stm32l4xx_hal.c ****       {
 276:../Drivers/STM32L4xx_HAL_Driver/Src/stm32l4xx_hal.c ****         status = HAL_ERROR;
 277:../Drivers/STM32L4xx_HAL_Driver/Src/stm32l4xx_hal.c ****       }
 278:../Drivers/STM32L4xx_HAL_Driver/Src/stm32l4xx_hal.c ****     }
 279:../Drivers/STM32L4xx_HAL_Driver/Src/stm32l4xx_hal.c ****     else
 280:../Drivers/STM32L4xx_HAL_Driver/Src/stm32l4xx_hal.c ****     {
 281:../Drivers/STM32L4xx_HAL_Driver/Src/stm32l4xx_hal.c ****       status = HAL_ERROR;
 282:../Drivers/STM32L4xx_HAL_Driver/Src/stm32l4xx_hal.c ****     }
 283:../Drivers/STM32L4xx_HAL_Driver/Src/stm32l4xx_hal.c ****   }
 284:../Drivers/STM32L4xx_HAL_Driver/Src/stm32l4xx_hal.c ****   else
 285:../Drivers/STM32L4xx_HAL_Driver/Src/stm32l4xx_hal.c ****   {
 286:../Drivers/STM32L4xx_HAL_Driver/Src/stm32l4xx_hal.c ****     status = HAL_ERROR;
 139              		.loc 1 286 12 view .LVU24
 140 003a 0120     		movs	r0, #1
 141              	.LVL3:
 142              	.L7:
 287:../Drivers/STM32L4xx_HAL_Driver/Src/stm32l4xx_hal.c ****   }
 288:../Drivers/STM32L4xx_HAL_Driver/Src/stm32l4xx_hal.c **** 
 289:../Drivers/STM32L4xx_HAL_Driver/Src/stm32l4xx_hal.c ****   /* Return function status */
 290:../Drivers/STM32L4xx_HAL_Driver/Src/stm32l4xx_hal.c ****   return status;
 143              		.loc 1 290 3 is_stmt 1 view .LVU25
 291:../Drivers/STM32L4xx_HAL_Driver/Src/stm32l4xx_hal.c **** }
 144              		.loc 1 291 1 is_stmt 0 view .LVU26
 145 003c 10BD     		pop	{r4, pc}
 146              	.LVL4:
 147              	.L11:
 266:../Drivers/STM32L4xx_HAL_Driver/Src/stm32l4xx_hal.c ****     {
 148              		.loc 1 266 5 is_stmt 1 view .LVU27
 266:../Drivers/STM32L4xx_HAL_Driver/Src/stm32l4xx_hal.c ****     {
 149              		.loc 1 266 53 is_stmt 0 view .LVU28
ARM GAS  C:\Users\hoodc\AppData\Local\Temp\cc0s45Xa.s 			page 9


 150 003e 4FF47A70 		mov	r0, #1000
 151              	.LVL5:
 266:../Drivers/STM32L4xx_HAL_Driver/Src/stm32l4xx_hal.c ****     {
 152              		.loc 1 266 53 view .LVU29
 153 0042 B0FBF3F3 		udiv	r3, r0, r3
 266:../Drivers/STM32L4xx_HAL_Driver/Src/stm32l4xx_hal.c ****     {
 154              		.loc 1 266 9 view .LVU30
 155 0046 0C4A     		ldr	r2, .L13+4
 156 0048 1068     		ldr	r0, [r2]
 157 004a B0FBF3F0 		udiv	r0, r0, r3
 158 004e FFF7FEFF 		bl	HAL_SYSTICK_Config
 159              	.LVL6:
 266:../Drivers/STM32L4xx_HAL_Driver/Src/stm32l4xx_hal.c ****     {
 160              		.loc 1 266 8 view .LVU31
 161 0052 68B9     		cbnz	r0, .L9
 269:../Drivers/STM32L4xx_HAL_Driver/Src/stm32l4xx_hal.c ****       {
 162              		.loc 1 269 7 is_stmt 1 view .LVU32
 269:../Drivers/STM32L4xx_HAL_Driver/Src/stm32l4xx_hal.c ****       {
 163              		.loc 1 269 10 is_stmt 0 view .LVU33
 164 0054 0F2C     		cmp	r4, #15
 165 0056 01D9     		bls	.L12
 276:../Drivers/STM32L4xx_HAL_Driver/Src/stm32l4xx_hal.c ****       }
 166              		.loc 1 276 16 view .LVU34
 167 0058 0120     		movs	r0, #1
 168 005a EFE7     		b	.L7
 169              	.L12:
 271:../Drivers/STM32L4xx_HAL_Driver/Src/stm32l4xx_hal.c ****         uwTickPrio = TickPriority;
 170              		.loc 1 271 9 is_stmt 1 view .LVU35
 171 005c 0022     		movs	r2, #0
 172 005e 2146     		mov	r1, r4
 173 0060 4FF0FF30 		mov	r0, #-1
 174 0064 FFF7FEFF 		bl	HAL_NVIC_SetPriority
 175              	.LVL7:
 272:../Drivers/STM32L4xx_HAL_Driver/Src/stm32l4xx_hal.c ****       }
 176              		.loc 1 272 9 view .LVU36
 272:../Drivers/STM32L4xx_HAL_Driver/Src/stm32l4xx_hal.c ****       }
 177              		.loc 1 272 20 is_stmt 0 view .LVU37
 178 0068 024B     		ldr	r3, .L13
 179 006a 5C60     		str	r4, [r3, #4]
 261:../Drivers/STM32L4xx_HAL_Driver/Src/stm32l4xx_hal.c **** 
 180              		.loc 1 261 22 view .LVU38
 181 006c 0020     		movs	r0, #0
 182 006e E5E7     		b	.L7
 183              	.L9:
 281:../Drivers/STM32L4xx_HAL_Driver/Src/stm32l4xx_hal.c ****     }
 184              		.loc 1 281 14 view .LVU39
 185 0070 0120     		movs	r0, #1
 186 0072 E3E7     		b	.L7
 187              	.L14:
 188              		.align	2
 189              	.L13:
 190 0074 00000000 		.word	.LANCHOR0
 191 0078 00000000 		.word	SystemCoreClock
 192              		.cfi_endproc
 193              	.LFE137:
 194              		.size	HAL_InitTick, .-HAL_InitTick
 195              		.align	1
ARM GAS  C:\Users\hoodc\AppData\Local\Temp\cc0s45Xa.s 			page 10


 196              		.global	HAL_Init
 197              		.syntax unified
 198              		.thumb
 199              		.thumb_func
 200              		.fpu softvfp
 201              		.type	HAL_Init, %function
 202              	HAL_Init:
 203              	.LFB133:
 153:../Drivers/STM32L4xx_HAL_Driver/Src/stm32l4xx_hal.c ****   HAL_StatusTypeDef  status = HAL_OK;
 204              		.loc 1 153 1 is_stmt 1 view -0
 205              		.cfi_startproc
 206              		@ args = 0, pretend = 0, frame = 0
 207              		@ frame_needed = 0, uses_anonymous_args = 0
 208 007c 10B5     		push	{r4, lr}
 209              	.LCFI2:
 210              		.cfi_def_cfa_offset 8
 211              		.cfi_offset 4, -8
 212              		.cfi_offset 14, -4
 154:../Drivers/STM32L4xx_HAL_Driver/Src/stm32l4xx_hal.c **** 
 213              		.loc 1 154 3 view .LVU41
 214              	.LVL8:
 174:../Drivers/STM32L4xx_HAL_Driver/Src/stm32l4xx_hal.c **** 
 215              		.loc 1 174 3 view .LVU42
 216 007e 0320     		movs	r0, #3
 217 0080 FFF7FEFF 		bl	HAL_NVIC_SetPriorityGrouping
 218              	.LVL9:
 177:../Drivers/STM32L4xx_HAL_Driver/Src/stm32l4xx_hal.c ****   {
 219              		.loc 1 177 3 view .LVU43
 177:../Drivers/STM32L4xx_HAL_Driver/Src/stm32l4xx_hal.c ****   {
 220              		.loc 1 177 7 is_stmt 0 view .LVU44
 221 0084 0020     		movs	r0, #0
 222 0086 FFF7FEFF 		bl	HAL_InitTick
 223              	.LVL10:
 177:../Drivers/STM32L4xx_HAL_Driver/Src/stm32l4xx_hal.c ****   {
 224              		.loc 1 177 6 view .LVU45
 225 008a 0446     		mov	r4, r0
 226 008c 10B1     		cbz	r0, .L18
 179:../Drivers/STM32L4xx_HAL_Driver/Src/stm32l4xx_hal.c ****   }
 227              		.loc 1 179 12 view .LVU46
 228 008e 0124     		movs	r4, #1
 229              	.L16:
 230              	.LVL11:
 188:../Drivers/STM32L4xx_HAL_Driver/Src/stm32l4xx_hal.c **** }
 231              		.loc 1 188 3 is_stmt 1 view .LVU47
 189:../Drivers/STM32L4xx_HAL_Driver/Src/stm32l4xx_hal.c **** 
 232              		.loc 1 189 1 is_stmt 0 view .LVU48
 233 0090 2046     		mov	r0, r4
 234 0092 10BD     		pop	{r4, pc}
 235              	.LVL12:
 236              	.L18:
 184:../Drivers/STM32L4xx_HAL_Driver/Src/stm32l4xx_hal.c ****   }
 237              		.loc 1 184 5 is_stmt 1 view .LVU49
 238 0094 FFF7FEFF 		bl	HAL_MspInit
 239              	.LVL13:
 240 0098 FAE7     		b	.L16
 241              		.cfi_endproc
 242              	.LFE133:
ARM GAS  C:\Users\hoodc\AppData\Local\Temp\cc0s45Xa.s 			page 11


 243              		.size	HAL_Init, .-HAL_Init
 244              		.align	1
 245              		.weak	HAL_IncTick
 246              		.syntax unified
 247              		.thumb
 248              		.thumb_func
 249              		.fpu softvfp
 250              		.type	HAL_IncTick, %function
 251              	HAL_IncTick:
 252              	.LFB138:
 292:../Drivers/STM32L4xx_HAL_Driver/Src/stm32l4xx_hal.c **** 
 293:../Drivers/STM32L4xx_HAL_Driver/Src/stm32l4xx_hal.c **** /**
 294:../Drivers/STM32L4xx_HAL_Driver/Src/stm32l4xx_hal.c ****   * @}
 295:../Drivers/STM32L4xx_HAL_Driver/Src/stm32l4xx_hal.c ****   */
 296:../Drivers/STM32L4xx_HAL_Driver/Src/stm32l4xx_hal.c **** 
 297:../Drivers/STM32L4xx_HAL_Driver/Src/stm32l4xx_hal.c **** /** @defgroup HAL_Exported_Functions_Group2 HAL Control functions
 298:../Drivers/STM32L4xx_HAL_Driver/Src/stm32l4xx_hal.c ****  *  @brief    HAL Control functions
 299:../Drivers/STM32L4xx_HAL_Driver/Src/stm32l4xx_hal.c ****  *
 300:../Drivers/STM32L4xx_HAL_Driver/Src/stm32l4xx_hal.c **** @verbatim
 301:../Drivers/STM32L4xx_HAL_Driver/Src/stm32l4xx_hal.c ****  ===============================================================================
 302:../Drivers/STM32L4xx_HAL_Driver/Src/stm32l4xx_hal.c ****                       ##### HAL Control functions #####
 303:../Drivers/STM32L4xx_HAL_Driver/Src/stm32l4xx_hal.c ****  ===============================================================================
 304:../Drivers/STM32L4xx_HAL_Driver/Src/stm32l4xx_hal.c ****     [..]  This section provides functions allowing to:
 305:../Drivers/STM32L4xx_HAL_Driver/Src/stm32l4xx_hal.c ****       (+) Provide a tick value in millisecond
 306:../Drivers/STM32L4xx_HAL_Driver/Src/stm32l4xx_hal.c ****       (+) Provide a blocking delay in millisecond
 307:../Drivers/STM32L4xx_HAL_Driver/Src/stm32l4xx_hal.c ****       (+) Suspend the time base source interrupt
 308:../Drivers/STM32L4xx_HAL_Driver/Src/stm32l4xx_hal.c ****       (+) Resume the time base source interrupt
 309:../Drivers/STM32L4xx_HAL_Driver/Src/stm32l4xx_hal.c ****       (+) Get the HAL API driver version
 310:../Drivers/STM32L4xx_HAL_Driver/Src/stm32l4xx_hal.c ****       (+) Get the device identifier
 311:../Drivers/STM32L4xx_HAL_Driver/Src/stm32l4xx_hal.c ****       (+) Get the device revision identifier
 312:../Drivers/STM32L4xx_HAL_Driver/Src/stm32l4xx_hal.c **** 
 313:../Drivers/STM32L4xx_HAL_Driver/Src/stm32l4xx_hal.c **** @endverbatim
 314:../Drivers/STM32L4xx_HAL_Driver/Src/stm32l4xx_hal.c ****   * @{
 315:../Drivers/STM32L4xx_HAL_Driver/Src/stm32l4xx_hal.c ****   */
 316:../Drivers/STM32L4xx_HAL_Driver/Src/stm32l4xx_hal.c **** 
 317:../Drivers/STM32L4xx_HAL_Driver/Src/stm32l4xx_hal.c **** /**
 318:../Drivers/STM32L4xx_HAL_Driver/Src/stm32l4xx_hal.c ****   * @brief This function is called to increment a global variable "uwTick"
 319:../Drivers/STM32L4xx_HAL_Driver/Src/stm32l4xx_hal.c ****   *        used as application time base.
 320:../Drivers/STM32L4xx_HAL_Driver/Src/stm32l4xx_hal.c ****   * @note In the default implementation, this variable is incremented each 1ms
 321:../Drivers/STM32L4xx_HAL_Driver/Src/stm32l4xx_hal.c ****   *       in SysTick ISR.
 322:../Drivers/STM32L4xx_HAL_Driver/Src/stm32l4xx_hal.c ****  * @note This function is declared as __weak to be overwritten in case of other
 323:../Drivers/STM32L4xx_HAL_Driver/Src/stm32l4xx_hal.c ****   *      implementations in user file.
 324:../Drivers/STM32L4xx_HAL_Driver/Src/stm32l4xx_hal.c ****   * @retval None
 325:../Drivers/STM32L4xx_HAL_Driver/Src/stm32l4xx_hal.c ****   */
 326:../Drivers/STM32L4xx_HAL_Driver/Src/stm32l4xx_hal.c **** __weak void HAL_IncTick(void)
 327:../Drivers/STM32L4xx_HAL_Driver/Src/stm32l4xx_hal.c **** {
 253              		.loc 1 327 1 view -0
 254              		.cfi_startproc
 255              		@ args = 0, pretend = 0, frame = 0
 256              		@ frame_needed = 0, uses_anonymous_args = 0
 257              		@ link register save eliminated.
 328:../Drivers/STM32L4xx_HAL_Driver/Src/stm32l4xx_hal.c ****   uwTick += uwTickFreq;
 258              		.loc 1 328 3 view .LVU51
 259              		.loc 1 328 10 is_stmt 0 view .LVU52
 260 009a 034A     		ldr	r2, .L20
 261 009c 1368     		ldr	r3, [r2]
 262 009e 0349     		ldr	r1, .L20+4
ARM GAS  C:\Users\hoodc\AppData\Local\Temp\cc0s45Xa.s 			page 12


 263 00a0 0968     		ldr	r1, [r1]
 264 00a2 0B44     		add	r3, r3, r1
 265 00a4 1360     		str	r3, [r2]
 329:../Drivers/STM32L4xx_HAL_Driver/Src/stm32l4xx_hal.c **** }
 266              		.loc 1 329 1 view .LVU53
 267 00a6 7047     		bx	lr
 268              	.L21:
 269              		.align	2
 270              	.L20:
 271 00a8 00000000 		.word	.LANCHOR1
 272 00ac 00000000 		.word	.LANCHOR0
 273              		.cfi_endproc
 274              	.LFE138:
 275              		.size	HAL_IncTick, .-HAL_IncTick
 276              		.align	1
 277              		.weak	HAL_GetTick
 278              		.syntax unified
 279              		.thumb
 280              		.thumb_func
 281              		.fpu softvfp
 282              		.type	HAL_GetTick, %function
 283              	HAL_GetTick:
 284              	.LFB139:
 330:../Drivers/STM32L4xx_HAL_Driver/Src/stm32l4xx_hal.c **** 
 331:../Drivers/STM32L4xx_HAL_Driver/Src/stm32l4xx_hal.c **** /**
 332:../Drivers/STM32L4xx_HAL_Driver/Src/stm32l4xx_hal.c ****   * @brief Provide a tick value in millisecond.
 333:../Drivers/STM32L4xx_HAL_Driver/Src/stm32l4xx_hal.c ****   * @note This function is declared as __weak to be overwritten in case of other
 334:../Drivers/STM32L4xx_HAL_Driver/Src/stm32l4xx_hal.c ****   *       implementations in user file.
 335:../Drivers/STM32L4xx_HAL_Driver/Src/stm32l4xx_hal.c ****   * @retval tick value
 336:../Drivers/STM32L4xx_HAL_Driver/Src/stm32l4xx_hal.c ****   */
 337:../Drivers/STM32L4xx_HAL_Driver/Src/stm32l4xx_hal.c **** __weak uint32_t HAL_GetTick(void)
 338:../Drivers/STM32L4xx_HAL_Driver/Src/stm32l4xx_hal.c **** {
 285              		.loc 1 338 1 is_stmt 1 view -0
 286              		.cfi_startproc
 287              		@ args = 0, pretend = 0, frame = 0
 288              		@ frame_needed = 0, uses_anonymous_args = 0
 289              		@ link register save eliminated.
 339:../Drivers/STM32L4xx_HAL_Driver/Src/stm32l4xx_hal.c ****   return uwTick;
 290              		.loc 1 339 3 view .LVU55
 291              		.loc 1 339 10 is_stmt 0 view .LVU56
 292 00b0 014B     		ldr	r3, .L23
 293 00b2 1868     		ldr	r0, [r3]
 340:../Drivers/STM32L4xx_HAL_Driver/Src/stm32l4xx_hal.c **** }
 294              		.loc 1 340 1 view .LVU57
 295 00b4 7047     		bx	lr
 296              	.L24:
 297 00b6 00BF     		.align	2
 298              	.L23:
 299 00b8 00000000 		.word	.LANCHOR1
 300              		.cfi_endproc
 301              	.LFE139:
 302              		.size	HAL_GetTick, .-HAL_GetTick
 303              		.align	1
 304              		.global	HAL_GetTickPrio
 305              		.syntax unified
 306              		.thumb
 307              		.thumb_func
ARM GAS  C:\Users\hoodc\AppData\Local\Temp\cc0s45Xa.s 			page 13


 308              		.fpu softvfp
 309              		.type	HAL_GetTickPrio, %function
 310              	HAL_GetTickPrio:
 311              	.LFB140:
 341:../Drivers/STM32L4xx_HAL_Driver/Src/stm32l4xx_hal.c **** 
 342:../Drivers/STM32L4xx_HAL_Driver/Src/stm32l4xx_hal.c **** /**
 343:../Drivers/STM32L4xx_HAL_Driver/Src/stm32l4xx_hal.c ****   * @brief This function returns a tick priority.
 344:../Drivers/STM32L4xx_HAL_Driver/Src/stm32l4xx_hal.c ****   * @retval tick priority
 345:../Drivers/STM32L4xx_HAL_Driver/Src/stm32l4xx_hal.c ****   */
 346:../Drivers/STM32L4xx_HAL_Driver/Src/stm32l4xx_hal.c **** uint32_t HAL_GetTickPrio(void)
 347:../Drivers/STM32L4xx_HAL_Driver/Src/stm32l4xx_hal.c **** {
 312              		.loc 1 347 1 is_stmt 1 view -0
 313              		.cfi_startproc
 314              		@ args = 0, pretend = 0, frame = 0
 315              		@ frame_needed = 0, uses_anonymous_args = 0
 316              		@ link register save eliminated.
 348:../Drivers/STM32L4xx_HAL_Driver/Src/stm32l4xx_hal.c ****   return uwTickPrio;
 317              		.loc 1 348 3 view .LVU59
 349:../Drivers/STM32L4xx_HAL_Driver/Src/stm32l4xx_hal.c **** }
 318              		.loc 1 349 1 is_stmt 0 view .LVU60
 319 00bc 014B     		ldr	r3, .L26
 320 00be 5868     		ldr	r0, [r3, #4]
 321 00c0 7047     		bx	lr
 322              	.L27:
 323 00c2 00BF     		.align	2
 324              	.L26:
 325 00c4 00000000 		.word	.LANCHOR0
 326              		.cfi_endproc
 327              	.LFE140:
 328              		.size	HAL_GetTickPrio, .-HAL_GetTickPrio
 329              		.align	1
 330              		.global	HAL_SetTickFreq
 331              		.syntax unified
 332              		.thumb
 333              		.thumb_func
 334              		.fpu softvfp
 335              		.type	HAL_SetTickFreq, %function
 336              	HAL_SetTickFreq:
 337              	.LVL14:
 338              	.LFB141:
 350:../Drivers/STM32L4xx_HAL_Driver/Src/stm32l4xx_hal.c **** 
 351:../Drivers/STM32L4xx_HAL_Driver/Src/stm32l4xx_hal.c **** /**
 352:../Drivers/STM32L4xx_HAL_Driver/Src/stm32l4xx_hal.c ****   * @brief Set new tick Freq.
 353:../Drivers/STM32L4xx_HAL_Driver/Src/stm32l4xx_hal.c ****   * @param Freq tick frequency
 354:../Drivers/STM32L4xx_HAL_Driver/Src/stm32l4xx_hal.c ****   * @retval HAL status
 355:../Drivers/STM32L4xx_HAL_Driver/Src/stm32l4xx_hal.c ****   */
 356:../Drivers/STM32L4xx_HAL_Driver/Src/stm32l4xx_hal.c **** HAL_StatusTypeDef HAL_SetTickFreq(uint32_t Freq)
 357:../Drivers/STM32L4xx_HAL_Driver/Src/stm32l4xx_hal.c **** {
 339              		.loc 1 357 1 is_stmt 1 view -0
 340              		.cfi_startproc
 341              		@ args = 0, pretend = 0, frame = 0
 342              		@ frame_needed = 0, uses_anonymous_args = 0
 343              		.loc 1 357 1 is_stmt 0 view .LVU62
 344 00c8 10B5     		push	{r4, lr}
 345              	.LCFI3:
 346              		.cfi_def_cfa_offset 8
 347              		.cfi_offset 4, -8
ARM GAS  C:\Users\hoodc\AppData\Local\Temp\cc0s45Xa.s 			page 14


 348              		.cfi_offset 14, -4
 349 00ca 0446     		mov	r4, r0
 358:../Drivers/STM32L4xx_HAL_Driver/Src/stm32l4xx_hal.c ****   HAL_StatusTypeDef status  = HAL_OK;
 350              		.loc 1 358 3 is_stmt 1 view .LVU63
 351              	.LVL15:
 359:../Drivers/STM32L4xx_HAL_Driver/Src/stm32l4xx_hal.c ****   assert_param(IS_TICKFREQ(Freq));
 352              		.loc 1 359 3 view .LVU64
 360:../Drivers/STM32L4xx_HAL_Driver/Src/stm32l4xx_hal.c **** 
 361:../Drivers/STM32L4xx_HAL_Driver/Src/stm32l4xx_hal.c ****   if (uwTickFreq != Freq)
 353              		.loc 1 361 3 view .LVU65
 354              		.loc 1 361 18 is_stmt 0 view .LVU66
 355 00cc 074B     		ldr	r3, .L32
 356              		.loc 1 361 6 view .LVU67
 357 00ce 1B68     		ldr	r3, [r3]
 358 00d0 8342     		cmp	r3, r0
 359 00d2 01D1     		bne	.L31
 358:../Drivers/STM32L4xx_HAL_Driver/Src/stm32l4xx_hal.c ****   assert_param(IS_TICKFREQ(Freq));
 360              		.loc 1 358 21 view .LVU68
 361 00d4 0020     		movs	r0, #0
 362              	.LVL16:
 363              	.L29:
 362:../Drivers/STM32L4xx_HAL_Driver/Src/stm32l4xx_hal.c ****   {
 363:../Drivers/STM32L4xx_HAL_Driver/Src/stm32l4xx_hal.c ****     /* Apply the new tick Freq  */
 364:../Drivers/STM32L4xx_HAL_Driver/Src/stm32l4xx_hal.c ****     status = HAL_InitTick(uwTickPrio);
 365:../Drivers/STM32L4xx_HAL_Driver/Src/stm32l4xx_hal.c ****     if (status == HAL_OK)
 366:../Drivers/STM32L4xx_HAL_Driver/Src/stm32l4xx_hal.c ****     {
 367:../Drivers/STM32L4xx_HAL_Driver/Src/stm32l4xx_hal.c ****       uwTickFreq = Freq;
 368:../Drivers/STM32L4xx_HAL_Driver/Src/stm32l4xx_hal.c ****     }
 369:../Drivers/STM32L4xx_HAL_Driver/Src/stm32l4xx_hal.c ****   }
 370:../Drivers/STM32L4xx_HAL_Driver/Src/stm32l4xx_hal.c **** 
 371:../Drivers/STM32L4xx_HAL_Driver/Src/stm32l4xx_hal.c ****   return status;
 364              		.loc 1 371 3 is_stmt 1 view .LVU69
 372:../Drivers/STM32L4xx_HAL_Driver/Src/stm32l4xx_hal.c **** }
 365              		.loc 1 372 1 is_stmt 0 view .LVU70
 366 00d6 10BD     		pop	{r4, pc}
 367              	.LVL17:
 368              	.L31:
 364:../Drivers/STM32L4xx_HAL_Driver/Src/stm32l4xx_hal.c ****     if (status == HAL_OK)
 369              		.loc 1 364 5 is_stmt 1 view .LVU71
 364:../Drivers/STM32L4xx_HAL_Driver/Src/stm32l4xx_hal.c ****     if (status == HAL_OK)
 370              		.loc 1 364 14 is_stmt 0 view .LVU72
 371 00d8 044B     		ldr	r3, .L32
 372 00da 5868     		ldr	r0, [r3, #4]
 373              	.LVL18:
 364:../Drivers/STM32L4xx_HAL_Driver/Src/stm32l4xx_hal.c ****     if (status == HAL_OK)
 374              		.loc 1 364 14 view .LVU73
 375 00dc FFF7FEFF 		bl	HAL_InitTick
 376              	.LVL19:
 365:../Drivers/STM32L4xx_HAL_Driver/Src/stm32l4xx_hal.c ****     {
 377              		.loc 1 365 5 is_stmt 1 view .LVU74
 365:../Drivers/STM32L4xx_HAL_Driver/Src/stm32l4xx_hal.c ****     {
 378              		.loc 1 365 8 is_stmt 0 view .LVU75
 379 00e0 0028     		cmp	r0, #0
 380 00e2 F8D1     		bne	.L29
 367:../Drivers/STM32L4xx_HAL_Driver/Src/stm32l4xx_hal.c ****     }
 381              		.loc 1 367 7 is_stmt 1 view .LVU76
 367:../Drivers/STM32L4xx_HAL_Driver/Src/stm32l4xx_hal.c ****     }
ARM GAS  C:\Users\hoodc\AppData\Local\Temp\cc0s45Xa.s 			page 15


 382              		.loc 1 367 18 is_stmt 0 view .LVU77
 383 00e4 014B     		ldr	r3, .L32
 384 00e6 1C60     		str	r4, [r3]
 385 00e8 F5E7     		b	.L29
 386              	.L33:
 387 00ea 00BF     		.align	2
 388              	.L32:
 389 00ec 00000000 		.word	.LANCHOR0
 390              		.cfi_endproc
 391              	.LFE141:
 392              		.size	HAL_SetTickFreq, .-HAL_SetTickFreq
 393              		.align	1
 394              		.global	HAL_GetTickFreq
 395              		.syntax unified
 396              		.thumb
 397              		.thumb_func
 398              		.fpu softvfp
 399              		.type	HAL_GetTickFreq, %function
 400              	HAL_GetTickFreq:
 401              	.LFB142:
 373:../Drivers/STM32L4xx_HAL_Driver/Src/stm32l4xx_hal.c **** 
 374:../Drivers/STM32L4xx_HAL_Driver/Src/stm32l4xx_hal.c **** /**
 375:../Drivers/STM32L4xx_HAL_Driver/Src/stm32l4xx_hal.c ****   * @brief Return tick frequency.
 376:../Drivers/STM32L4xx_HAL_Driver/Src/stm32l4xx_hal.c ****   * @retval tick period in Hz
 377:../Drivers/STM32L4xx_HAL_Driver/Src/stm32l4xx_hal.c ****   */
 378:../Drivers/STM32L4xx_HAL_Driver/Src/stm32l4xx_hal.c **** uint32_t HAL_GetTickFreq(void)
 379:../Drivers/STM32L4xx_HAL_Driver/Src/stm32l4xx_hal.c **** {
 402              		.loc 1 379 1 is_stmt 1 view -0
 403              		.cfi_startproc
 404              		@ args = 0, pretend = 0, frame = 0
 405              		@ frame_needed = 0, uses_anonymous_args = 0
 406              		@ link register save eliminated.
 380:../Drivers/STM32L4xx_HAL_Driver/Src/stm32l4xx_hal.c ****   return uwTickFreq;
 407              		.loc 1 380 3 view .LVU79
 381:../Drivers/STM32L4xx_HAL_Driver/Src/stm32l4xx_hal.c **** }
 408              		.loc 1 381 1 is_stmt 0 view .LVU80
 409 00f0 014B     		ldr	r3, .L35
 410 00f2 1868     		ldr	r0, [r3]
 411 00f4 7047     		bx	lr
 412              	.L36:
 413 00f6 00BF     		.align	2
 414              	.L35:
 415 00f8 00000000 		.word	.LANCHOR0
 416              		.cfi_endproc
 417              	.LFE142:
 418              		.size	HAL_GetTickFreq, .-HAL_GetTickFreq
 419              		.align	1
 420              		.weak	HAL_Delay
 421              		.syntax unified
 422              		.thumb
 423              		.thumb_func
 424              		.fpu softvfp
 425              		.type	HAL_Delay, %function
 426              	HAL_Delay:
 427              	.LVL20:
 428              	.LFB143:
 382:../Drivers/STM32L4xx_HAL_Driver/Src/stm32l4xx_hal.c **** 
ARM GAS  C:\Users\hoodc\AppData\Local\Temp\cc0s45Xa.s 			page 16


 383:../Drivers/STM32L4xx_HAL_Driver/Src/stm32l4xx_hal.c **** /**
 384:../Drivers/STM32L4xx_HAL_Driver/Src/stm32l4xx_hal.c ****   * @brief This function provides minimum delay (in milliseconds) based
 385:../Drivers/STM32L4xx_HAL_Driver/Src/stm32l4xx_hal.c ****   *        on variable incremented.
 386:../Drivers/STM32L4xx_HAL_Driver/Src/stm32l4xx_hal.c ****   * @note In the default implementation , SysTick timer is the source of time base.
 387:../Drivers/STM32L4xx_HAL_Driver/Src/stm32l4xx_hal.c ****   *       It is used to generate interrupts at regular time intervals where uwTick
 388:../Drivers/STM32L4xx_HAL_Driver/Src/stm32l4xx_hal.c ****   *       is incremented.
 389:../Drivers/STM32L4xx_HAL_Driver/Src/stm32l4xx_hal.c ****   * @note This function is declared as __weak to be overwritten in case of other
 390:../Drivers/STM32L4xx_HAL_Driver/Src/stm32l4xx_hal.c ****   *       implementations in user file.
 391:../Drivers/STM32L4xx_HAL_Driver/Src/stm32l4xx_hal.c ****   * @param Delay  specifies the delay time length, in milliseconds.
 392:../Drivers/STM32L4xx_HAL_Driver/Src/stm32l4xx_hal.c ****   * @retval None
 393:../Drivers/STM32L4xx_HAL_Driver/Src/stm32l4xx_hal.c ****   */
 394:../Drivers/STM32L4xx_HAL_Driver/Src/stm32l4xx_hal.c **** __weak void HAL_Delay(uint32_t Delay)
 395:../Drivers/STM32L4xx_HAL_Driver/Src/stm32l4xx_hal.c **** {
 429              		.loc 1 395 1 is_stmt 1 view -0
 430              		.cfi_startproc
 431              		@ args = 0, pretend = 0, frame = 0
 432              		@ frame_needed = 0, uses_anonymous_args = 0
 433              		.loc 1 395 1 is_stmt 0 view .LVU82
 434 00fc 38B5     		push	{r3, r4, r5, lr}
 435              	.LCFI4:
 436              		.cfi_def_cfa_offset 16
 437              		.cfi_offset 3, -16
 438              		.cfi_offset 4, -12
 439              		.cfi_offset 5, -8
 440              		.cfi_offset 14, -4
 441 00fe 0446     		mov	r4, r0
 396:../Drivers/STM32L4xx_HAL_Driver/Src/stm32l4xx_hal.c ****   uint32_t tickstart = HAL_GetTick();
 442              		.loc 1 396 3 is_stmt 1 view .LVU83
 443              		.loc 1 396 24 is_stmt 0 view .LVU84
 444 0100 FFF7FEFF 		bl	HAL_GetTick
 445              	.LVL21:
 446              		.loc 1 396 24 view .LVU85
 447 0104 0546     		mov	r5, r0
 448              	.LVL22:
 397:../Drivers/STM32L4xx_HAL_Driver/Src/stm32l4xx_hal.c ****   uint32_t wait = Delay;
 449              		.loc 1 397 3 is_stmt 1 view .LVU86
 398:../Drivers/STM32L4xx_HAL_Driver/Src/stm32l4xx_hal.c **** 
 399:../Drivers/STM32L4xx_HAL_Driver/Src/stm32l4xx_hal.c ****   /* Add a period to guaranty minimum wait */
 400:../Drivers/STM32L4xx_HAL_Driver/Src/stm32l4xx_hal.c ****   if (wait < HAL_MAX_DELAY)
 450              		.loc 1 400 3 view .LVU87
 451              		.loc 1 400 6 is_stmt 0 view .LVU88
 452 0106 B4F1FF3F 		cmp	r4, #-1
 453 010a 02D0     		beq	.L39
 401:../Drivers/STM32L4xx_HAL_Driver/Src/stm32l4xx_hal.c ****   {
 402:../Drivers/STM32L4xx_HAL_Driver/Src/stm32l4xx_hal.c ****     wait += (uint32_t)(uwTickFreq);
 454              		.loc 1 402 5 is_stmt 1 view .LVU89
 455              		.loc 1 402 13 is_stmt 0 view .LVU90
 456 010c 044B     		ldr	r3, .L41
 457              		.loc 1 402 10 view .LVU91
 458 010e 1B68     		ldr	r3, [r3]
 459 0110 1C44     		add	r4, r4, r3
 460              	.LVL23:
 461              	.L39:
 403:../Drivers/STM32L4xx_HAL_Driver/Src/stm32l4xx_hal.c ****   }
 404:../Drivers/STM32L4xx_HAL_Driver/Src/stm32l4xx_hal.c **** 
 405:../Drivers/STM32L4xx_HAL_Driver/Src/stm32l4xx_hal.c ****   while((HAL_GetTick() - tickstart) < wait)
 406:../Drivers/STM32L4xx_HAL_Driver/Src/stm32l4xx_hal.c ****   {
ARM GAS  C:\Users\hoodc\AppData\Local\Temp\cc0s45Xa.s 			page 17


 407:../Drivers/STM32L4xx_HAL_Driver/Src/stm32l4xx_hal.c ****   }
 462              		.loc 1 407 3 is_stmt 1 discriminator 1 view .LVU92
 405:../Drivers/STM32L4xx_HAL_Driver/Src/stm32l4xx_hal.c ****   {
 463              		.loc 1 405 8 discriminator 1 view .LVU93
 405:../Drivers/STM32L4xx_HAL_Driver/Src/stm32l4xx_hal.c ****   {
 464              		.loc 1 405 10 is_stmt 0 discriminator 1 view .LVU94
 465 0112 FFF7FEFF 		bl	HAL_GetTick
 466              	.LVL24:
 405:../Drivers/STM32L4xx_HAL_Driver/Src/stm32l4xx_hal.c ****   {
 467              		.loc 1 405 24 discriminator 1 view .LVU95
 468 0116 401B     		subs	r0, r0, r5
 405:../Drivers/STM32L4xx_HAL_Driver/Src/stm32l4xx_hal.c ****   {
 469              		.loc 1 405 8 discriminator 1 view .LVU96
 470 0118 A042     		cmp	r0, r4
 471 011a FAD3     		bcc	.L39
 408:../Drivers/STM32L4xx_HAL_Driver/Src/stm32l4xx_hal.c **** }
 472              		.loc 1 408 1 view .LVU97
 473 011c 38BD     		pop	{r3, r4, r5, pc}
 474              	.LVL25:
 475              	.L42:
 476              		.loc 1 408 1 view .LVU98
 477 011e 00BF     		.align	2
 478              	.L41:
 479 0120 00000000 		.word	.LANCHOR0
 480              		.cfi_endproc
 481              	.LFE143:
 482              		.size	HAL_Delay, .-HAL_Delay
 483              		.align	1
 484              		.weak	HAL_SuspendTick
 485              		.syntax unified
 486              		.thumb
 487              		.thumb_func
 488              		.fpu softvfp
 489              		.type	HAL_SuspendTick, %function
 490              	HAL_SuspendTick:
 491              	.LFB144:
 409:../Drivers/STM32L4xx_HAL_Driver/Src/stm32l4xx_hal.c **** 
 410:../Drivers/STM32L4xx_HAL_Driver/Src/stm32l4xx_hal.c **** /**
 411:../Drivers/STM32L4xx_HAL_Driver/Src/stm32l4xx_hal.c ****   * @brief Suspend Tick increment.
 412:../Drivers/STM32L4xx_HAL_Driver/Src/stm32l4xx_hal.c ****   * @note In the default implementation , SysTick timer is the source of time base. It is
 413:../Drivers/STM32L4xx_HAL_Driver/Src/stm32l4xx_hal.c ****   *       used to generate interrupts at regular time intervals. Once HAL_SuspendTick()
 414:../Drivers/STM32L4xx_HAL_Driver/Src/stm32l4xx_hal.c ****   *       is called, the SysTick interrupt will be disabled and so Tick increment
 415:../Drivers/STM32L4xx_HAL_Driver/Src/stm32l4xx_hal.c ****   *       is suspended.
 416:../Drivers/STM32L4xx_HAL_Driver/Src/stm32l4xx_hal.c ****   * @note This function is declared as __weak to be overwritten in case of other
 417:../Drivers/STM32L4xx_HAL_Driver/Src/stm32l4xx_hal.c ****   *       implementations in user file.
 418:../Drivers/STM32L4xx_HAL_Driver/Src/stm32l4xx_hal.c ****   * @retval None
 419:../Drivers/STM32L4xx_HAL_Driver/Src/stm32l4xx_hal.c ****   */
 420:../Drivers/STM32L4xx_HAL_Driver/Src/stm32l4xx_hal.c **** __weak void HAL_SuspendTick(void)
 421:../Drivers/STM32L4xx_HAL_Driver/Src/stm32l4xx_hal.c **** {
 492              		.loc 1 421 1 is_stmt 1 view -0
 493              		.cfi_startproc
 494              		@ args = 0, pretend = 0, frame = 0
 495              		@ frame_needed = 0, uses_anonymous_args = 0
 496              		@ link register save eliminated.
 422:../Drivers/STM32L4xx_HAL_Driver/Src/stm32l4xx_hal.c ****   /* Disable SysTick Interrupt */
 423:../Drivers/STM32L4xx_HAL_Driver/Src/stm32l4xx_hal.c ****   SysTick->CTRL &= ~SysTick_CTRL_TICKINT_Msk;
 497              		.loc 1 423 3 view .LVU100
ARM GAS  C:\Users\hoodc\AppData\Local\Temp\cc0s45Xa.s 			page 18


 498              		.loc 1 423 17 is_stmt 0 view .LVU101
 499 0124 4FF0E022 		mov	r2, #-536813568
 500 0128 1369     		ldr	r3, [r2, #16]
 501 012a 23F00203 		bic	r3, r3, #2
 502 012e 1361     		str	r3, [r2, #16]
 424:../Drivers/STM32L4xx_HAL_Driver/Src/stm32l4xx_hal.c **** }
 503              		.loc 1 424 1 view .LVU102
 504 0130 7047     		bx	lr
 505              		.cfi_endproc
 506              	.LFE144:
 507              		.size	HAL_SuspendTick, .-HAL_SuspendTick
 508              		.align	1
 509              		.weak	HAL_ResumeTick
 510              		.syntax unified
 511              		.thumb
 512              		.thumb_func
 513              		.fpu softvfp
 514              		.type	HAL_ResumeTick, %function
 515              	HAL_ResumeTick:
 516              	.LFB145:
 425:../Drivers/STM32L4xx_HAL_Driver/Src/stm32l4xx_hal.c **** 
 426:../Drivers/STM32L4xx_HAL_Driver/Src/stm32l4xx_hal.c **** /**
 427:../Drivers/STM32L4xx_HAL_Driver/Src/stm32l4xx_hal.c ****   * @brief Resume Tick increment.
 428:../Drivers/STM32L4xx_HAL_Driver/Src/stm32l4xx_hal.c ****   * @note In the default implementation , SysTick timer is the source of time base. It is
 429:../Drivers/STM32L4xx_HAL_Driver/Src/stm32l4xx_hal.c ****   *       used to generate interrupts at regular time intervals. Once HAL_ResumeTick()
 430:../Drivers/STM32L4xx_HAL_Driver/Src/stm32l4xx_hal.c ****   *       is called, the SysTick interrupt will be enabled and so Tick increment
 431:../Drivers/STM32L4xx_HAL_Driver/Src/stm32l4xx_hal.c ****   *       is resumed.
 432:../Drivers/STM32L4xx_HAL_Driver/Src/stm32l4xx_hal.c ****   * @note This function is declared as __weak to be overwritten in case of other
 433:../Drivers/STM32L4xx_HAL_Driver/Src/stm32l4xx_hal.c ****   *       implementations in user file.
 434:../Drivers/STM32L4xx_HAL_Driver/Src/stm32l4xx_hal.c ****   * @retval None
 435:../Drivers/STM32L4xx_HAL_Driver/Src/stm32l4xx_hal.c ****   */
 436:../Drivers/STM32L4xx_HAL_Driver/Src/stm32l4xx_hal.c **** __weak void HAL_ResumeTick(void)
 437:../Drivers/STM32L4xx_HAL_Driver/Src/stm32l4xx_hal.c **** {
 517              		.loc 1 437 1 is_stmt 1 view -0
 518              		.cfi_startproc
 519              		@ args = 0, pretend = 0, frame = 0
 520              		@ frame_needed = 0, uses_anonymous_args = 0
 521              		@ link register save eliminated.
 438:../Drivers/STM32L4xx_HAL_Driver/Src/stm32l4xx_hal.c ****   /* Enable SysTick Interrupt */
 439:../Drivers/STM32L4xx_HAL_Driver/Src/stm32l4xx_hal.c ****   SysTick->CTRL  |= SysTick_CTRL_TICKINT_Msk;
 522              		.loc 1 439 3 view .LVU104
 523              		.loc 1 439 18 is_stmt 0 view .LVU105
 524 0132 4FF0E022 		mov	r2, #-536813568
 525 0136 1369     		ldr	r3, [r2, #16]
 526 0138 43F00203 		orr	r3, r3, #2
 527 013c 1361     		str	r3, [r2, #16]
 440:../Drivers/STM32L4xx_HAL_Driver/Src/stm32l4xx_hal.c **** }
 528              		.loc 1 440 1 view .LVU106
 529 013e 7047     		bx	lr
 530              		.cfi_endproc
 531              	.LFE145:
 532              		.size	HAL_ResumeTick, .-HAL_ResumeTick
 533              		.align	1
 534              		.global	HAL_GetHalVersion
 535              		.syntax unified
 536              		.thumb
 537              		.thumb_func
ARM GAS  C:\Users\hoodc\AppData\Local\Temp\cc0s45Xa.s 			page 19


 538              		.fpu softvfp
 539              		.type	HAL_GetHalVersion, %function
 540              	HAL_GetHalVersion:
 541              	.LFB146:
 441:../Drivers/STM32L4xx_HAL_Driver/Src/stm32l4xx_hal.c **** 
 442:../Drivers/STM32L4xx_HAL_Driver/Src/stm32l4xx_hal.c **** /**
 443:../Drivers/STM32L4xx_HAL_Driver/Src/stm32l4xx_hal.c ****   * @brief  Return the HAL revision.
 444:../Drivers/STM32L4xx_HAL_Driver/Src/stm32l4xx_hal.c ****   * @retval version : 0xXYZR (8bits for each decimal, R for RC)
 445:../Drivers/STM32L4xx_HAL_Driver/Src/stm32l4xx_hal.c ****   */
 446:../Drivers/STM32L4xx_HAL_Driver/Src/stm32l4xx_hal.c **** uint32_t HAL_GetHalVersion(void)
 447:../Drivers/STM32L4xx_HAL_Driver/Src/stm32l4xx_hal.c **** {
 542              		.loc 1 447 1 is_stmt 1 view -0
 543              		.cfi_startproc
 544              		@ args = 0, pretend = 0, frame = 0
 545              		@ frame_needed = 0, uses_anonymous_args = 0
 546              		@ link register save eliminated.
 448:../Drivers/STM32L4xx_HAL_Driver/Src/stm32l4xx_hal.c ****   return STM32L4XX_HAL_VERSION;
 547              		.loc 1 448 3 view .LVU108
 449:../Drivers/STM32L4xx_HAL_Driver/Src/stm32l4xx_hal.c **** }
 548              		.loc 1 449 1 is_stmt 0 view .LVU109
 549 0140 0048     		ldr	r0, .L46
 550 0142 7047     		bx	lr
 551              	.L47:
 552              		.align	2
 553              	.L46:
 554 0144 00010B01 		.word	17498368
 555              		.cfi_endproc
 556              	.LFE146:
 557              		.size	HAL_GetHalVersion, .-HAL_GetHalVersion
 558              		.align	1
 559              		.global	HAL_GetREVID
 560              		.syntax unified
 561              		.thumb
 562              		.thumb_func
 563              		.fpu softvfp
 564              		.type	HAL_GetREVID, %function
 565              	HAL_GetREVID:
 566              	.LFB147:
 450:../Drivers/STM32L4xx_HAL_Driver/Src/stm32l4xx_hal.c **** 
 451:../Drivers/STM32L4xx_HAL_Driver/Src/stm32l4xx_hal.c **** /**
 452:../Drivers/STM32L4xx_HAL_Driver/Src/stm32l4xx_hal.c ****   * @brief  Return the device revision identifier.
 453:../Drivers/STM32L4xx_HAL_Driver/Src/stm32l4xx_hal.c ****   * @retval Device revision identifier
 454:../Drivers/STM32L4xx_HAL_Driver/Src/stm32l4xx_hal.c ****   */
 455:../Drivers/STM32L4xx_HAL_Driver/Src/stm32l4xx_hal.c **** uint32_t HAL_GetREVID(void)
 456:../Drivers/STM32L4xx_HAL_Driver/Src/stm32l4xx_hal.c **** {
 567              		.loc 1 456 1 is_stmt 1 view -0
 568              		.cfi_startproc
 569              		@ args = 0, pretend = 0, frame = 0
 570              		@ frame_needed = 0, uses_anonymous_args = 0
 571              		@ link register save eliminated.
 457:../Drivers/STM32L4xx_HAL_Driver/Src/stm32l4xx_hal.c ****   return((DBGMCU->IDCODE & DBGMCU_IDCODE_REV_ID) >> 16);
 572              		.loc 1 457 3 view .LVU111
 573              		.loc 1 457 17 is_stmt 0 view .LVU112
 574 0148 014B     		ldr	r3, .L49
 575 014a 1868     		ldr	r0, [r3]
 458:../Drivers/STM32L4xx_HAL_Driver/Src/stm32l4xx_hal.c **** }
 576              		.loc 1 458 1 view .LVU113
ARM GAS  C:\Users\hoodc\AppData\Local\Temp\cc0s45Xa.s 			page 20


 577 014c 000C     		lsrs	r0, r0, #16
 578 014e 7047     		bx	lr
 579              	.L50:
 580              		.align	2
 581              	.L49:
 582 0150 002004E0 		.word	-536600576
 583              		.cfi_endproc
 584              	.LFE147:
 585              		.size	HAL_GetREVID, .-HAL_GetREVID
 586              		.align	1
 587              		.global	HAL_GetDEVID
 588              		.syntax unified
 589              		.thumb
 590              		.thumb_func
 591              		.fpu softvfp
 592              		.type	HAL_GetDEVID, %function
 593              	HAL_GetDEVID:
 594              	.LFB148:
 459:../Drivers/STM32L4xx_HAL_Driver/Src/stm32l4xx_hal.c **** 
 460:../Drivers/STM32L4xx_HAL_Driver/Src/stm32l4xx_hal.c **** /**
 461:../Drivers/STM32L4xx_HAL_Driver/Src/stm32l4xx_hal.c ****   * @brief  Return the device identifier.
 462:../Drivers/STM32L4xx_HAL_Driver/Src/stm32l4xx_hal.c ****   * @retval Device identifier
 463:../Drivers/STM32L4xx_HAL_Driver/Src/stm32l4xx_hal.c ****   */
 464:../Drivers/STM32L4xx_HAL_Driver/Src/stm32l4xx_hal.c **** uint32_t HAL_GetDEVID(void)
 465:../Drivers/STM32L4xx_HAL_Driver/Src/stm32l4xx_hal.c **** {
 595              		.loc 1 465 1 is_stmt 1 view -0
 596              		.cfi_startproc
 597              		@ args = 0, pretend = 0, frame = 0
 598              		@ frame_needed = 0, uses_anonymous_args = 0
 599              		@ link register save eliminated.
 466:../Drivers/STM32L4xx_HAL_Driver/Src/stm32l4xx_hal.c ****   return(DBGMCU->IDCODE & DBGMCU_IDCODE_DEV_ID);
 600              		.loc 1 466 3 view .LVU115
 601              		.loc 1 466 16 is_stmt 0 view .LVU116
 602 0154 024B     		ldr	r3, .L52
 603 0156 1868     		ldr	r0, [r3]
 467:../Drivers/STM32L4xx_HAL_Driver/Src/stm32l4xx_hal.c **** }
 604              		.loc 1 467 1 view .LVU117
 605 0158 C0F30B00 		ubfx	r0, r0, #0, #12
 606 015c 7047     		bx	lr
 607              	.L53:
 608 015e 00BF     		.align	2
 609              	.L52:
 610 0160 002004E0 		.word	-536600576
 611              		.cfi_endproc
 612              	.LFE148:
 613              		.size	HAL_GetDEVID, .-HAL_GetDEVID
 614              		.align	1
 615              		.global	HAL_GetUIDw0
 616              		.syntax unified
 617              		.thumb
 618              		.thumb_func
 619              		.fpu softvfp
 620              		.type	HAL_GetUIDw0, %function
 621              	HAL_GetUIDw0:
 622              	.LFB149:
 468:../Drivers/STM32L4xx_HAL_Driver/Src/stm32l4xx_hal.c **** 
 469:../Drivers/STM32L4xx_HAL_Driver/Src/stm32l4xx_hal.c **** /**
ARM GAS  C:\Users\hoodc\AppData\Local\Temp\cc0s45Xa.s 			page 21


 470:../Drivers/STM32L4xx_HAL_Driver/Src/stm32l4xx_hal.c ****   * @brief  Return the first word of the unique device identifier (UID based on 96 bits)
 471:../Drivers/STM32L4xx_HAL_Driver/Src/stm32l4xx_hal.c ****   * @retval Device identifier
 472:../Drivers/STM32L4xx_HAL_Driver/Src/stm32l4xx_hal.c ****   */
 473:../Drivers/STM32L4xx_HAL_Driver/Src/stm32l4xx_hal.c **** uint32_t HAL_GetUIDw0(void)
 474:../Drivers/STM32L4xx_HAL_Driver/Src/stm32l4xx_hal.c **** {
 623              		.loc 1 474 1 is_stmt 1 view -0
 624              		.cfi_startproc
 625              		@ args = 0, pretend = 0, frame = 0
 626              		@ frame_needed = 0, uses_anonymous_args = 0
 627              		@ link register save eliminated.
 475:../Drivers/STM32L4xx_HAL_Driver/Src/stm32l4xx_hal.c ****   return(READ_REG(*((uint32_t *)UID_BASE)));
 628              		.loc 1 475 3 view .LVU119
 476:../Drivers/STM32L4xx_HAL_Driver/Src/stm32l4xx_hal.c **** }
 629              		.loc 1 476 1 is_stmt 0 view .LVU120
 630 0164 014B     		ldr	r3, .L55
 631 0166 D3F89005 		ldr	r0, [r3, #1424]
 632 016a 7047     		bx	lr
 633              	.L56:
 634              		.align	2
 635              	.L55:
 636 016c 0070FF1F 		.word	536834048
 637              		.cfi_endproc
 638              	.LFE149:
 639              		.size	HAL_GetUIDw0, .-HAL_GetUIDw0
 640              		.align	1
 641              		.global	HAL_GetUIDw1
 642              		.syntax unified
 643              		.thumb
 644              		.thumb_func
 645              		.fpu softvfp
 646              		.type	HAL_GetUIDw1, %function
 647              	HAL_GetUIDw1:
 648              	.LFB150:
 477:../Drivers/STM32L4xx_HAL_Driver/Src/stm32l4xx_hal.c **** 
 478:../Drivers/STM32L4xx_HAL_Driver/Src/stm32l4xx_hal.c **** /**
 479:../Drivers/STM32L4xx_HAL_Driver/Src/stm32l4xx_hal.c ****   * @brief  Return the second word of the unique device identifier (UID based on 96 bits)
 480:../Drivers/STM32L4xx_HAL_Driver/Src/stm32l4xx_hal.c ****   * @retval Device identifier
 481:../Drivers/STM32L4xx_HAL_Driver/Src/stm32l4xx_hal.c ****   */
 482:../Drivers/STM32L4xx_HAL_Driver/Src/stm32l4xx_hal.c **** uint32_t HAL_GetUIDw1(void)
 483:../Drivers/STM32L4xx_HAL_Driver/Src/stm32l4xx_hal.c **** {
 649              		.loc 1 483 1 is_stmt 1 view -0
 650              		.cfi_startproc
 651              		@ args = 0, pretend = 0, frame = 0
 652              		@ frame_needed = 0, uses_anonymous_args = 0
 653              		@ link register save eliminated.
 484:../Drivers/STM32L4xx_HAL_Driver/Src/stm32l4xx_hal.c ****   return(READ_REG(*((uint32_t *)(UID_BASE + 4U))));
 654              		.loc 1 484 3 view .LVU122
 485:../Drivers/STM32L4xx_HAL_Driver/Src/stm32l4xx_hal.c **** }
 655              		.loc 1 485 1 is_stmt 0 view .LVU123
 656 0170 014B     		ldr	r3, .L58
 657 0172 D3F89405 		ldr	r0, [r3, #1428]
 658 0176 7047     		bx	lr
 659              	.L59:
 660              		.align	2
 661              	.L58:
 662 0178 0070FF1F 		.word	536834048
 663              		.cfi_endproc
ARM GAS  C:\Users\hoodc\AppData\Local\Temp\cc0s45Xa.s 			page 22


 664              	.LFE150:
 665              		.size	HAL_GetUIDw1, .-HAL_GetUIDw1
 666              		.align	1
 667              		.global	HAL_GetUIDw2
 668              		.syntax unified
 669              		.thumb
 670              		.thumb_func
 671              		.fpu softvfp
 672              		.type	HAL_GetUIDw2, %function
 673              	HAL_GetUIDw2:
 674              	.LFB151:
 486:../Drivers/STM32L4xx_HAL_Driver/Src/stm32l4xx_hal.c **** 
 487:../Drivers/STM32L4xx_HAL_Driver/Src/stm32l4xx_hal.c **** /**
 488:../Drivers/STM32L4xx_HAL_Driver/Src/stm32l4xx_hal.c ****   * @brief  Return the third word of the unique device identifier (UID based on 96 bits)
 489:../Drivers/STM32L4xx_HAL_Driver/Src/stm32l4xx_hal.c ****   * @retval Device identifier
 490:../Drivers/STM32L4xx_HAL_Driver/Src/stm32l4xx_hal.c ****   */
 491:../Drivers/STM32L4xx_HAL_Driver/Src/stm32l4xx_hal.c **** uint32_t HAL_GetUIDw2(void)
 492:../Drivers/STM32L4xx_HAL_Driver/Src/stm32l4xx_hal.c **** {
 675              		.loc 1 492 1 is_stmt 1 view -0
 676              		.cfi_startproc
 677              		@ args = 0, pretend = 0, frame = 0
 678              		@ frame_needed = 0, uses_anonymous_args = 0
 679              		@ link register save eliminated.
 493:../Drivers/STM32L4xx_HAL_Driver/Src/stm32l4xx_hal.c ****   return(READ_REG(*((uint32_t *)(UID_BASE + 8U))));
 680              		.loc 1 493 3 view .LVU125
 494:../Drivers/STM32L4xx_HAL_Driver/Src/stm32l4xx_hal.c **** }
 681              		.loc 1 494 1 is_stmt 0 view .LVU126
 682 017c 014B     		ldr	r3, .L61
 683 017e D3F89805 		ldr	r0, [r3, #1432]
 684 0182 7047     		bx	lr
 685              	.L62:
 686              		.align	2
 687              	.L61:
 688 0184 0070FF1F 		.word	536834048
 689              		.cfi_endproc
 690              	.LFE151:
 691              		.size	HAL_GetUIDw2, .-HAL_GetUIDw2
 692              		.align	1
 693              		.global	HAL_DBGMCU_EnableDBGSleepMode
 694              		.syntax unified
 695              		.thumb
 696              		.thumb_func
 697              		.fpu softvfp
 698              		.type	HAL_DBGMCU_EnableDBGSleepMode, %function
 699              	HAL_DBGMCU_EnableDBGSleepMode:
 700              	.LFB152:
 495:../Drivers/STM32L4xx_HAL_Driver/Src/stm32l4xx_hal.c **** 
 496:../Drivers/STM32L4xx_HAL_Driver/Src/stm32l4xx_hal.c **** /**
 497:../Drivers/STM32L4xx_HAL_Driver/Src/stm32l4xx_hal.c ****   * @}
 498:../Drivers/STM32L4xx_HAL_Driver/Src/stm32l4xx_hal.c ****   */
 499:../Drivers/STM32L4xx_HAL_Driver/Src/stm32l4xx_hal.c **** 
 500:../Drivers/STM32L4xx_HAL_Driver/Src/stm32l4xx_hal.c **** /** @defgroup HAL_Exported_Functions_Group3 HAL Debug functions
 501:../Drivers/STM32L4xx_HAL_Driver/Src/stm32l4xx_hal.c ****  *  @brief    HAL Debug functions
 502:../Drivers/STM32L4xx_HAL_Driver/Src/stm32l4xx_hal.c ****  *
 503:../Drivers/STM32L4xx_HAL_Driver/Src/stm32l4xx_hal.c **** @verbatim
 504:../Drivers/STM32L4xx_HAL_Driver/Src/stm32l4xx_hal.c ****  ===============================================================================
 505:../Drivers/STM32L4xx_HAL_Driver/Src/stm32l4xx_hal.c ****                       ##### HAL Debug functions #####
ARM GAS  C:\Users\hoodc\AppData\Local\Temp\cc0s45Xa.s 			page 23


 506:../Drivers/STM32L4xx_HAL_Driver/Src/stm32l4xx_hal.c ****  ===============================================================================
 507:../Drivers/STM32L4xx_HAL_Driver/Src/stm32l4xx_hal.c ****     [..]  This section provides functions allowing to:
 508:../Drivers/STM32L4xx_HAL_Driver/Src/stm32l4xx_hal.c ****       (+) Enable/Disable Debug module during SLEEP mode
 509:../Drivers/STM32L4xx_HAL_Driver/Src/stm32l4xx_hal.c ****       (+) Enable/Disable Debug module during STOP0/STOP1/STOP2 modes
 510:../Drivers/STM32L4xx_HAL_Driver/Src/stm32l4xx_hal.c ****       (+) Enable/Disable Debug module during STANDBY mode
 511:../Drivers/STM32L4xx_HAL_Driver/Src/stm32l4xx_hal.c **** 
 512:../Drivers/STM32L4xx_HAL_Driver/Src/stm32l4xx_hal.c **** @endverbatim
 513:../Drivers/STM32L4xx_HAL_Driver/Src/stm32l4xx_hal.c ****   * @{
 514:../Drivers/STM32L4xx_HAL_Driver/Src/stm32l4xx_hal.c ****   */
 515:../Drivers/STM32L4xx_HAL_Driver/Src/stm32l4xx_hal.c **** 
 516:../Drivers/STM32L4xx_HAL_Driver/Src/stm32l4xx_hal.c **** /**
 517:../Drivers/STM32L4xx_HAL_Driver/Src/stm32l4xx_hal.c ****   * @brief  Enable the Debug Module during SLEEP mode.
 518:../Drivers/STM32L4xx_HAL_Driver/Src/stm32l4xx_hal.c ****   * @retval None
 519:../Drivers/STM32L4xx_HAL_Driver/Src/stm32l4xx_hal.c ****   */
 520:../Drivers/STM32L4xx_HAL_Driver/Src/stm32l4xx_hal.c **** void HAL_DBGMCU_EnableDBGSleepMode(void)
 521:../Drivers/STM32L4xx_HAL_Driver/Src/stm32l4xx_hal.c **** {
 701              		.loc 1 521 1 is_stmt 1 view -0
 702              		.cfi_startproc
 703              		@ args = 0, pretend = 0, frame = 0
 704              		@ frame_needed = 0, uses_anonymous_args = 0
 705              		@ link register save eliminated.
 522:../Drivers/STM32L4xx_HAL_Driver/Src/stm32l4xx_hal.c ****   SET_BIT(DBGMCU->CR, DBGMCU_CR_DBG_SLEEP);
 706              		.loc 1 522 3 view .LVU128
 707 0188 024A     		ldr	r2, .L64
 708 018a 5368     		ldr	r3, [r2, #4]
 709 018c 43F00103 		orr	r3, r3, #1
 710 0190 5360     		str	r3, [r2, #4]
 523:../Drivers/STM32L4xx_HAL_Driver/Src/stm32l4xx_hal.c **** }
 711              		.loc 1 523 1 is_stmt 0 view .LVU129
 712 0192 7047     		bx	lr
 713              	.L65:
 714              		.align	2
 715              	.L64:
 716 0194 002004E0 		.word	-536600576
 717              		.cfi_endproc
 718              	.LFE152:
 719              		.size	HAL_DBGMCU_EnableDBGSleepMode, .-HAL_DBGMCU_EnableDBGSleepMode
 720              		.align	1
 721              		.global	HAL_DBGMCU_DisableDBGSleepMode
 722              		.syntax unified
 723              		.thumb
 724              		.thumb_func
 725              		.fpu softvfp
 726              		.type	HAL_DBGMCU_DisableDBGSleepMode, %function
 727              	HAL_DBGMCU_DisableDBGSleepMode:
 728              	.LFB153:
 524:../Drivers/STM32L4xx_HAL_Driver/Src/stm32l4xx_hal.c **** 
 525:../Drivers/STM32L4xx_HAL_Driver/Src/stm32l4xx_hal.c **** /**
 526:../Drivers/STM32L4xx_HAL_Driver/Src/stm32l4xx_hal.c ****   * @brief  Disable the Debug Module during SLEEP mode.
 527:../Drivers/STM32L4xx_HAL_Driver/Src/stm32l4xx_hal.c ****   * @retval None
 528:../Drivers/STM32L4xx_HAL_Driver/Src/stm32l4xx_hal.c ****   */
 529:../Drivers/STM32L4xx_HAL_Driver/Src/stm32l4xx_hal.c **** void HAL_DBGMCU_DisableDBGSleepMode(void)
 530:../Drivers/STM32L4xx_HAL_Driver/Src/stm32l4xx_hal.c **** {
 729              		.loc 1 530 1 is_stmt 1 view -0
 730              		.cfi_startproc
 731              		@ args = 0, pretend = 0, frame = 0
 732              		@ frame_needed = 0, uses_anonymous_args = 0
ARM GAS  C:\Users\hoodc\AppData\Local\Temp\cc0s45Xa.s 			page 24


 733              		@ link register save eliminated.
 531:../Drivers/STM32L4xx_HAL_Driver/Src/stm32l4xx_hal.c ****   CLEAR_BIT(DBGMCU->CR, DBGMCU_CR_DBG_SLEEP);
 734              		.loc 1 531 3 view .LVU131
 735 0198 024A     		ldr	r2, .L67
 736 019a 5368     		ldr	r3, [r2, #4]
 737 019c 23F00103 		bic	r3, r3, #1
 738 01a0 5360     		str	r3, [r2, #4]
 532:../Drivers/STM32L4xx_HAL_Driver/Src/stm32l4xx_hal.c **** }
 739              		.loc 1 532 1 is_stmt 0 view .LVU132
 740 01a2 7047     		bx	lr
 741              	.L68:
 742              		.align	2
 743              	.L67:
 744 01a4 002004E0 		.word	-536600576
 745              		.cfi_endproc
 746              	.LFE153:
 747              		.size	HAL_DBGMCU_DisableDBGSleepMode, .-HAL_DBGMCU_DisableDBGSleepMode
 748              		.align	1
 749              		.global	HAL_DBGMCU_EnableDBGStopMode
 750              		.syntax unified
 751              		.thumb
 752              		.thumb_func
 753              		.fpu softvfp
 754              		.type	HAL_DBGMCU_EnableDBGStopMode, %function
 755              	HAL_DBGMCU_EnableDBGStopMode:
 756              	.LFB154:
 533:../Drivers/STM32L4xx_HAL_Driver/Src/stm32l4xx_hal.c **** 
 534:../Drivers/STM32L4xx_HAL_Driver/Src/stm32l4xx_hal.c **** /**
 535:../Drivers/STM32L4xx_HAL_Driver/Src/stm32l4xx_hal.c ****   * @brief  Enable the Debug Module during STOP0/STOP1/STOP2 modes.
 536:../Drivers/STM32L4xx_HAL_Driver/Src/stm32l4xx_hal.c ****   * @retval None
 537:../Drivers/STM32L4xx_HAL_Driver/Src/stm32l4xx_hal.c ****   */
 538:../Drivers/STM32L4xx_HAL_Driver/Src/stm32l4xx_hal.c **** void HAL_DBGMCU_EnableDBGStopMode(void)
 539:../Drivers/STM32L4xx_HAL_Driver/Src/stm32l4xx_hal.c **** {
 757              		.loc 1 539 1 is_stmt 1 view -0
 758              		.cfi_startproc
 759              		@ args = 0, pretend = 0, frame = 0
 760              		@ frame_needed = 0, uses_anonymous_args = 0
 761              		@ link register save eliminated.
 540:../Drivers/STM32L4xx_HAL_Driver/Src/stm32l4xx_hal.c ****   SET_BIT(DBGMCU->CR, DBGMCU_CR_DBG_STOP);
 762              		.loc 1 540 3 view .LVU134
 763 01a8 024A     		ldr	r2, .L70
 764 01aa 5368     		ldr	r3, [r2, #4]
 765 01ac 43F00203 		orr	r3, r3, #2
 766 01b0 5360     		str	r3, [r2, #4]
 541:../Drivers/STM32L4xx_HAL_Driver/Src/stm32l4xx_hal.c **** }
 767              		.loc 1 541 1 is_stmt 0 view .LVU135
 768 01b2 7047     		bx	lr
 769              	.L71:
 770              		.align	2
 771              	.L70:
 772 01b4 002004E0 		.word	-536600576
 773              		.cfi_endproc
 774              	.LFE154:
 775              		.size	HAL_DBGMCU_EnableDBGStopMode, .-HAL_DBGMCU_EnableDBGStopMode
 776              		.align	1
 777              		.global	HAL_DBGMCU_DisableDBGStopMode
 778              		.syntax unified
ARM GAS  C:\Users\hoodc\AppData\Local\Temp\cc0s45Xa.s 			page 25


 779              		.thumb
 780              		.thumb_func
 781              		.fpu softvfp
 782              		.type	HAL_DBGMCU_DisableDBGStopMode, %function
 783              	HAL_DBGMCU_DisableDBGStopMode:
 784              	.LFB155:
 542:../Drivers/STM32L4xx_HAL_Driver/Src/stm32l4xx_hal.c **** 
 543:../Drivers/STM32L4xx_HAL_Driver/Src/stm32l4xx_hal.c **** /**
 544:../Drivers/STM32L4xx_HAL_Driver/Src/stm32l4xx_hal.c ****   * @brief  Disable the Debug Module during STOP0/STOP1/STOP2 modes.
 545:../Drivers/STM32L4xx_HAL_Driver/Src/stm32l4xx_hal.c ****   * @retval None
 546:../Drivers/STM32L4xx_HAL_Driver/Src/stm32l4xx_hal.c ****   */
 547:../Drivers/STM32L4xx_HAL_Driver/Src/stm32l4xx_hal.c **** void HAL_DBGMCU_DisableDBGStopMode(void)
 548:../Drivers/STM32L4xx_HAL_Driver/Src/stm32l4xx_hal.c **** {
 785              		.loc 1 548 1 is_stmt 1 view -0
 786              		.cfi_startproc
 787              		@ args = 0, pretend = 0, frame = 0
 788              		@ frame_needed = 0, uses_anonymous_args = 0
 789              		@ link register save eliminated.
 549:../Drivers/STM32L4xx_HAL_Driver/Src/stm32l4xx_hal.c ****   CLEAR_BIT(DBGMCU->CR, DBGMCU_CR_DBG_STOP);
 790              		.loc 1 549 3 view .LVU137
 791 01b8 024A     		ldr	r2, .L73
 792 01ba 5368     		ldr	r3, [r2, #4]
 793 01bc 23F00203 		bic	r3, r3, #2
 794 01c0 5360     		str	r3, [r2, #4]
 550:../Drivers/STM32L4xx_HAL_Driver/Src/stm32l4xx_hal.c **** }
 795              		.loc 1 550 1 is_stmt 0 view .LVU138
 796 01c2 7047     		bx	lr
 797              	.L74:
 798              		.align	2
 799              	.L73:
 800 01c4 002004E0 		.word	-536600576
 801              		.cfi_endproc
 802              	.LFE155:
 803              		.size	HAL_DBGMCU_DisableDBGStopMode, .-HAL_DBGMCU_DisableDBGStopMode
 804              		.align	1
 805              		.global	HAL_DBGMCU_EnableDBGStandbyMode
 806              		.syntax unified
 807              		.thumb
 808              		.thumb_func
 809              		.fpu softvfp
 810              		.type	HAL_DBGMCU_EnableDBGStandbyMode, %function
 811              	HAL_DBGMCU_EnableDBGStandbyMode:
 812              	.LFB156:
 551:../Drivers/STM32L4xx_HAL_Driver/Src/stm32l4xx_hal.c **** 
 552:../Drivers/STM32L4xx_HAL_Driver/Src/stm32l4xx_hal.c **** /**
 553:../Drivers/STM32L4xx_HAL_Driver/Src/stm32l4xx_hal.c ****   * @brief  Enable the Debug Module during STANDBY mode.
 554:../Drivers/STM32L4xx_HAL_Driver/Src/stm32l4xx_hal.c ****   * @retval None
 555:../Drivers/STM32L4xx_HAL_Driver/Src/stm32l4xx_hal.c ****   */
 556:../Drivers/STM32L4xx_HAL_Driver/Src/stm32l4xx_hal.c **** void HAL_DBGMCU_EnableDBGStandbyMode(void)
 557:../Drivers/STM32L4xx_HAL_Driver/Src/stm32l4xx_hal.c **** {
 813              		.loc 1 557 1 is_stmt 1 view -0
 814              		.cfi_startproc
 815              		@ args = 0, pretend = 0, frame = 0
 816              		@ frame_needed = 0, uses_anonymous_args = 0
 817              		@ link register save eliminated.
 558:../Drivers/STM32L4xx_HAL_Driver/Src/stm32l4xx_hal.c ****   SET_BIT(DBGMCU->CR, DBGMCU_CR_DBG_STANDBY);
 818              		.loc 1 558 3 view .LVU140
ARM GAS  C:\Users\hoodc\AppData\Local\Temp\cc0s45Xa.s 			page 26


 819 01c8 024A     		ldr	r2, .L76
 820 01ca 5368     		ldr	r3, [r2, #4]
 821 01cc 43F00403 		orr	r3, r3, #4
 822 01d0 5360     		str	r3, [r2, #4]
 559:../Drivers/STM32L4xx_HAL_Driver/Src/stm32l4xx_hal.c **** }
 823              		.loc 1 559 1 is_stmt 0 view .LVU141
 824 01d2 7047     		bx	lr
 825              	.L77:
 826              		.align	2
 827              	.L76:
 828 01d4 002004E0 		.word	-536600576
 829              		.cfi_endproc
 830              	.LFE156:
 831              		.size	HAL_DBGMCU_EnableDBGStandbyMode, .-HAL_DBGMCU_EnableDBGStandbyMode
 832              		.align	1
 833              		.global	HAL_DBGMCU_DisableDBGStandbyMode
 834              		.syntax unified
 835              		.thumb
 836              		.thumb_func
 837              		.fpu softvfp
 838              		.type	HAL_DBGMCU_DisableDBGStandbyMode, %function
 839              	HAL_DBGMCU_DisableDBGStandbyMode:
 840              	.LFB157:
 560:../Drivers/STM32L4xx_HAL_Driver/Src/stm32l4xx_hal.c **** 
 561:../Drivers/STM32L4xx_HAL_Driver/Src/stm32l4xx_hal.c **** /**
 562:../Drivers/STM32L4xx_HAL_Driver/Src/stm32l4xx_hal.c ****   * @brief  Disable the Debug Module during STANDBY mode.
 563:../Drivers/STM32L4xx_HAL_Driver/Src/stm32l4xx_hal.c ****   * @retval None
 564:../Drivers/STM32L4xx_HAL_Driver/Src/stm32l4xx_hal.c ****   */
 565:../Drivers/STM32L4xx_HAL_Driver/Src/stm32l4xx_hal.c **** void HAL_DBGMCU_DisableDBGStandbyMode(void)
 566:../Drivers/STM32L4xx_HAL_Driver/Src/stm32l4xx_hal.c **** {
 841              		.loc 1 566 1 is_stmt 1 view -0
 842              		.cfi_startproc
 843              		@ args = 0, pretend = 0, frame = 0
 844              		@ frame_needed = 0, uses_anonymous_args = 0
 845              		@ link register save eliminated.
 567:../Drivers/STM32L4xx_HAL_Driver/Src/stm32l4xx_hal.c ****   CLEAR_BIT(DBGMCU->CR, DBGMCU_CR_DBG_STANDBY);
 846              		.loc 1 567 3 view .LVU143
 847 01d8 024A     		ldr	r2, .L79
 848 01da 5368     		ldr	r3, [r2, #4]
 849 01dc 23F00403 		bic	r3, r3, #4
 850 01e0 5360     		str	r3, [r2, #4]
 568:../Drivers/STM32L4xx_HAL_Driver/Src/stm32l4xx_hal.c **** }
 851              		.loc 1 568 1 is_stmt 0 view .LVU144
 852 01e2 7047     		bx	lr
 853              	.L80:
 854              		.align	2
 855              	.L79:
 856 01e4 002004E0 		.word	-536600576
 857              		.cfi_endproc
 858              	.LFE157:
 859              		.size	HAL_DBGMCU_DisableDBGStandbyMode, .-HAL_DBGMCU_DisableDBGStandbyMode
 860              		.align	1
 861              		.global	HAL_SYSCFG_SRAM2Erase
 862              		.syntax unified
 863              		.thumb
 864              		.thumb_func
 865              		.fpu softvfp
ARM GAS  C:\Users\hoodc\AppData\Local\Temp\cc0s45Xa.s 			page 27


 866              		.type	HAL_SYSCFG_SRAM2Erase, %function
 867              	HAL_SYSCFG_SRAM2Erase:
 868              	.LFB158:
 569:../Drivers/STM32L4xx_HAL_Driver/Src/stm32l4xx_hal.c **** 
 570:../Drivers/STM32L4xx_HAL_Driver/Src/stm32l4xx_hal.c **** /**
 571:../Drivers/STM32L4xx_HAL_Driver/Src/stm32l4xx_hal.c ****   * @}
 572:../Drivers/STM32L4xx_HAL_Driver/Src/stm32l4xx_hal.c ****   */
 573:../Drivers/STM32L4xx_HAL_Driver/Src/stm32l4xx_hal.c **** 
 574:../Drivers/STM32L4xx_HAL_Driver/Src/stm32l4xx_hal.c **** /** @defgroup HAL_Exported_Functions_Group4 HAL SYSCFG configuration functions
 575:../Drivers/STM32L4xx_HAL_Driver/Src/stm32l4xx_hal.c ****  *  @brief    HAL SYSCFG configuration functions
 576:../Drivers/STM32L4xx_HAL_Driver/Src/stm32l4xx_hal.c ****  *
 577:../Drivers/STM32L4xx_HAL_Driver/Src/stm32l4xx_hal.c **** @verbatim
 578:../Drivers/STM32L4xx_HAL_Driver/Src/stm32l4xx_hal.c ****  ===============================================================================
 579:../Drivers/STM32L4xx_HAL_Driver/Src/stm32l4xx_hal.c ****                       ##### HAL SYSCFG configuration functions #####
 580:../Drivers/STM32L4xx_HAL_Driver/Src/stm32l4xx_hal.c ****  ===============================================================================
 581:../Drivers/STM32L4xx_HAL_Driver/Src/stm32l4xx_hal.c ****     [..]  This section provides functions allowing to:
 582:../Drivers/STM32L4xx_HAL_Driver/Src/stm32l4xx_hal.c ****       (+) Start a hardware SRAM2 erase operation
 583:../Drivers/STM32L4xx_HAL_Driver/Src/stm32l4xx_hal.c ****       (+) Enable/Disable the Internal FLASH Bank Swapping
 584:../Drivers/STM32L4xx_HAL_Driver/Src/stm32l4xx_hal.c ****       (+) Configure the Voltage reference buffer
 585:../Drivers/STM32L4xx_HAL_Driver/Src/stm32l4xx_hal.c ****       (+) Enable/Disable the Voltage reference buffer
 586:../Drivers/STM32L4xx_HAL_Driver/Src/stm32l4xx_hal.c ****       (+) Enable/Disable the I/O analog switch voltage booster
 587:../Drivers/STM32L4xx_HAL_Driver/Src/stm32l4xx_hal.c **** 
 588:../Drivers/STM32L4xx_HAL_Driver/Src/stm32l4xx_hal.c **** @endverbatim
 589:../Drivers/STM32L4xx_HAL_Driver/Src/stm32l4xx_hal.c ****   * @{
 590:../Drivers/STM32L4xx_HAL_Driver/Src/stm32l4xx_hal.c ****   */
 591:../Drivers/STM32L4xx_HAL_Driver/Src/stm32l4xx_hal.c **** 
 592:../Drivers/STM32L4xx_HAL_Driver/Src/stm32l4xx_hal.c **** /**
 593:../Drivers/STM32L4xx_HAL_Driver/Src/stm32l4xx_hal.c ****   * @brief  Start a hardware SRAM2 erase operation.
 594:../Drivers/STM32L4xx_HAL_Driver/Src/stm32l4xx_hal.c ****   * @note   As long as SRAM2 is not erased the SRAM2ER bit will be set.
 595:../Drivers/STM32L4xx_HAL_Driver/Src/stm32l4xx_hal.c ****   *         This bit is automatically reset at the end of the SRAM2 erase operation.
 596:../Drivers/STM32L4xx_HAL_Driver/Src/stm32l4xx_hal.c ****   * @retval None
 597:../Drivers/STM32L4xx_HAL_Driver/Src/stm32l4xx_hal.c ****   */
 598:../Drivers/STM32L4xx_HAL_Driver/Src/stm32l4xx_hal.c **** void HAL_SYSCFG_SRAM2Erase(void)
 599:../Drivers/STM32L4xx_HAL_Driver/Src/stm32l4xx_hal.c **** {
 869              		.loc 1 599 1 is_stmt 1 view -0
 870              		.cfi_startproc
 871              		@ args = 0, pretend = 0, frame = 0
 872              		@ frame_needed = 0, uses_anonymous_args = 0
 873              		@ link register save eliminated.
 600:../Drivers/STM32L4xx_HAL_Driver/Src/stm32l4xx_hal.c ****   /* unlock the write protection of the SRAM2ER bit */
 601:../Drivers/STM32L4xx_HAL_Driver/Src/stm32l4xx_hal.c ****   SYSCFG->SKR = 0xCA;
 874              		.loc 1 601 3 view .LVU146
 875              		.loc 1 601 15 is_stmt 0 view .LVU147
 876 01e8 044B     		ldr	r3, .L82
 877 01ea CA22     		movs	r2, #202
 878 01ec 5A62     		str	r2, [r3, #36]
 602:../Drivers/STM32L4xx_HAL_Driver/Src/stm32l4xx_hal.c ****   SYSCFG->SKR = 0x53;
 879              		.loc 1 602 3 is_stmt 1 view .LVU148
 880              		.loc 1 602 15 is_stmt 0 view .LVU149
 881 01ee 5322     		movs	r2, #83
 882 01f0 5A62     		str	r2, [r3, #36]
 603:../Drivers/STM32L4xx_HAL_Driver/Src/stm32l4xx_hal.c ****   /* Starts a hardware SRAM2 erase operation*/
 604:../Drivers/STM32L4xx_HAL_Driver/Src/stm32l4xx_hal.c ****   *(__IO uint32_t *) SCSR_SRAM2ER_BB = 0x00000001UL;
 883              		.loc 1 604 3 is_stmt 1 view .LVU150
 884              		.loc 1 604 38 is_stmt 0 view .LVU151
 885 01f2 034B     		ldr	r3, .L82+4
 886 01f4 0122     		movs	r2, #1
ARM GAS  C:\Users\hoodc\AppData\Local\Temp\cc0s45Xa.s 			page 28


 887 01f6 C3F80023 		str	r2, [r3, #768]
 605:../Drivers/STM32L4xx_HAL_Driver/Src/stm32l4xx_hal.c **** }
 888              		.loc 1 605 1 view .LVU152
 889 01fa 7047     		bx	lr
 890              	.L83:
 891              		.align	2
 892              	.L82:
 893 01fc 00000140 		.word	1073807360
 894 0200 00002042 		.word	1109393408
 895              		.cfi_endproc
 896              	.LFE158:
 897              		.size	HAL_SYSCFG_SRAM2Erase, .-HAL_SYSCFG_SRAM2Erase
 898              		.align	1
 899              		.global	HAL_SYSCFG_EnableMemorySwappingBank
 900              		.syntax unified
 901              		.thumb
 902              		.thumb_func
 903              		.fpu softvfp
 904              		.type	HAL_SYSCFG_EnableMemorySwappingBank, %function
 905              	HAL_SYSCFG_EnableMemorySwappingBank:
 906              	.LFB159:
 606:../Drivers/STM32L4xx_HAL_Driver/Src/stm32l4xx_hal.c **** 
 607:../Drivers/STM32L4xx_HAL_Driver/Src/stm32l4xx_hal.c **** /**
 608:../Drivers/STM32L4xx_HAL_Driver/Src/stm32l4xx_hal.c ****   * @brief  Enable the Internal FLASH Bank Swapping.
 609:../Drivers/STM32L4xx_HAL_Driver/Src/stm32l4xx_hal.c ****   *
 610:../Drivers/STM32L4xx_HAL_Driver/Src/stm32l4xx_hal.c ****   * @note   This function can be used only for STM32L4xx devices.
 611:../Drivers/STM32L4xx_HAL_Driver/Src/stm32l4xx_hal.c ****   *
 612:../Drivers/STM32L4xx_HAL_Driver/Src/stm32l4xx_hal.c ****   * @note   Flash Bank2 mapped at 0x08000000 (and aliased @0x00000000)
 613:../Drivers/STM32L4xx_HAL_Driver/Src/stm32l4xx_hal.c ****   *         and Flash Bank1 mapped at 0x08100000 (and aliased at 0x00100000)
 614:../Drivers/STM32L4xx_HAL_Driver/Src/stm32l4xx_hal.c ****   *
 615:../Drivers/STM32L4xx_HAL_Driver/Src/stm32l4xx_hal.c ****   * @retval None
 616:../Drivers/STM32L4xx_HAL_Driver/Src/stm32l4xx_hal.c ****   */
 617:../Drivers/STM32L4xx_HAL_Driver/Src/stm32l4xx_hal.c **** void HAL_SYSCFG_EnableMemorySwappingBank(void)
 618:../Drivers/STM32L4xx_HAL_Driver/Src/stm32l4xx_hal.c **** {
 907              		.loc 1 618 1 is_stmt 1 view -0
 908              		.cfi_startproc
 909              		@ args = 0, pretend = 0, frame = 0
 910              		@ frame_needed = 0, uses_anonymous_args = 0
 911              		@ link register save eliminated.
 619:../Drivers/STM32L4xx_HAL_Driver/Src/stm32l4xx_hal.c ****   *(__IO uint32_t *)FB_MODE_BB = 0x00000001UL;
 912              		.loc 1 619 3 view .LVU154
 913              		.loc 1 619 32 is_stmt 0 view .LVU155
 914 0204 014B     		ldr	r3, .L85
 915 0206 0122     		movs	r2, #1
 916 0208 1A62     		str	r2, [r3, #32]
 620:../Drivers/STM32L4xx_HAL_Driver/Src/stm32l4xx_hal.c **** }
 917              		.loc 1 620 1 view .LVU156
 918 020a 7047     		bx	lr
 919              	.L86:
 920              		.align	2
 921              	.L85:
 922 020c 00002042 		.word	1109393408
 923              		.cfi_endproc
 924              	.LFE159:
 925              		.size	HAL_SYSCFG_EnableMemorySwappingBank, .-HAL_SYSCFG_EnableMemorySwappingBank
 926              		.align	1
 927              		.global	HAL_SYSCFG_DisableMemorySwappingBank
ARM GAS  C:\Users\hoodc\AppData\Local\Temp\cc0s45Xa.s 			page 29


 928              		.syntax unified
 929              		.thumb
 930              		.thumb_func
 931              		.fpu softvfp
 932              		.type	HAL_SYSCFG_DisableMemorySwappingBank, %function
 933              	HAL_SYSCFG_DisableMemorySwappingBank:
 934              	.LFB160:
 621:../Drivers/STM32L4xx_HAL_Driver/Src/stm32l4xx_hal.c **** 
 622:../Drivers/STM32L4xx_HAL_Driver/Src/stm32l4xx_hal.c **** /**
 623:../Drivers/STM32L4xx_HAL_Driver/Src/stm32l4xx_hal.c ****   * @brief  Disable the Internal FLASH Bank Swapping.
 624:../Drivers/STM32L4xx_HAL_Driver/Src/stm32l4xx_hal.c ****   *
 625:../Drivers/STM32L4xx_HAL_Driver/Src/stm32l4xx_hal.c ****   * @note   This function can be used only for STM32L4xx devices.
 626:../Drivers/STM32L4xx_HAL_Driver/Src/stm32l4xx_hal.c ****   *
 627:../Drivers/STM32L4xx_HAL_Driver/Src/stm32l4xx_hal.c ****   * @note   The default state : Flash Bank1 mapped at 0x08000000 (and aliased @0x0000 0000)
 628:../Drivers/STM32L4xx_HAL_Driver/Src/stm32l4xx_hal.c ****   *         and Flash Bank2 mapped at 0x08100000 (and aliased at 0x00100000)
 629:../Drivers/STM32L4xx_HAL_Driver/Src/stm32l4xx_hal.c ****   *
 630:../Drivers/STM32L4xx_HAL_Driver/Src/stm32l4xx_hal.c ****   * @retval None
 631:../Drivers/STM32L4xx_HAL_Driver/Src/stm32l4xx_hal.c ****   */
 632:../Drivers/STM32L4xx_HAL_Driver/Src/stm32l4xx_hal.c **** void HAL_SYSCFG_DisableMemorySwappingBank(void)
 633:../Drivers/STM32L4xx_HAL_Driver/Src/stm32l4xx_hal.c **** {
 935              		.loc 1 633 1 is_stmt 1 view -0
 936              		.cfi_startproc
 937              		@ args = 0, pretend = 0, frame = 0
 938              		@ frame_needed = 0, uses_anonymous_args = 0
 939              		@ link register save eliminated.
 634:../Drivers/STM32L4xx_HAL_Driver/Src/stm32l4xx_hal.c **** 
 635:../Drivers/STM32L4xx_HAL_Driver/Src/stm32l4xx_hal.c ****   *(__IO uint32_t *)FB_MODE_BB = 0x00000000UL;
 940              		.loc 1 635 3 view .LVU158
 941              		.loc 1 635 32 is_stmt 0 view .LVU159
 942 0210 014B     		ldr	r3, .L88
 943 0212 0022     		movs	r2, #0
 944 0214 1A62     		str	r2, [r3, #32]
 636:../Drivers/STM32L4xx_HAL_Driver/Src/stm32l4xx_hal.c **** }
 945              		.loc 1 636 1 view .LVU160
 946 0216 7047     		bx	lr
 947              	.L89:
 948              		.align	2
 949              	.L88:
 950 0218 00002042 		.word	1109393408
 951              		.cfi_endproc
 952              	.LFE160:
 953              		.size	HAL_SYSCFG_DisableMemorySwappingBank, .-HAL_SYSCFG_DisableMemorySwappingBank
 954              		.align	1
 955              		.global	HAL_SYSCFG_EnableIOAnalogSwitchBooster
 956              		.syntax unified
 957              		.thumb
 958              		.thumb_func
 959              		.fpu softvfp
 960              		.type	HAL_SYSCFG_EnableIOAnalogSwitchBooster, %function
 961              	HAL_SYSCFG_EnableIOAnalogSwitchBooster:
 962              	.LFB161:
 637:../Drivers/STM32L4xx_HAL_Driver/Src/stm32l4xx_hal.c **** 
 638:../Drivers/STM32L4xx_HAL_Driver/Src/stm32l4xx_hal.c **** #if defined(VREFBUF)
 639:../Drivers/STM32L4xx_HAL_Driver/Src/stm32l4xx_hal.c **** /**
 640:../Drivers/STM32L4xx_HAL_Driver/Src/stm32l4xx_hal.c ****   * @brief Configure the internal voltage reference buffer voltage scale.
 641:../Drivers/STM32L4xx_HAL_Driver/Src/stm32l4xx_hal.c ****   * @param VoltageScaling  specifies the output voltage to achieve
 642:../Drivers/STM32L4xx_HAL_Driver/Src/stm32l4xx_hal.c ****   *          This parameter can be one of the following values:
ARM GAS  C:\Users\hoodc\AppData\Local\Temp\cc0s45Xa.s 			page 30


 643:../Drivers/STM32L4xx_HAL_Driver/Src/stm32l4xx_hal.c ****   *            @arg SYSCFG_VREFBUF_VOLTAGE_SCALE0: VREF_OUT1 around 2.048 V.
 644:../Drivers/STM32L4xx_HAL_Driver/Src/stm32l4xx_hal.c ****   *                                                This requires VDDA equal to or higher than 2.4 V
 645:../Drivers/STM32L4xx_HAL_Driver/Src/stm32l4xx_hal.c ****   *            @arg SYSCFG_VREFBUF_VOLTAGE_SCALE1: VREF_OUT2 around 2.5 V.
 646:../Drivers/STM32L4xx_HAL_Driver/Src/stm32l4xx_hal.c ****   *                                                This requires VDDA equal to or higher than 2.8 V
 647:../Drivers/STM32L4xx_HAL_Driver/Src/stm32l4xx_hal.c ****   * @retval None
 648:../Drivers/STM32L4xx_HAL_Driver/Src/stm32l4xx_hal.c ****   */
 649:../Drivers/STM32L4xx_HAL_Driver/Src/stm32l4xx_hal.c **** void HAL_SYSCFG_VREFBUF_VoltageScalingConfig(uint32_t VoltageScaling)
 650:../Drivers/STM32L4xx_HAL_Driver/Src/stm32l4xx_hal.c **** {
 651:../Drivers/STM32L4xx_HAL_Driver/Src/stm32l4xx_hal.c ****   /* Check the parameters */
 652:../Drivers/STM32L4xx_HAL_Driver/Src/stm32l4xx_hal.c ****   assert_param(IS_SYSCFG_VREFBUF_VOLTAGE_SCALE(VoltageScaling));
 653:../Drivers/STM32L4xx_HAL_Driver/Src/stm32l4xx_hal.c **** 
 654:../Drivers/STM32L4xx_HAL_Driver/Src/stm32l4xx_hal.c ****   MODIFY_REG(VREFBUF->CSR, VREFBUF_CSR_VRS, VoltageScaling);
 655:../Drivers/STM32L4xx_HAL_Driver/Src/stm32l4xx_hal.c **** }
 656:../Drivers/STM32L4xx_HAL_Driver/Src/stm32l4xx_hal.c **** 
 657:../Drivers/STM32L4xx_HAL_Driver/Src/stm32l4xx_hal.c **** /**
 658:../Drivers/STM32L4xx_HAL_Driver/Src/stm32l4xx_hal.c ****   * @brief Configure the internal voltage reference buffer high impedance mode.
 659:../Drivers/STM32L4xx_HAL_Driver/Src/stm32l4xx_hal.c ****   * @param Mode  specifies the high impedance mode
 660:../Drivers/STM32L4xx_HAL_Driver/Src/stm32l4xx_hal.c ****   *          This parameter can be one of the following values:
 661:../Drivers/STM32L4xx_HAL_Driver/Src/stm32l4xx_hal.c ****   *            @arg SYSCFG_VREFBUF_HIGH_IMPEDANCE_DISABLE: VREF+ pin is internally connect to VREFI
 662:../Drivers/STM32L4xx_HAL_Driver/Src/stm32l4xx_hal.c ****   *            @arg SYSCFG_VREFBUF_HIGH_IMPEDANCE_ENABLE: VREF+ pin is high impedance.
 663:../Drivers/STM32L4xx_HAL_Driver/Src/stm32l4xx_hal.c ****   * @retval None
 664:../Drivers/STM32L4xx_HAL_Driver/Src/stm32l4xx_hal.c ****   */
 665:../Drivers/STM32L4xx_HAL_Driver/Src/stm32l4xx_hal.c **** void HAL_SYSCFG_VREFBUF_HighImpedanceConfig(uint32_t Mode)
 666:../Drivers/STM32L4xx_HAL_Driver/Src/stm32l4xx_hal.c **** {
 667:../Drivers/STM32L4xx_HAL_Driver/Src/stm32l4xx_hal.c ****   /* Check the parameters */
 668:../Drivers/STM32L4xx_HAL_Driver/Src/stm32l4xx_hal.c ****   assert_param(IS_SYSCFG_VREFBUF_HIGH_IMPEDANCE(Mode));
 669:../Drivers/STM32L4xx_HAL_Driver/Src/stm32l4xx_hal.c **** 
 670:../Drivers/STM32L4xx_HAL_Driver/Src/stm32l4xx_hal.c ****   MODIFY_REG(VREFBUF->CSR, VREFBUF_CSR_HIZ, Mode);
 671:../Drivers/STM32L4xx_HAL_Driver/Src/stm32l4xx_hal.c **** }
 672:../Drivers/STM32L4xx_HAL_Driver/Src/stm32l4xx_hal.c **** 
 673:../Drivers/STM32L4xx_HAL_Driver/Src/stm32l4xx_hal.c **** /**
 674:../Drivers/STM32L4xx_HAL_Driver/Src/stm32l4xx_hal.c ****   * @brief  Tune the Internal Voltage Reference buffer (VREFBUF).
 675:../Drivers/STM32L4xx_HAL_Driver/Src/stm32l4xx_hal.c ****   * @retval None
 676:../Drivers/STM32L4xx_HAL_Driver/Src/stm32l4xx_hal.c ****   */
 677:../Drivers/STM32L4xx_HAL_Driver/Src/stm32l4xx_hal.c **** void HAL_SYSCFG_VREFBUF_TrimmingConfig(uint32_t TrimmingValue)
 678:../Drivers/STM32L4xx_HAL_Driver/Src/stm32l4xx_hal.c **** {
 679:../Drivers/STM32L4xx_HAL_Driver/Src/stm32l4xx_hal.c ****   /* Check the parameters */
 680:../Drivers/STM32L4xx_HAL_Driver/Src/stm32l4xx_hal.c ****   assert_param(IS_SYSCFG_VREFBUF_TRIMMING(TrimmingValue));
 681:../Drivers/STM32L4xx_HAL_Driver/Src/stm32l4xx_hal.c **** 
 682:../Drivers/STM32L4xx_HAL_Driver/Src/stm32l4xx_hal.c ****   MODIFY_REG(VREFBUF->CCR, VREFBUF_CCR_TRIM, TrimmingValue);
 683:../Drivers/STM32L4xx_HAL_Driver/Src/stm32l4xx_hal.c **** }
 684:../Drivers/STM32L4xx_HAL_Driver/Src/stm32l4xx_hal.c **** 
 685:../Drivers/STM32L4xx_HAL_Driver/Src/stm32l4xx_hal.c **** /**
 686:../Drivers/STM32L4xx_HAL_Driver/Src/stm32l4xx_hal.c ****   * @brief  Enable the Internal Voltage Reference buffer (VREFBUF).
 687:../Drivers/STM32L4xx_HAL_Driver/Src/stm32l4xx_hal.c ****   * @retval HAL_OK/HAL_TIMEOUT
 688:../Drivers/STM32L4xx_HAL_Driver/Src/stm32l4xx_hal.c ****   */
 689:../Drivers/STM32L4xx_HAL_Driver/Src/stm32l4xx_hal.c **** HAL_StatusTypeDef HAL_SYSCFG_EnableVREFBUF(void)
 690:../Drivers/STM32L4xx_HAL_Driver/Src/stm32l4xx_hal.c **** {
 691:../Drivers/STM32L4xx_HAL_Driver/Src/stm32l4xx_hal.c ****   uint32_t  tickstart;
 692:../Drivers/STM32L4xx_HAL_Driver/Src/stm32l4xx_hal.c **** 
 693:../Drivers/STM32L4xx_HAL_Driver/Src/stm32l4xx_hal.c ****   SET_BIT(VREFBUF->CSR, VREFBUF_CSR_ENVR);
 694:../Drivers/STM32L4xx_HAL_Driver/Src/stm32l4xx_hal.c **** 
 695:../Drivers/STM32L4xx_HAL_Driver/Src/stm32l4xx_hal.c ****   /* Get Start Tick*/
 696:../Drivers/STM32L4xx_HAL_Driver/Src/stm32l4xx_hal.c ****   tickstart = HAL_GetTick();
 697:../Drivers/STM32L4xx_HAL_Driver/Src/stm32l4xx_hal.c **** 
 698:../Drivers/STM32L4xx_HAL_Driver/Src/stm32l4xx_hal.c ****   /* Wait for VRR bit  */
 699:../Drivers/STM32L4xx_HAL_Driver/Src/stm32l4xx_hal.c ****   while(READ_BIT(VREFBUF->CSR, VREFBUF_CSR_VRR) == 0U)
ARM GAS  C:\Users\hoodc\AppData\Local\Temp\cc0s45Xa.s 			page 31


 700:../Drivers/STM32L4xx_HAL_Driver/Src/stm32l4xx_hal.c ****   {
 701:../Drivers/STM32L4xx_HAL_Driver/Src/stm32l4xx_hal.c ****     if((HAL_GetTick() - tickstart) > VREFBUF_TIMEOUT_VALUE)
 702:../Drivers/STM32L4xx_HAL_Driver/Src/stm32l4xx_hal.c ****     {
 703:../Drivers/STM32L4xx_HAL_Driver/Src/stm32l4xx_hal.c ****       return HAL_TIMEOUT;
 704:../Drivers/STM32L4xx_HAL_Driver/Src/stm32l4xx_hal.c ****     }
 705:../Drivers/STM32L4xx_HAL_Driver/Src/stm32l4xx_hal.c ****   }
 706:../Drivers/STM32L4xx_HAL_Driver/Src/stm32l4xx_hal.c **** 
 707:../Drivers/STM32L4xx_HAL_Driver/Src/stm32l4xx_hal.c ****   return HAL_OK;
 708:../Drivers/STM32L4xx_HAL_Driver/Src/stm32l4xx_hal.c **** }
 709:../Drivers/STM32L4xx_HAL_Driver/Src/stm32l4xx_hal.c **** 
 710:../Drivers/STM32L4xx_HAL_Driver/Src/stm32l4xx_hal.c **** /**
 711:../Drivers/STM32L4xx_HAL_Driver/Src/stm32l4xx_hal.c ****   * @brief  Disable the Internal Voltage Reference buffer (VREFBUF).
 712:../Drivers/STM32L4xx_HAL_Driver/Src/stm32l4xx_hal.c ****   *
 713:../Drivers/STM32L4xx_HAL_Driver/Src/stm32l4xx_hal.c ****   * @retval None
 714:../Drivers/STM32L4xx_HAL_Driver/Src/stm32l4xx_hal.c ****   */
 715:../Drivers/STM32L4xx_HAL_Driver/Src/stm32l4xx_hal.c **** void HAL_SYSCFG_DisableVREFBUF(void)
 716:../Drivers/STM32L4xx_HAL_Driver/Src/stm32l4xx_hal.c **** {
 717:../Drivers/STM32L4xx_HAL_Driver/Src/stm32l4xx_hal.c ****   CLEAR_BIT(VREFBUF->CSR, VREFBUF_CSR_ENVR);
 718:../Drivers/STM32L4xx_HAL_Driver/Src/stm32l4xx_hal.c **** }
 719:../Drivers/STM32L4xx_HAL_Driver/Src/stm32l4xx_hal.c **** #endif /* VREFBUF */
 720:../Drivers/STM32L4xx_HAL_Driver/Src/stm32l4xx_hal.c **** 
 721:../Drivers/STM32L4xx_HAL_Driver/Src/stm32l4xx_hal.c **** /**
 722:../Drivers/STM32L4xx_HAL_Driver/Src/stm32l4xx_hal.c ****   * @brief  Enable the I/O analog switch voltage booster
 723:../Drivers/STM32L4xx_HAL_Driver/Src/stm32l4xx_hal.c ****   *
 724:../Drivers/STM32L4xx_HAL_Driver/Src/stm32l4xx_hal.c ****   * @retval None
 725:../Drivers/STM32L4xx_HAL_Driver/Src/stm32l4xx_hal.c ****   */
 726:../Drivers/STM32L4xx_HAL_Driver/Src/stm32l4xx_hal.c **** void HAL_SYSCFG_EnableIOAnalogSwitchBooster(void)
 727:../Drivers/STM32L4xx_HAL_Driver/Src/stm32l4xx_hal.c **** {
 963              		.loc 1 727 1 is_stmt 1 view -0
 964              		.cfi_startproc
 965              		@ args = 0, pretend = 0, frame = 0
 966              		@ frame_needed = 0, uses_anonymous_args = 0
 967              		@ link register save eliminated.
 728:../Drivers/STM32L4xx_HAL_Driver/Src/stm32l4xx_hal.c ****   SET_BIT(SYSCFG->CFGR1, SYSCFG_CFGR1_BOOSTEN);
 968              		.loc 1 728 3 view .LVU162
 969 021c 024A     		ldr	r2, .L91
 970 021e 5368     		ldr	r3, [r2, #4]
 971 0220 43F48073 		orr	r3, r3, #256
 972 0224 5360     		str	r3, [r2, #4]
 729:../Drivers/STM32L4xx_HAL_Driver/Src/stm32l4xx_hal.c **** }
 973              		.loc 1 729 1 is_stmt 0 view .LVU163
 974 0226 7047     		bx	lr
 975              	.L92:
 976              		.align	2
 977              	.L91:
 978 0228 00000140 		.word	1073807360
 979              		.cfi_endproc
 980              	.LFE161:
 981              		.size	HAL_SYSCFG_EnableIOAnalogSwitchBooster, .-HAL_SYSCFG_EnableIOAnalogSwitchBooster
 982              		.align	1
 983              		.global	HAL_SYSCFG_DisableIOAnalogSwitchBooster
 984              		.syntax unified
 985              		.thumb
 986              		.thumb_func
 987              		.fpu softvfp
 988              		.type	HAL_SYSCFG_DisableIOAnalogSwitchBooster, %function
 989              	HAL_SYSCFG_DisableIOAnalogSwitchBooster:
ARM GAS  C:\Users\hoodc\AppData\Local\Temp\cc0s45Xa.s 			page 32


 990              	.LFB162:
 730:../Drivers/STM32L4xx_HAL_Driver/Src/stm32l4xx_hal.c **** 
 731:../Drivers/STM32L4xx_HAL_Driver/Src/stm32l4xx_hal.c **** /**
 732:../Drivers/STM32L4xx_HAL_Driver/Src/stm32l4xx_hal.c ****   * @brief  Disable the I/O analog switch voltage booster
 733:../Drivers/STM32L4xx_HAL_Driver/Src/stm32l4xx_hal.c ****   *
 734:../Drivers/STM32L4xx_HAL_Driver/Src/stm32l4xx_hal.c ****   * @retval None
 735:../Drivers/STM32L4xx_HAL_Driver/Src/stm32l4xx_hal.c ****   */
 736:../Drivers/STM32L4xx_HAL_Driver/Src/stm32l4xx_hal.c **** void HAL_SYSCFG_DisableIOAnalogSwitchBooster(void)
 737:../Drivers/STM32L4xx_HAL_Driver/Src/stm32l4xx_hal.c **** {
 991              		.loc 1 737 1 is_stmt 1 view -0
 992              		.cfi_startproc
 993              		@ args = 0, pretend = 0, frame = 0
 994              		@ frame_needed = 0, uses_anonymous_args = 0
 995              		@ link register save eliminated.
 738:../Drivers/STM32L4xx_HAL_Driver/Src/stm32l4xx_hal.c ****   CLEAR_BIT(SYSCFG->CFGR1, SYSCFG_CFGR1_BOOSTEN);
 996              		.loc 1 738 3 view .LVU165
 997 022c 024A     		ldr	r2, .L94
 998 022e 5368     		ldr	r3, [r2, #4]
 999 0230 23F48073 		bic	r3, r3, #256
 1000 0234 5360     		str	r3, [r2, #4]
 739:../Drivers/STM32L4xx_HAL_Driver/Src/stm32l4xx_hal.c **** }
 1001              		.loc 1 739 1 is_stmt 0 view .LVU166
 1002 0236 7047     		bx	lr
 1003              	.L95:
 1004              		.align	2
 1005              	.L94:
 1006 0238 00000140 		.word	1073807360
 1007              		.cfi_endproc
 1008              	.LFE162:
 1009              		.size	HAL_SYSCFG_DisableIOAnalogSwitchBooster, .-HAL_SYSCFG_DisableIOAnalogSwitchBooster
 1010              		.global	uwTickFreq
 1011              		.global	uwTickPrio
 1012              		.global	uwTick
 1013              		.data
 1014              		.align	2
 1015              		.set	.LANCHOR0,. + 0
 1016              		.type	uwTickFreq, %object
 1017              		.size	uwTickFreq, 4
 1018              	uwTickFreq:
 1019 0000 01000000 		.word	1
 1020              		.type	uwTickPrio, %object
 1021              		.size	uwTickPrio, 4
 1022              	uwTickPrio:
 1023 0004 10000000 		.word	16
 1024              		.bss
 1025              		.align	2
 1026              		.set	.LANCHOR1,. + 0
 1027              		.type	uwTick, %object
 1028              		.size	uwTick, 4
 1029              	uwTick:
 1030 0000 00000000 		.space	4
 1031              		.text
 1032              	.Letext0:
 1033              		.file 2 "c:\\program files (x86)\\gnu arm embedded toolchain\\10 2020-q4-major\\arm-none-eabi\\inc
 1034              		.file 3 "c:\\program files (x86)\\gnu arm embedded toolchain\\10 2020-q4-major\\arm-none-eabi\\inc
 1035              		.file 4 "C:/Users/hoodc/AppData/Local/Arm/Packs/ARM/CMSIS/5.7.0/CMSIS/Core/Include/core_cm4.h"
 1036              		.file 5 "C:/Users/hoodc/AppData/Local/Arm/Packs/Keil/STM32L4xx_DFP/2.5.0/Drivers/CMSIS/Device/ST/S
ARM GAS  C:\Users\hoodc\AppData\Local\Temp\cc0s45Xa.s 			page 33


 1037              		.file 6 "../Drivers/STM32L4xx_HAL_Driver/Inc/stm32l4xx_hal_def.h"
 1038              		.file 7 "C:/Users/hoodc/AppData/Local/Arm/Packs/Keil/STM32L4xx_DFP/2.5.0/Drivers/CMSIS/Device/ST/S
 1039              		.file 8 "../Drivers/STM32L4xx_HAL_Driver/Inc/stm32l4xx_hal.h"
 1040              		.file 9 "../Drivers/STM32L4xx_HAL_Driver/Inc/stm32l4xx_hal_cortex.h"