ARM GAS  C:\Users\hoodc\AppData\Local\Temp\ccsNrQcU.s 			page 1


   1              		.cpu cortex-m4
   2              		.eabi_attribute 20, 1
   3              		.eabi_attribute 21, 1
   4              		.eabi_attribute 23, 3
   5              		.eabi_attribute 24, 1
   6              		.eabi_attribute 25, 1
   7              		.eabi_attribute 26, 1
   8              		.eabi_attribute 30, 1
   9              		.eabi_attribute 34, 1
  10              		.eabi_attribute 18, 4
  11              		.file	"stm32l4xx_hal_flash_ex.c"
  12              		.text
  13              	.Ltext0:
  14              		.cfi_sections	.debug_frame
  15              		.align	1
  16              		.arch armv7e-m
  17              		.syntax unified
  18              		.thumb
  19              		.thumb_func
  20              		.fpu softvfp
  21              		.type	FLASH_MassErase, %function
  22              	FLASH_MassErase:
  23              	.LVL0:
  24              	.LFB137:
  25              		.file 1 "../Drivers/STM32L4xx_HAL_Driver/Src/stm32l4xx_hal_flash_ex.c"
   1:../Drivers/STM32L4xx_HAL_Driver/Src/stm32l4xx_hal_flash_ex.c **** /**
   2:../Drivers/STM32L4xx_HAL_Driver/Src/stm32l4xx_hal_flash_ex.c ****   ******************************************************************************
   3:../Drivers/STM32L4xx_HAL_Driver/Src/stm32l4xx_hal_flash_ex.c ****   * @file    stm32l4xx_hal_flash_ex.c
   4:../Drivers/STM32L4xx_HAL_Driver/Src/stm32l4xx_hal_flash_ex.c ****   * @author  MCD Application Team
   5:../Drivers/STM32L4xx_HAL_Driver/Src/stm32l4xx_hal_flash_ex.c ****   * @brief   Extended FLASH HAL module driver.
   6:../Drivers/STM32L4xx_HAL_Driver/Src/stm32l4xx_hal_flash_ex.c ****   *          This file provides firmware functions to manage the following
   7:../Drivers/STM32L4xx_HAL_Driver/Src/stm32l4xx_hal_flash_ex.c ****   *          functionalities of the FLASH extended peripheral:
   8:../Drivers/STM32L4xx_HAL_Driver/Src/stm32l4xx_hal_flash_ex.c ****   *           + Extended programming operations functions
   9:../Drivers/STM32L4xx_HAL_Driver/Src/stm32l4xx_hal_flash_ex.c ****   *
  10:../Drivers/STM32L4xx_HAL_Driver/Src/stm32l4xx_hal_flash_ex.c ****  @verbatim
  11:../Drivers/STM32L4xx_HAL_Driver/Src/stm32l4xx_hal_flash_ex.c ****  ==============================================================================
  12:../Drivers/STM32L4xx_HAL_Driver/Src/stm32l4xx_hal_flash_ex.c ****                    ##### Flash Extended features #####
  13:../Drivers/STM32L4xx_HAL_Driver/Src/stm32l4xx_hal_flash_ex.c ****   ==============================================================================
  14:../Drivers/STM32L4xx_HAL_Driver/Src/stm32l4xx_hal_flash_ex.c **** 
  15:../Drivers/STM32L4xx_HAL_Driver/Src/stm32l4xx_hal_flash_ex.c ****   [..] Comparing to other previous devices, the FLASH interface for STM32L4xx
  16:../Drivers/STM32L4xx_HAL_Driver/Src/stm32l4xx_hal_flash_ex.c ****        devices contains the following additional features
  17:../Drivers/STM32L4xx_HAL_Driver/Src/stm32l4xx_hal_flash_ex.c **** 
  18:../Drivers/STM32L4xx_HAL_Driver/Src/stm32l4xx_hal_flash_ex.c ****        (+) Capacity up to 2 Mbyte with dual bank architecture supporting read-while-write
  19:../Drivers/STM32L4xx_HAL_Driver/Src/stm32l4xx_hal_flash_ex.c ****            capability (RWW)
  20:../Drivers/STM32L4xx_HAL_Driver/Src/stm32l4xx_hal_flash_ex.c ****        (+) Dual bank memory organization
  21:../Drivers/STM32L4xx_HAL_Driver/Src/stm32l4xx_hal_flash_ex.c ****        (+) PCROP protection for all banks
  22:../Drivers/STM32L4xx_HAL_Driver/Src/stm32l4xx_hal_flash_ex.c **** 
  23:../Drivers/STM32L4xx_HAL_Driver/Src/stm32l4xx_hal_flash_ex.c ****                         ##### How to use this driver #####
  24:../Drivers/STM32L4xx_HAL_Driver/Src/stm32l4xx_hal_flash_ex.c ****  ==============================================================================
  25:../Drivers/STM32L4xx_HAL_Driver/Src/stm32l4xx_hal_flash_ex.c ****   [..] This driver provides functions to configure and program the FLASH memory
  26:../Drivers/STM32L4xx_HAL_Driver/Src/stm32l4xx_hal_flash_ex.c ****        of all STM32L4xx devices. It includes
  27:../Drivers/STM32L4xx_HAL_Driver/Src/stm32l4xx_hal_flash_ex.c ****       (#) Flash Memory Erase functions:
  28:../Drivers/STM32L4xx_HAL_Driver/Src/stm32l4xx_hal_flash_ex.c ****            (++) Lock and Unlock the FLASH interface using HAL_FLASH_Unlock() and
  29:../Drivers/STM32L4xx_HAL_Driver/Src/stm32l4xx_hal_flash_ex.c ****                 HAL_FLASH_Lock() functions
  30:../Drivers/STM32L4xx_HAL_Driver/Src/stm32l4xx_hal_flash_ex.c ****            (++) Erase function: Erase page, erase all sectors
  31:../Drivers/STM32L4xx_HAL_Driver/Src/stm32l4xx_hal_flash_ex.c ****            (++) There are two modes of erase :
  32:../Drivers/STM32L4xx_HAL_Driver/Src/stm32l4xx_hal_flash_ex.c ****              (+++) Polling Mode using HAL_FLASHEx_Erase()
ARM GAS  C:\Users\hoodc\AppData\Local\Temp\ccsNrQcU.s 			page 2


  33:../Drivers/STM32L4xx_HAL_Driver/Src/stm32l4xx_hal_flash_ex.c ****              (+++) Interrupt Mode using HAL_FLASHEx_Erase_IT()
  34:../Drivers/STM32L4xx_HAL_Driver/Src/stm32l4xx_hal_flash_ex.c **** 
  35:../Drivers/STM32L4xx_HAL_Driver/Src/stm32l4xx_hal_flash_ex.c ****       (#) Option Bytes Programming function: Use HAL_FLASHEx_OBProgram() to :
  36:../Drivers/STM32L4xx_HAL_Driver/Src/stm32l4xx_hal_flash_ex.c ****         (++) Set/Reset the write protection
  37:../Drivers/STM32L4xx_HAL_Driver/Src/stm32l4xx_hal_flash_ex.c ****         (++) Set the Read protection Level
  38:../Drivers/STM32L4xx_HAL_Driver/Src/stm32l4xx_hal_flash_ex.c ****         (++) Program the user Option Bytes
  39:../Drivers/STM32L4xx_HAL_Driver/Src/stm32l4xx_hal_flash_ex.c ****         (++) Configure the PCROP protection
  40:../Drivers/STM32L4xx_HAL_Driver/Src/stm32l4xx_hal_flash_ex.c **** 
  41:../Drivers/STM32L4xx_HAL_Driver/Src/stm32l4xx_hal_flash_ex.c ****       (#) Get Option Bytes Configuration function: Use HAL_FLASHEx_OBGetConfig() to :
  42:../Drivers/STM32L4xx_HAL_Driver/Src/stm32l4xx_hal_flash_ex.c ****         (++) Get the value of a write protection area
  43:../Drivers/STM32L4xx_HAL_Driver/Src/stm32l4xx_hal_flash_ex.c ****         (++) Know if the read protection is activated
  44:../Drivers/STM32L4xx_HAL_Driver/Src/stm32l4xx_hal_flash_ex.c ****         (++) Get the value of the user Option Bytes
  45:../Drivers/STM32L4xx_HAL_Driver/Src/stm32l4xx_hal_flash_ex.c ****         (++) Get the value of a PCROP area
  46:../Drivers/STM32L4xx_HAL_Driver/Src/stm32l4xx_hal_flash_ex.c **** 
  47:../Drivers/STM32L4xx_HAL_Driver/Src/stm32l4xx_hal_flash_ex.c ****  @endverbatim
  48:../Drivers/STM32L4xx_HAL_Driver/Src/stm32l4xx_hal_flash_ex.c ****   ******************************************************************************
  49:../Drivers/STM32L4xx_HAL_Driver/Src/stm32l4xx_hal_flash_ex.c ****   * @attention
  50:../Drivers/STM32L4xx_HAL_Driver/Src/stm32l4xx_hal_flash_ex.c ****   *
  51:../Drivers/STM32L4xx_HAL_Driver/Src/stm32l4xx_hal_flash_ex.c ****   * <h2><center>&copy; Copyright (c) 2017 STMicroelectronics.
  52:../Drivers/STM32L4xx_HAL_Driver/Src/stm32l4xx_hal_flash_ex.c ****   * All rights reserved.</center></h2>
  53:../Drivers/STM32L4xx_HAL_Driver/Src/stm32l4xx_hal_flash_ex.c ****   *
  54:../Drivers/STM32L4xx_HAL_Driver/Src/stm32l4xx_hal_flash_ex.c ****   * This software component is licensed by ST under BSD 3-Clause license,
  55:../Drivers/STM32L4xx_HAL_Driver/Src/stm32l4xx_hal_flash_ex.c ****   * the "License"; You may not use this file except in compliance with the
  56:../Drivers/STM32L4xx_HAL_Driver/Src/stm32l4xx_hal_flash_ex.c ****   * License. You may obtain a copy of the License at:
  57:../Drivers/STM32L4xx_HAL_Driver/Src/stm32l4xx_hal_flash_ex.c ****   *                       opensource.org/licenses/BSD-3-Clause
  58:../Drivers/STM32L4xx_HAL_Driver/Src/stm32l4xx_hal_flash_ex.c ****   *
  59:../Drivers/STM32L4xx_HAL_Driver/Src/stm32l4xx_hal_flash_ex.c ****   ******************************************************************************
  60:../Drivers/STM32L4xx_HAL_Driver/Src/stm32l4xx_hal_flash_ex.c ****   */
  61:../Drivers/STM32L4xx_HAL_Driver/Src/stm32l4xx_hal_flash_ex.c **** 
  62:../Drivers/STM32L4xx_HAL_Driver/Src/stm32l4xx_hal_flash_ex.c **** /* Includes ------------------------------------------------------------------*/
  63:../Drivers/STM32L4xx_HAL_Driver/Src/stm32l4xx_hal_flash_ex.c **** #include "stm32l4xx_hal.h"
  64:../Drivers/STM32L4xx_HAL_Driver/Src/stm32l4xx_hal_flash_ex.c **** 
  65:../Drivers/STM32L4xx_HAL_Driver/Src/stm32l4xx_hal_flash_ex.c **** /** @addtogroup STM32L4xx_HAL_Driver
  66:../Drivers/STM32L4xx_HAL_Driver/Src/stm32l4xx_hal_flash_ex.c ****   * @{
  67:../Drivers/STM32L4xx_HAL_Driver/Src/stm32l4xx_hal_flash_ex.c ****   */
  68:../Drivers/STM32L4xx_HAL_Driver/Src/stm32l4xx_hal_flash_ex.c **** 
  69:../Drivers/STM32L4xx_HAL_Driver/Src/stm32l4xx_hal_flash_ex.c **** /** @defgroup FLASHEx FLASHEx
  70:../Drivers/STM32L4xx_HAL_Driver/Src/stm32l4xx_hal_flash_ex.c ****   * @brief FLASH Extended HAL module driver
  71:../Drivers/STM32L4xx_HAL_Driver/Src/stm32l4xx_hal_flash_ex.c ****   * @{
  72:../Drivers/STM32L4xx_HAL_Driver/Src/stm32l4xx_hal_flash_ex.c ****   */
  73:../Drivers/STM32L4xx_HAL_Driver/Src/stm32l4xx_hal_flash_ex.c **** 
  74:../Drivers/STM32L4xx_HAL_Driver/Src/stm32l4xx_hal_flash_ex.c **** #ifdef HAL_FLASH_MODULE_ENABLED
  75:../Drivers/STM32L4xx_HAL_Driver/Src/stm32l4xx_hal_flash_ex.c **** 
  76:../Drivers/STM32L4xx_HAL_Driver/Src/stm32l4xx_hal_flash_ex.c **** /* Private typedef -----------------------------------------------------------*/
  77:../Drivers/STM32L4xx_HAL_Driver/Src/stm32l4xx_hal_flash_ex.c **** /* Private define ------------------------------------------------------------*/
  78:../Drivers/STM32L4xx_HAL_Driver/Src/stm32l4xx_hal_flash_ex.c **** /* Private macro -------------------------------------------------------------*/
  79:../Drivers/STM32L4xx_HAL_Driver/Src/stm32l4xx_hal_flash_ex.c **** /* Private variables ---------------------------------------------------------*/
  80:../Drivers/STM32L4xx_HAL_Driver/Src/stm32l4xx_hal_flash_ex.c **** /* Private function prototypes -----------------------------------------------*/
  81:../Drivers/STM32L4xx_HAL_Driver/Src/stm32l4xx_hal_flash_ex.c **** /** @defgroup FLASHEx_Private_Functions FLASHEx Private Functions
  82:../Drivers/STM32L4xx_HAL_Driver/Src/stm32l4xx_hal_flash_ex.c ****  * @{
  83:../Drivers/STM32L4xx_HAL_Driver/Src/stm32l4xx_hal_flash_ex.c ****  */
  84:../Drivers/STM32L4xx_HAL_Driver/Src/stm32l4xx_hal_flash_ex.c **** static void              FLASH_MassErase(uint32_t Banks);
  85:../Drivers/STM32L4xx_HAL_Driver/Src/stm32l4xx_hal_flash_ex.c **** static HAL_StatusTypeDef FLASH_OB_WRPConfig(uint32_t WRPArea, uint32_t WRPStartOffset, uint32_t WRD
  86:../Drivers/STM32L4xx_HAL_Driver/Src/stm32l4xx_hal_flash_ex.c **** static HAL_StatusTypeDef FLASH_OB_RDPConfig(uint32_t RDPLevel);
  87:../Drivers/STM32L4xx_HAL_Driver/Src/stm32l4xx_hal_flash_ex.c **** static HAL_StatusTypeDef FLASH_OB_UserConfig(uint32_t UserType, uint32_t UserConfig);
  88:../Drivers/STM32L4xx_HAL_Driver/Src/stm32l4xx_hal_flash_ex.c **** static HAL_StatusTypeDef FLASH_OB_PCROPConfig(uint32_t PCROPConfig, uint32_t PCROPStartAddr, uint32
  89:../Drivers/STM32L4xx_HAL_Driver/Src/stm32l4xx_hal_flash_ex.c **** static void              FLASH_OB_GetWRP(uint32_t WRPArea, uint32_t * WRPStartOffset, uint32_t * WR
ARM GAS  C:\Users\hoodc\AppData\Local\Temp\ccsNrQcU.s 			page 3


  90:../Drivers/STM32L4xx_HAL_Driver/Src/stm32l4xx_hal_flash_ex.c **** static uint32_t          FLASH_OB_GetRDP(void);
  91:../Drivers/STM32L4xx_HAL_Driver/Src/stm32l4xx_hal_flash_ex.c **** static uint32_t          FLASH_OB_GetUser(void);
  92:../Drivers/STM32L4xx_HAL_Driver/Src/stm32l4xx_hal_flash_ex.c **** static void              FLASH_OB_GetPCROP(uint32_t * PCROPConfig, uint32_t * PCROPStartAddr, uint3
  93:../Drivers/STM32L4xx_HAL_Driver/Src/stm32l4xx_hal_flash_ex.c **** /**
  94:../Drivers/STM32L4xx_HAL_Driver/Src/stm32l4xx_hal_flash_ex.c ****   * @}
  95:../Drivers/STM32L4xx_HAL_Driver/Src/stm32l4xx_hal_flash_ex.c ****   */
  96:../Drivers/STM32L4xx_HAL_Driver/Src/stm32l4xx_hal_flash_ex.c **** 
  97:../Drivers/STM32L4xx_HAL_Driver/Src/stm32l4xx_hal_flash_ex.c **** /* Exported functions -------------------------------------------------------*/
  98:../Drivers/STM32L4xx_HAL_Driver/Src/stm32l4xx_hal_flash_ex.c **** /** @defgroup FLASHEx_Exported_Functions FLASHEx Exported Functions
  99:../Drivers/STM32L4xx_HAL_Driver/Src/stm32l4xx_hal_flash_ex.c ****   * @{
 100:../Drivers/STM32L4xx_HAL_Driver/Src/stm32l4xx_hal_flash_ex.c ****   */
 101:../Drivers/STM32L4xx_HAL_Driver/Src/stm32l4xx_hal_flash_ex.c **** 
 102:../Drivers/STM32L4xx_HAL_Driver/Src/stm32l4xx_hal_flash_ex.c **** /** @defgroup FLASHEx_Exported_Functions_Group1 Extended IO operation functions
 103:../Drivers/STM32L4xx_HAL_Driver/Src/stm32l4xx_hal_flash_ex.c ****  *  @brief   Extended IO operation functions
 104:../Drivers/STM32L4xx_HAL_Driver/Src/stm32l4xx_hal_flash_ex.c ****  *
 105:../Drivers/STM32L4xx_HAL_Driver/Src/stm32l4xx_hal_flash_ex.c **** @verbatim
 106:../Drivers/STM32L4xx_HAL_Driver/Src/stm32l4xx_hal_flash_ex.c ****  ===============================================================================
 107:../Drivers/STM32L4xx_HAL_Driver/Src/stm32l4xx_hal_flash_ex.c ****                 ##### Extended programming operation functions #####
 108:../Drivers/STM32L4xx_HAL_Driver/Src/stm32l4xx_hal_flash_ex.c ****  ===============================================================================
 109:../Drivers/STM32L4xx_HAL_Driver/Src/stm32l4xx_hal_flash_ex.c ****     [..]
 110:../Drivers/STM32L4xx_HAL_Driver/Src/stm32l4xx_hal_flash_ex.c ****     This subsection provides a set of functions allowing to manage the Extended FLASH
 111:../Drivers/STM32L4xx_HAL_Driver/Src/stm32l4xx_hal_flash_ex.c ****     programming operations Operations.
 112:../Drivers/STM32L4xx_HAL_Driver/Src/stm32l4xx_hal_flash_ex.c **** 
 113:../Drivers/STM32L4xx_HAL_Driver/Src/stm32l4xx_hal_flash_ex.c **** @endverbatim
 114:../Drivers/STM32L4xx_HAL_Driver/Src/stm32l4xx_hal_flash_ex.c ****   * @{
 115:../Drivers/STM32L4xx_HAL_Driver/Src/stm32l4xx_hal_flash_ex.c ****   */
 116:../Drivers/STM32L4xx_HAL_Driver/Src/stm32l4xx_hal_flash_ex.c **** /**
 117:../Drivers/STM32L4xx_HAL_Driver/Src/stm32l4xx_hal_flash_ex.c ****   * @brief  Perform a mass erase or erase the specified FLASH memory pages.
 118:../Drivers/STM32L4xx_HAL_Driver/Src/stm32l4xx_hal_flash_ex.c ****   * @param[in]  pEraseInit: pointer to an FLASH_EraseInitTypeDef structure that
 119:../Drivers/STM32L4xx_HAL_Driver/Src/stm32l4xx_hal_flash_ex.c ****   *         contains the configuration information for the erasing.
 120:../Drivers/STM32L4xx_HAL_Driver/Src/stm32l4xx_hal_flash_ex.c ****   *
 121:../Drivers/STM32L4xx_HAL_Driver/Src/stm32l4xx_hal_flash_ex.c ****   * @param[out]  PageError  : pointer to variable that contains the configuration
 122:../Drivers/STM32L4xx_HAL_Driver/Src/stm32l4xx_hal_flash_ex.c ****   *         information on faulty page in case of error (0xFFFFFFFF means that all
 123:../Drivers/STM32L4xx_HAL_Driver/Src/stm32l4xx_hal_flash_ex.c ****   *         the pages have been correctly erased)
 124:../Drivers/STM32L4xx_HAL_Driver/Src/stm32l4xx_hal_flash_ex.c ****   *
 125:../Drivers/STM32L4xx_HAL_Driver/Src/stm32l4xx_hal_flash_ex.c ****   * @retval HAL Status
 126:../Drivers/STM32L4xx_HAL_Driver/Src/stm32l4xx_hal_flash_ex.c ****   */
 127:../Drivers/STM32L4xx_HAL_Driver/Src/stm32l4xx_hal_flash_ex.c **** HAL_StatusTypeDef HAL_FLASHEx_Erase(FLASH_EraseInitTypeDef *pEraseInit, uint32_t *PageError)
 128:../Drivers/STM32L4xx_HAL_Driver/Src/stm32l4xx_hal_flash_ex.c **** {
 129:../Drivers/STM32L4xx_HAL_Driver/Src/stm32l4xx_hal_flash_ex.c ****   HAL_StatusTypeDef status;
 130:../Drivers/STM32L4xx_HAL_Driver/Src/stm32l4xx_hal_flash_ex.c ****   uint32_t page_index;
 131:../Drivers/STM32L4xx_HAL_Driver/Src/stm32l4xx_hal_flash_ex.c **** 
 132:../Drivers/STM32L4xx_HAL_Driver/Src/stm32l4xx_hal_flash_ex.c ****   /* Process Locked */
 133:../Drivers/STM32L4xx_HAL_Driver/Src/stm32l4xx_hal_flash_ex.c ****   __HAL_LOCK(&pFlash);
 134:../Drivers/STM32L4xx_HAL_Driver/Src/stm32l4xx_hal_flash_ex.c **** 
 135:../Drivers/STM32L4xx_HAL_Driver/Src/stm32l4xx_hal_flash_ex.c ****   /* Check the parameters */
 136:../Drivers/STM32L4xx_HAL_Driver/Src/stm32l4xx_hal_flash_ex.c ****   assert_param(IS_FLASH_TYPEERASE(pEraseInit->TypeErase));
 137:../Drivers/STM32L4xx_HAL_Driver/Src/stm32l4xx_hal_flash_ex.c **** 
 138:../Drivers/STM32L4xx_HAL_Driver/Src/stm32l4xx_hal_flash_ex.c ****   /* Wait for last operation to be completed */
 139:../Drivers/STM32L4xx_HAL_Driver/Src/stm32l4xx_hal_flash_ex.c ****   status = FLASH_WaitForLastOperation((uint32_t)FLASH_TIMEOUT_VALUE);
 140:../Drivers/STM32L4xx_HAL_Driver/Src/stm32l4xx_hal_flash_ex.c **** 
 141:../Drivers/STM32L4xx_HAL_Driver/Src/stm32l4xx_hal_flash_ex.c ****   if (status == HAL_OK)
 142:../Drivers/STM32L4xx_HAL_Driver/Src/stm32l4xx_hal_flash_ex.c ****   {
 143:../Drivers/STM32L4xx_HAL_Driver/Src/stm32l4xx_hal_flash_ex.c ****     pFlash.ErrorCode = HAL_FLASH_ERROR_NONE;
 144:../Drivers/STM32L4xx_HAL_Driver/Src/stm32l4xx_hal_flash_ex.c **** 
 145:../Drivers/STM32L4xx_HAL_Driver/Src/stm32l4xx_hal_flash_ex.c ****     /* Deactivate the cache if they are activated to avoid data misbehavior */
 146:../Drivers/STM32L4xx_HAL_Driver/Src/stm32l4xx_hal_flash_ex.c ****     if(READ_BIT(FLASH->ACR, FLASH_ACR_ICEN) != 0U)
ARM GAS  C:\Users\hoodc\AppData\Local\Temp\ccsNrQcU.s 			page 4


 147:../Drivers/STM32L4xx_HAL_Driver/Src/stm32l4xx_hal_flash_ex.c ****     {
 148:../Drivers/STM32L4xx_HAL_Driver/Src/stm32l4xx_hal_flash_ex.c ****       /* Disable instruction cache  */
 149:../Drivers/STM32L4xx_HAL_Driver/Src/stm32l4xx_hal_flash_ex.c ****       __HAL_FLASH_INSTRUCTION_CACHE_DISABLE();
 150:../Drivers/STM32L4xx_HAL_Driver/Src/stm32l4xx_hal_flash_ex.c **** 
 151:../Drivers/STM32L4xx_HAL_Driver/Src/stm32l4xx_hal_flash_ex.c ****       if(READ_BIT(FLASH->ACR, FLASH_ACR_DCEN) != 0U)
 152:../Drivers/STM32L4xx_HAL_Driver/Src/stm32l4xx_hal_flash_ex.c ****       {
 153:../Drivers/STM32L4xx_HAL_Driver/Src/stm32l4xx_hal_flash_ex.c ****         /* Disable data cache  */
 154:../Drivers/STM32L4xx_HAL_Driver/Src/stm32l4xx_hal_flash_ex.c ****         __HAL_FLASH_DATA_CACHE_DISABLE();
 155:../Drivers/STM32L4xx_HAL_Driver/Src/stm32l4xx_hal_flash_ex.c ****         pFlash.CacheToReactivate = FLASH_CACHE_ICACHE_DCACHE_ENABLED;
 156:../Drivers/STM32L4xx_HAL_Driver/Src/stm32l4xx_hal_flash_ex.c ****       }
 157:../Drivers/STM32L4xx_HAL_Driver/Src/stm32l4xx_hal_flash_ex.c ****       else
 158:../Drivers/STM32L4xx_HAL_Driver/Src/stm32l4xx_hal_flash_ex.c ****       {
 159:../Drivers/STM32L4xx_HAL_Driver/Src/stm32l4xx_hal_flash_ex.c ****         pFlash.CacheToReactivate = FLASH_CACHE_ICACHE_ENABLED;
 160:../Drivers/STM32L4xx_HAL_Driver/Src/stm32l4xx_hal_flash_ex.c ****       }
 161:../Drivers/STM32L4xx_HAL_Driver/Src/stm32l4xx_hal_flash_ex.c ****     }
 162:../Drivers/STM32L4xx_HAL_Driver/Src/stm32l4xx_hal_flash_ex.c ****     else if(READ_BIT(FLASH->ACR, FLASH_ACR_DCEN) != 0U)
 163:../Drivers/STM32L4xx_HAL_Driver/Src/stm32l4xx_hal_flash_ex.c ****     {
 164:../Drivers/STM32L4xx_HAL_Driver/Src/stm32l4xx_hal_flash_ex.c ****       /* Disable data cache  */
 165:../Drivers/STM32L4xx_HAL_Driver/Src/stm32l4xx_hal_flash_ex.c ****       __HAL_FLASH_DATA_CACHE_DISABLE();
 166:../Drivers/STM32L4xx_HAL_Driver/Src/stm32l4xx_hal_flash_ex.c ****       pFlash.CacheToReactivate = FLASH_CACHE_DCACHE_ENABLED;
 167:../Drivers/STM32L4xx_HAL_Driver/Src/stm32l4xx_hal_flash_ex.c ****     }
 168:../Drivers/STM32L4xx_HAL_Driver/Src/stm32l4xx_hal_flash_ex.c ****     else
 169:../Drivers/STM32L4xx_HAL_Driver/Src/stm32l4xx_hal_flash_ex.c ****     {
 170:../Drivers/STM32L4xx_HAL_Driver/Src/stm32l4xx_hal_flash_ex.c ****       pFlash.CacheToReactivate = FLASH_CACHE_DISABLED;
 171:../Drivers/STM32L4xx_HAL_Driver/Src/stm32l4xx_hal_flash_ex.c ****     }
 172:../Drivers/STM32L4xx_HAL_Driver/Src/stm32l4xx_hal_flash_ex.c **** 
 173:../Drivers/STM32L4xx_HAL_Driver/Src/stm32l4xx_hal_flash_ex.c ****     if (pEraseInit->TypeErase == FLASH_TYPEERASE_MASSERASE)
 174:../Drivers/STM32L4xx_HAL_Driver/Src/stm32l4xx_hal_flash_ex.c ****     {
 175:../Drivers/STM32L4xx_HAL_Driver/Src/stm32l4xx_hal_flash_ex.c ****       /* Mass erase to be done */
 176:../Drivers/STM32L4xx_HAL_Driver/Src/stm32l4xx_hal_flash_ex.c ****       FLASH_MassErase(pEraseInit->Banks);
 177:../Drivers/STM32L4xx_HAL_Driver/Src/stm32l4xx_hal_flash_ex.c **** 
 178:../Drivers/STM32L4xx_HAL_Driver/Src/stm32l4xx_hal_flash_ex.c ****       /* Wait for last operation to be completed */
 179:../Drivers/STM32L4xx_HAL_Driver/Src/stm32l4xx_hal_flash_ex.c ****       status = FLASH_WaitForLastOperation((uint32_t)FLASH_TIMEOUT_VALUE);
 180:../Drivers/STM32L4xx_HAL_Driver/Src/stm32l4xx_hal_flash_ex.c **** 
 181:../Drivers/STM32L4xx_HAL_Driver/Src/stm32l4xx_hal_flash_ex.c **** #if defined (STM32L471xx) || defined (STM32L475xx) || defined (STM32L476xx) || defined (STM32L485xx
 182:../Drivers/STM32L4xx_HAL_Driver/Src/stm32l4xx_hal_flash_ex.c ****     defined (STM32L496xx) || defined (STM32L4A6xx) || \
 183:../Drivers/STM32L4xx_HAL_Driver/Src/stm32l4xx_hal_flash_ex.c ****     defined (STM32L4P5xx) || defined (STM32L4Q5xx) || \
 184:../Drivers/STM32L4xx_HAL_Driver/Src/stm32l4xx_hal_flash_ex.c ****     defined (STM32L4R5xx) || defined (STM32L4R7xx) || defined (STM32L4R9xx) || defined (STM32L4S5xx
 185:../Drivers/STM32L4xx_HAL_Driver/Src/stm32l4xx_hal_flash_ex.c ****       /* If the erase operation is completed, disable the MER1 and MER2 Bits */
 186:../Drivers/STM32L4xx_HAL_Driver/Src/stm32l4xx_hal_flash_ex.c ****       CLEAR_BIT(FLASH->CR, (FLASH_CR_MER1 | FLASH_CR_MER2));
 187:../Drivers/STM32L4xx_HAL_Driver/Src/stm32l4xx_hal_flash_ex.c **** #else
 188:../Drivers/STM32L4xx_HAL_Driver/Src/stm32l4xx_hal_flash_ex.c ****       /* If the erase operation is completed, disable the MER1 Bit */
 189:../Drivers/STM32L4xx_HAL_Driver/Src/stm32l4xx_hal_flash_ex.c ****       CLEAR_BIT(FLASH->CR, (FLASH_CR_MER1));
 190:../Drivers/STM32L4xx_HAL_Driver/Src/stm32l4xx_hal_flash_ex.c **** #endif
 191:../Drivers/STM32L4xx_HAL_Driver/Src/stm32l4xx_hal_flash_ex.c ****     }
 192:../Drivers/STM32L4xx_HAL_Driver/Src/stm32l4xx_hal_flash_ex.c ****     else
 193:../Drivers/STM32L4xx_HAL_Driver/Src/stm32l4xx_hal_flash_ex.c ****     {
 194:../Drivers/STM32L4xx_HAL_Driver/Src/stm32l4xx_hal_flash_ex.c ****       /*Initialization of PageError variable*/
 195:../Drivers/STM32L4xx_HAL_Driver/Src/stm32l4xx_hal_flash_ex.c ****       *PageError = 0xFFFFFFFFU;
 196:../Drivers/STM32L4xx_HAL_Driver/Src/stm32l4xx_hal_flash_ex.c **** 
 197:../Drivers/STM32L4xx_HAL_Driver/Src/stm32l4xx_hal_flash_ex.c ****       for(page_index = pEraseInit->Page; page_index < (pEraseInit->Page + pEraseInit->NbPages); pag
 198:../Drivers/STM32L4xx_HAL_Driver/Src/stm32l4xx_hal_flash_ex.c ****       {
 199:../Drivers/STM32L4xx_HAL_Driver/Src/stm32l4xx_hal_flash_ex.c ****         FLASH_PageErase(page_index, pEraseInit->Banks);
 200:../Drivers/STM32L4xx_HAL_Driver/Src/stm32l4xx_hal_flash_ex.c **** 
 201:../Drivers/STM32L4xx_HAL_Driver/Src/stm32l4xx_hal_flash_ex.c ****         /* Wait for last operation to be completed */
 202:../Drivers/STM32L4xx_HAL_Driver/Src/stm32l4xx_hal_flash_ex.c ****         status = FLASH_WaitForLastOperation((uint32_t)FLASH_TIMEOUT_VALUE);
 203:../Drivers/STM32L4xx_HAL_Driver/Src/stm32l4xx_hal_flash_ex.c **** 
ARM GAS  C:\Users\hoodc\AppData\Local\Temp\ccsNrQcU.s 			page 5


 204:../Drivers/STM32L4xx_HAL_Driver/Src/stm32l4xx_hal_flash_ex.c ****         /* If the erase operation is completed, disable the PER Bit */
 205:../Drivers/STM32L4xx_HAL_Driver/Src/stm32l4xx_hal_flash_ex.c ****         CLEAR_BIT(FLASH->CR, (FLASH_CR_PER | FLASH_CR_PNB));
 206:../Drivers/STM32L4xx_HAL_Driver/Src/stm32l4xx_hal_flash_ex.c **** 
 207:../Drivers/STM32L4xx_HAL_Driver/Src/stm32l4xx_hal_flash_ex.c ****         if (status != HAL_OK)
 208:../Drivers/STM32L4xx_HAL_Driver/Src/stm32l4xx_hal_flash_ex.c ****         {
 209:../Drivers/STM32L4xx_HAL_Driver/Src/stm32l4xx_hal_flash_ex.c ****           /* In case of error, stop erase procedure and return the faulty address */
 210:../Drivers/STM32L4xx_HAL_Driver/Src/stm32l4xx_hal_flash_ex.c ****           *PageError = page_index;
 211:../Drivers/STM32L4xx_HAL_Driver/Src/stm32l4xx_hal_flash_ex.c ****           break;
 212:../Drivers/STM32L4xx_HAL_Driver/Src/stm32l4xx_hal_flash_ex.c ****         }
 213:../Drivers/STM32L4xx_HAL_Driver/Src/stm32l4xx_hal_flash_ex.c ****       }
 214:../Drivers/STM32L4xx_HAL_Driver/Src/stm32l4xx_hal_flash_ex.c ****     }
 215:../Drivers/STM32L4xx_HAL_Driver/Src/stm32l4xx_hal_flash_ex.c **** 
 216:../Drivers/STM32L4xx_HAL_Driver/Src/stm32l4xx_hal_flash_ex.c ****     /* Flush the caches to be sure of the data consistency */
 217:../Drivers/STM32L4xx_HAL_Driver/Src/stm32l4xx_hal_flash_ex.c ****     FLASH_FlushCaches();
 218:../Drivers/STM32L4xx_HAL_Driver/Src/stm32l4xx_hal_flash_ex.c ****   }
 219:../Drivers/STM32L4xx_HAL_Driver/Src/stm32l4xx_hal_flash_ex.c **** 
 220:../Drivers/STM32L4xx_HAL_Driver/Src/stm32l4xx_hal_flash_ex.c ****   /* Process Unlocked */
 221:../Drivers/STM32L4xx_HAL_Driver/Src/stm32l4xx_hal_flash_ex.c ****   __HAL_UNLOCK(&pFlash);
 222:../Drivers/STM32L4xx_HAL_Driver/Src/stm32l4xx_hal_flash_ex.c **** 
 223:../Drivers/STM32L4xx_HAL_Driver/Src/stm32l4xx_hal_flash_ex.c ****   return status;
 224:../Drivers/STM32L4xx_HAL_Driver/Src/stm32l4xx_hal_flash_ex.c **** }
 225:../Drivers/STM32L4xx_HAL_Driver/Src/stm32l4xx_hal_flash_ex.c **** 
 226:../Drivers/STM32L4xx_HAL_Driver/Src/stm32l4xx_hal_flash_ex.c **** /**
 227:../Drivers/STM32L4xx_HAL_Driver/Src/stm32l4xx_hal_flash_ex.c ****   * @brief  Perform a mass erase or erase the specified FLASH memory pages with interrupt enabled.
 228:../Drivers/STM32L4xx_HAL_Driver/Src/stm32l4xx_hal_flash_ex.c ****   * @param  pEraseInit pointer to an FLASH_EraseInitTypeDef structure that
 229:../Drivers/STM32L4xx_HAL_Driver/Src/stm32l4xx_hal_flash_ex.c ****   *         contains the configuration information for the erasing.
 230:../Drivers/STM32L4xx_HAL_Driver/Src/stm32l4xx_hal_flash_ex.c ****   *
 231:../Drivers/STM32L4xx_HAL_Driver/Src/stm32l4xx_hal_flash_ex.c ****   * @retval HAL Status
 232:../Drivers/STM32L4xx_HAL_Driver/Src/stm32l4xx_hal_flash_ex.c ****   */
 233:../Drivers/STM32L4xx_HAL_Driver/Src/stm32l4xx_hal_flash_ex.c **** HAL_StatusTypeDef HAL_FLASHEx_Erase_IT(FLASH_EraseInitTypeDef *pEraseInit)
 234:../Drivers/STM32L4xx_HAL_Driver/Src/stm32l4xx_hal_flash_ex.c **** {
 235:../Drivers/STM32L4xx_HAL_Driver/Src/stm32l4xx_hal_flash_ex.c ****   HAL_StatusTypeDef status = HAL_OK;
 236:../Drivers/STM32L4xx_HAL_Driver/Src/stm32l4xx_hal_flash_ex.c **** 
 237:../Drivers/STM32L4xx_HAL_Driver/Src/stm32l4xx_hal_flash_ex.c ****   /* Process Locked */
 238:../Drivers/STM32L4xx_HAL_Driver/Src/stm32l4xx_hal_flash_ex.c ****   __HAL_LOCK(&pFlash);
 239:../Drivers/STM32L4xx_HAL_Driver/Src/stm32l4xx_hal_flash_ex.c **** 
 240:../Drivers/STM32L4xx_HAL_Driver/Src/stm32l4xx_hal_flash_ex.c ****   /* Check the parameters */
 241:../Drivers/STM32L4xx_HAL_Driver/Src/stm32l4xx_hal_flash_ex.c ****   assert_param(IS_FLASH_TYPEERASE(pEraseInit->TypeErase));
 242:../Drivers/STM32L4xx_HAL_Driver/Src/stm32l4xx_hal_flash_ex.c **** 
 243:../Drivers/STM32L4xx_HAL_Driver/Src/stm32l4xx_hal_flash_ex.c ****   pFlash.ErrorCode = HAL_FLASH_ERROR_NONE;
 244:../Drivers/STM32L4xx_HAL_Driver/Src/stm32l4xx_hal_flash_ex.c **** 
 245:../Drivers/STM32L4xx_HAL_Driver/Src/stm32l4xx_hal_flash_ex.c ****   /* Deactivate the cache if they are activated to avoid data misbehavior */
 246:../Drivers/STM32L4xx_HAL_Driver/Src/stm32l4xx_hal_flash_ex.c ****   if(READ_BIT(FLASH->ACR, FLASH_ACR_ICEN) != 0U)
 247:../Drivers/STM32L4xx_HAL_Driver/Src/stm32l4xx_hal_flash_ex.c ****   {
 248:../Drivers/STM32L4xx_HAL_Driver/Src/stm32l4xx_hal_flash_ex.c ****     /* Disable instruction cache  */
 249:../Drivers/STM32L4xx_HAL_Driver/Src/stm32l4xx_hal_flash_ex.c ****     __HAL_FLASH_INSTRUCTION_CACHE_DISABLE();
 250:../Drivers/STM32L4xx_HAL_Driver/Src/stm32l4xx_hal_flash_ex.c **** 
 251:../Drivers/STM32L4xx_HAL_Driver/Src/stm32l4xx_hal_flash_ex.c ****     if(READ_BIT(FLASH->ACR, FLASH_ACR_DCEN) != 0U)
 252:../Drivers/STM32L4xx_HAL_Driver/Src/stm32l4xx_hal_flash_ex.c ****     {
 253:../Drivers/STM32L4xx_HAL_Driver/Src/stm32l4xx_hal_flash_ex.c ****       /* Disable data cache  */
 254:../Drivers/STM32L4xx_HAL_Driver/Src/stm32l4xx_hal_flash_ex.c ****       __HAL_FLASH_DATA_CACHE_DISABLE();
 255:../Drivers/STM32L4xx_HAL_Driver/Src/stm32l4xx_hal_flash_ex.c ****       pFlash.CacheToReactivate = FLASH_CACHE_ICACHE_DCACHE_ENABLED;
 256:../Drivers/STM32L4xx_HAL_Driver/Src/stm32l4xx_hal_flash_ex.c ****     }
 257:../Drivers/STM32L4xx_HAL_Driver/Src/stm32l4xx_hal_flash_ex.c ****     else
 258:../Drivers/STM32L4xx_HAL_Driver/Src/stm32l4xx_hal_flash_ex.c ****     {
 259:../Drivers/STM32L4xx_HAL_Driver/Src/stm32l4xx_hal_flash_ex.c ****       pFlash.CacheToReactivate = FLASH_CACHE_ICACHE_ENABLED;
 260:../Drivers/STM32L4xx_HAL_Driver/Src/stm32l4xx_hal_flash_ex.c ****     }
ARM GAS  C:\Users\hoodc\AppData\Local\Temp\ccsNrQcU.s 			page 6


 261:../Drivers/STM32L4xx_HAL_Driver/Src/stm32l4xx_hal_flash_ex.c ****   }
 262:../Drivers/STM32L4xx_HAL_Driver/Src/stm32l4xx_hal_flash_ex.c ****   else if(READ_BIT(FLASH->ACR, FLASH_ACR_DCEN) != 0U)
 263:../Drivers/STM32L4xx_HAL_Driver/Src/stm32l4xx_hal_flash_ex.c ****   {
 264:../Drivers/STM32L4xx_HAL_Driver/Src/stm32l4xx_hal_flash_ex.c ****     /* Disable data cache  */
 265:../Drivers/STM32L4xx_HAL_Driver/Src/stm32l4xx_hal_flash_ex.c ****     __HAL_FLASH_DATA_CACHE_DISABLE();
 266:../Drivers/STM32L4xx_HAL_Driver/Src/stm32l4xx_hal_flash_ex.c ****     pFlash.CacheToReactivate = FLASH_CACHE_DCACHE_ENABLED;
 267:../Drivers/STM32L4xx_HAL_Driver/Src/stm32l4xx_hal_flash_ex.c ****   }
 268:../Drivers/STM32L4xx_HAL_Driver/Src/stm32l4xx_hal_flash_ex.c ****   else
 269:../Drivers/STM32L4xx_HAL_Driver/Src/stm32l4xx_hal_flash_ex.c ****   {
 270:../Drivers/STM32L4xx_HAL_Driver/Src/stm32l4xx_hal_flash_ex.c ****     pFlash.CacheToReactivate = FLASH_CACHE_DISABLED;
 271:../Drivers/STM32L4xx_HAL_Driver/Src/stm32l4xx_hal_flash_ex.c ****   }
 272:../Drivers/STM32L4xx_HAL_Driver/Src/stm32l4xx_hal_flash_ex.c **** 
 273:../Drivers/STM32L4xx_HAL_Driver/Src/stm32l4xx_hal_flash_ex.c ****   /* Enable End of Operation and Error interrupts */
 274:../Drivers/STM32L4xx_HAL_Driver/Src/stm32l4xx_hal_flash_ex.c ****   __HAL_FLASH_ENABLE_IT(FLASH_IT_EOP | FLASH_IT_OPERR);
 275:../Drivers/STM32L4xx_HAL_Driver/Src/stm32l4xx_hal_flash_ex.c **** 
 276:../Drivers/STM32L4xx_HAL_Driver/Src/stm32l4xx_hal_flash_ex.c ****   pFlash.Bank = pEraseInit->Banks;
 277:../Drivers/STM32L4xx_HAL_Driver/Src/stm32l4xx_hal_flash_ex.c **** 
 278:../Drivers/STM32L4xx_HAL_Driver/Src/stm32l4xx_hal_flash_ex.c ****   if (pEraseInit->TypeErase == FLASH_TYPEERASE_MASSERASE)
 279:../Drivers/STM32L4xx_HAL_Driver/Src/stm32l4xx_hal_flash_ex.c ****   {
 280:../Drivers/STM32L4xx_HAL_Driver/Src/stm32l4xx_hal_flash_ex.c ****     /* Mass erase to be done */
 281:../Drivers/STM32L4xx_HAL_Driver/Src/stm32l4xx_hal_flash_ex.c ****     pFlash.ProcedureOnGoing = FLASH_PROC_MASS_ERASE;
 282:../Drivers/STM32L4xx_HAL_Driver/Src/stm32l4xx_hal_flash_ex.c ****     FLASH_MassErase(pEraseInit->Banks);
 283:../Drivers/STM32L4xx_HAL_Driver/Src/stm32l4xx_hal_flash_ex.c ****   }
 284:../Drivers/STM32L4xx_HAL_Driver/Src/stm32l4xx_hal_flash_ex.c ****   else
 285:../Drivers/STM32L4xx_HAL_Driver/Src/stm32l4xx_hal_flash_ex.c ****   {
 286:../Drivers/STM32L4xx_HAL_Driver/Src/stm32l4xx_hal_flash_ex.c ****     /* Erase by page to be done */
 287:../Drivers/STM32L4xx_HAL_Driver/Src/stm32l4xx_hal_flash_ex.c ****     pFlash.ProcedureOnGoing = FLASH_PROC_PAGE_ERASE;
 288:../Drivers/STM32L4xx_HAL_Driver/Src/stm32l4xx_hal_flash_ex.c ****     pFlash.NbPagesToErase = pEraseInit->NbPages;
 289:../Drivers/STM32L4xx_HAL_Driver/Src/stm32l4xx_hal_flash_ex.c ****     pFlash.Page = pEraseInit->Page;
 290:../Drivers/STM32L4xx_HAL_Driver/Src/stm32l4xx_hal_flash_ex.c **** 
 291:../Drivers/STM32L4xx_HAL_Driver/Src/stm32l4xx_hal_flash_ex.c ****     /*Erase 1st page and wait for IT */
 292:../Drivers/STM32L4xx_HAL_Driver/Src/stm32l4xx_hal_flash_ex.c ****     FLASH_PageErase(pEraseInit->Page, pEraseInit->Banks);
 293:../Drivers/STM32L4xx_HAL_Driver/Src/stm32l4xx_hal_flash_ex.c ****   }
 294:../Drivers/STM32L4xx_HAL_Driver/Src/stm32l4xx_hal_flash_ex.c **** 
 295:../Drivers/STM32L4xx_HAL_Driver/Src/stm32l4xx_hal_flash_ex.c ****   return status;
 296:../Drivers/STM32L4xx_HAL_Driver/Src/stm32l4xx_hal_flash_ex.c **** }
 297:../Drivers/STM32L4xx_HAL_Driver/Src/stm32l4xx_hal_flash_ex.c **** 
 298:../Drivers/STM32L4xx_HAL_Driver/Src/stm32l4xx_hal_flash_ex.c **** /**
 299:../Drivers/STM32L4xx_HAL_Driver/Src/stm32l4xx_hal_flash_ex.c ****   * @brief  Program Option bytes.
 300:../Drivers/STM32L4xx_HAL_Driver/Src/stm32l4xx_hal_flash_ex.c ****   * @param  pOBInit pointer to an FLASH_OBInitStruct structure that
 301:../Drivers/STM32L4xx_HAL_Driver/Src/stm32l4xx_hal_flash_ex.c ****   *         contains the configuration information for the programming.
 302:../Drivers/STM32L4xx_HAL_Driver/Src/stm32l4xx_hal_flash_ex.c ****   *
 303:../Drivers/STM32L4xx_HAL_Driver/Src/stm32l4xx_hal_flash_ex.c ****   * @retval HAL Status
 304:../Drivers/STM32L4xx_HAL_Driver/Src/stm32l4xx_hal_flash_ex.c ****   */
 305:../Drivers/STM32L4xx_HAL_Driver/Src/stm32l4xx_hal_flash_ex.c **** HAL_StatusTypeDef HAL_FLASHEx_OBProgram(FLASH_OBProgramInitTypeDef *pOBInit)
 306:../Drivers/STM32L4xx_HAL_Driver/Src/stm32l4xx_hal_flash_ex.c **** {
 307:../Drivers/STM32L4xx_HAL_Driver/Src/stm32l4xx_hal_flash_ex.c ****   HAL_StatusTypeDef status = HAL_OK;
 308:../Drivers/STM32L4xx_HAL_Driver/Src/stm32l4xx_hal_flash_ex.c **** 
 309:../Drivers/STM32L4xx_HAL_Driver/Src/stm32l4xx_hal_flash_ex.c ****   /* Process Locked */
 310:../Drivers/STM32L4xx_HAL_Driver/Src/stm32l4xx_hal_flash_ex.c ****   __HAL_LOCK(&pFlash);
 311:../Drivers/STM32L4xx_HAL_Driver/Src/stm32l4xx_hal_flash_ex.c **** 
 312:../Drivers/STM32L4xx_HAL_Driver/Src/stm32l4xx_hal_flash_ex.c ****   /* Check the parameters */
 313:../Drivers/STM32L4xx_HAL_Driver/Src/stm32l4xx_hal_flash_ex.c ****   assert_param(IS_OPTIONBYTE(pOBInit->OptionType));
 314:../Drivers/STM32L4xx_HAL_Driver/Src/stm32l4xx_hal_flash_ex.c **** 
 315:../Drivers/STM32L4xx_HAL_Driver/Src/stm32l4xx_hal_flash_ex.c ****   pFlash.ErrorCode = HAL_FLASH_ERROR_NONE;
 316:../Drivers/STM32L4xx_HAL_Driver/Src/stm32l4xx_hal_flash_ex.c **** 
 317:../Drivers/STM32L4xx_HAL_Driver/Src/stm32l4xx_hal_flash_ex.c ****   /* Write protection configuration */
ARM GAS  C:\Users\hoodc\AppData\Local\Temp\ccsNrQcU.s 			page 7


 318:../Drivers/STM32L4xx_HAL_Driver/Src/stm32l4xx_hal_flash_ex.c ****   if((pOBInit->OptionType & OPTIONBYTE_WRP) != 0U)
 319:../Drivers/STM32L4xx_HAL_Driver/Src/stm32l4xx_hal_flash_ex.c ****   {
 320:../Drivers/STM32L4xx_HAL_Driver/Src/stm32l4xx_hal_flash_ex.c ****     /* Configure of Write protection on the selected area */
 321:../Drivers/STM32L4xx_HAL_Driver/Src/stm32l4xx_hal_flash_ex.c ****     if(FLASH_OB_WRPConfig(pOBInit->WRPArea, pOBInit->WRPStartOffset, pOBInit->WRPEndOffset) != HAL_
 322:../Drivers/STM32L4xx_HAL_Driver/Src/stm32l4xx_hal_flash_ex.c ****     {
 323:../Drivers/STM32L4xx_HAL_Driver/Src/stm32l4xx_hal_flash_ex.c ****       status = HAL_ERROR;
 324:../Drivers/STM32L4xx_HAL_Driver/Src/stm32l4xx_hal_flash_ex.c ****     }
 325:../Drivers/STM32L4xx_HAL_Driver/Src/stm32l4xx_hal_flash_ex.c **** 
 326:../Drivers/STM32L4xx_HAL_Driver/Src/stm32l4xx_hal_flash_ex.c ****   }
 327:../Drivers/STM32L4xx_HAL_Driver/Src/stm32l4xx_hal_flash_ex.c **** 
 328:../Drivers/STM32L4xx_HAL_Driver/Src/stm32l4xx_hal_flash_ex.c ****   /* Read protection configuration */
 329:../Drivers/STM32L4xx_HAL_Driver/Src/stm32l4xx_hal_flash_ex.c ****   if((pOBInit->OptionType & OPTIONBYTE_RDP) != 0U)
 330:../Drivers/STM32L4xx_HAL_Driver/Src/stm32l4xx_hal_flash_ex.c ****   {
 331:../Drivers/STM32L4xx_HAL_Driver/Src/stm32l4xx_hal_flash_ex.c ****     /* Configure the Read protection level */
 332:../Drivers/STM32L4xx_HAL_Driver/Src/stm32l4xx_hal_flash_ex.c ****     if(FLASH_OB_RDPConfig(pOBInit->RDPLevel) != HAL_OK)
 333:../Drivers/STM32L4xx_HAL_Driver/Src/stm32l4xx_hal_flash_ex.c ****     {
 334:../Drivers/STM32L4xx_HAL_Driver/Src/stm32l4xx_hal_flash_ex.c ****       status = HAL_ERROR;
 335:../Drivers/STM32L4xx_HAL_Driver/Src/stm32l4xx_hal_flash_ex.c ****     }
 336:../Drivers/STM32L4xx_HAL_Driver/Src/stm32l4xx_hal_flash_ex.c ****   }
 337:../Drivers/STM32L4xx_HAL_Driver/Src/stm32l4xx_hal_flash_ex.c **** 
 338:../Drivers/STM32L4xx_HAL_Driver/Src/stm32l4xx_hal_flash_ex.c ****   /* User Configuration */
 339:../Drivers/STM32L4xx_HAL_Driver/Src/stm32l4xx_hal_flash_ex.c ****   if((pOBInit->OptionType & OPTIONBYTE_USER) != 0U)
 340:../Drivers/STM32L4xx_HAL_Driver/Src/stm32l4xx_hal_flash_ex.c ****   {
 341:../Drivers/STM32L4xx_HAL_Driver/Src/stm32l4xx_hal_flash_ex.c ****     /* Configure the user option bytes */
 342:../Drivers/STM32L4xx_HAL_Driver/Src/stm32l4xx_hal_flash_ex.c ****     if(FLASH_OB_UserConfig(pOBInit->USERType, pOBInit->USERConfig) != HAL_OK)
 343:../Drivers/STM32L4xx_HAL_Driver/Src/stm32l4xx_hal_flash_ex.c ****     {
 344:../Drivers/STM32L4xx_HAL_Driver/Src/stm32l4xx_hal_flash_ex.c ****       status = HAL_ERROR;
 345:../Drivers/STM32L4xx_HAL_Driver/Src/stm32l4xx_hal_flash_ex.c ****     }
 346:../Drivers/STM32L4xx_HAL_Driver/Src/stm32l4xx_hal_flash_ex.c ****   }
 347:../Drivers/STM32L4xx_HAL_Driver/Src/stm32l4xx_hal_flash_ex.c **** 
 348:../Drivers/STM32L4xx_HAL_Driver/Src/stm32l4xx_hal_flash_ex.c ****   /* PCROP Configuration */
 349:../Drivers/STM32L4xx_HAL_Driver/Src/stm32l4xx_hal_flash_ex.c ****   if((pOBInit->OptionType & OPTIONBYTE_PCROP) != 0U)
 350:../Drivers/STM32L4xx_HAL_Driver/Src/stm32l4xx_hal_flash_ex.c ****   {
 351:../Drivers/STM32L4xx_HAL_Driver/Src/stm32l4xx_hal_flash_ex.c ****     if (pOBInit->PCROPStartAddr != pOBInit->PCROPEndAddr)
 352:../Drivers/STM32L4xx_HAL_Driver/Src/stm32l4xx_hal_flash_ex.c ****     {
 353:../Drivers/STM32L4xx_HAL_Driver/Src/stm32l4xx_hal_flash_ex.c ****       /* Configure the Proprietary code readout protection */
 354:../Drivers/STM32L4xx_HAL_Driver/Src/stm32l4xx_hal_flash_ex.c ****       if(FLASH_OB_PCROPConfig(pOBInit->PCROPConfig, pOBInit->PCROPStartAddr, pOBInit->PCROPEndAddr)
 355:../Drivers/STM32L4xx_HAL_Driver/Src/stm32l4xx_hal_flash_ex.c ****       {
 356:../Drivers/STM32L4xx_HAL_Driver/Src/stm32l4xx_hal_flash_ex.c ****         status = HAL_ERROR;
 357:../Drivers/STM32L4xx_HAL_Driver/Src/stm32l4xx_hal_flash_ex.c ****       }
 358:../Drivers/STM32L4xx_HAL_Driver/Src/stm32l4xx_hal_flash_ex.c ****     }
 359:../Drivers/STM32L4xx_HAL_Driver/Src/stm32l4xx_hal_flash_ex.c ****   }
 360:../Drivers/STM32L4xx_HAL_Driver/Src/stm32l4xx_hal_flash_ex.c **** 
 361:../Drivers/STM32L4xx_HAL_Driver/Src/stm32l4xx_hal_flash_ex.c ****   /* Process Unlocked */
 362:../Drivers/STM32L4xx_HAL_Driver/Src/stm32l4xx_hal_flash_ex.c ****   __HAL_UNLOCK(&pFlash);
 363:../Drivers/STM32L4xx_HAL_Driver/Src/stm32l4xx_hal_flash_ex.c **** 
 364:../Drivers/STM32L4xx_HAL_Driver/Src/stm32l4xx_hal_flash_ex.c ****   return status;
 365:../Drivers/STM32L4xx_HAL_Driver/Src/stm32l4xx_hal_flash_ex.c **** }
 366:../Drivers/STM32L4xx_HAL_Driver/Src/stm32l4xx_hal_flash_ex.c **** 
 367:../Drivers/STM32L4xx_HAL_Driver/Src/stm32l4xx_hal_flash_ex.c **** /**
 368:../Drivers/STM32L4xx_HAL_Driver/Src/stm32l4xx_hal_flash_ex.c ****   * @brief  Get the Option bytes configuration.
 369:../Drivers/STM32L4xx_HAL_Driver/Src/stm32l4xx_hal_flash_ex.c ****   * @param  pOBInit pointer to an FLASH_OBInitStruct structure that contains the
 370:../Drivers/STM32L4xx_HAL_Driver/Src/stm32l4xx_hal_flash_ex.c ****   *                  configuration information.
 371:../Drivers/STM32L4xx_HAL_Driver/Src/stm32l4xx_hal_flash_ex.c ****   * @note   The fields pOBInit->WRPArea and pOBInit->PCROPConfig should indicate
 372:../Drivers/STM32L4xx_HAL_Driver/Src/stm32l4xx_hal_flash_ex.c ****   *         which area is requested for the WRP and PCROP, else no information will be returned
 373:../Drivers/STM32L4xx_HAL_Driver/Src/stm32l4xx_hal_flash_ex.c ****   *
 374:../Drivers/STM32L4xx_HAL_Driver/Src/stm32l4xx_hal_flash_ex.c ****   * @retval None
ARM GAS  C:\Users\hoodc\AppData\Local\Temp\ccsNrQcU.s 			page 8


 375:../Drivers/STM32L4xx_HAL_Driver/Src/stm32l4xx_hal_flash_ex.c ****   */
 376:../Drivers/STM32L4xx_HAL_Driver/Src/stm32l4xx_hal_flash_ex.c **** void HAL_FLASHEx_OBGetConfig(FLASH_OBProgramInitTypeDef *pOBInit)
 377:../Drivers/STM32L4xx_HAL_Driver/Src/stm32l4xx_hal_flash_ex.c **** {
 378:../Drivers/STM32L4xx_HAL_Driver/Src/stm32l4xx_hal_flash_ex.c ****   pOBInit->OptionType = (OPTIONBYTE_RDP | OPTIONBYTE_USER);
 379:../Drivers/STM32L4xx_HAL_Driver/Src/stm32l4xx_hal_flash_ex.c **** 
 380:../Drivers/STM32L4xx_HAL_Driver/Src/stm32l4xx_hal_flash_ex.c **** #if defined (STM32L471xx) || defined (STM32L475xx) || defined (STM32L476xx) || defined (STM32L485xx
 381:../Drivers/STM32L4xx_HAL_Driver/Src/stm32l4xx_hal_flash_ex.c ****     defined (STM32L496xx) || defined (STM32L4A6xx) || \
 382:../Drivers/STM32L4xx_HAL_Driver/Src/stm32l4xx_hal_flash_ex.c ****     defined (STM32L4P5xx) || defined (STM32L4Q5xx) || \
 383:../Drivers/STM32L4xx_HAL_Driver/Src/stm32l4xx_hal_flash_ex.c ****     defined (STM32L4R5xx) || defined (STM32L4R7xx) || defined (STM32L4R9xx) || defined (STM32L4S5xx
 384:../Drivers/STM32L4xx_HAL_Driver/Src/stm32l4xx_hal_flash_ex.c ****   if((pOBInit->WRPArea == OB_WRPAREA_BANK1_AREAA) || (pOBInit->WRPArea == OB_WRPAREA_BANK1_AREAB) |
 385:../Drivers/STM32L4xx_HAL_Driver/Src/stm32l4xx_hal_flash_ex.c ****      (pOBInit->WRPArea == OB_WRPAREA_BANK2_AREAA) || (pOBInit->WRPArea == OB_WRPAREA_BANK2_AREAB))
 386:../Drivers/STM32L4xx_HAL_Driver/Src/stm32l4xx_hal_flash_ex.c **** #else
 387:../Drivers/STM32L4xx_HAL_Driver/Src/stm32l4xx_hal_flash_ex.c ****   if((pOBInit->WRPArea == OB_WRPAREA_BANK1_AREAA) || (pOBInit->WRPArea == OB_WRPAREA_BANK1_AREAB))
 388:../Drivers/STM32L4xx_HAL_Driver/Src/stm32l4xx_hal_flash_ex.c **** #endif
 389:../Drivers/STM32L4xx_HAL_Driver/Src/stm32l4xx_hal_flash_ex.c ****   {
 390:../Drivers/STM32L4xx_HAL_Driver/Src/stm32l4xx_hal_flash_ex.c ****     pOBInit->OptionType |= OPTIONBYTE_WRP;
 391:../Drivers/STM32L4xx_HAL_Driver/Src/stm32l4xx_hal_flash_ex.c ****     /* Get write protection on the selected area */
 392:../Drivers/STM32L4xx_HAL_Driver/Src/stm32l4xx_hal_flash_ex.c ****     FLASH_OB_GetWRP(pOBInit->WRPArea, &(pOBInit->WRPStartOffset), &(pOBInit->WRPEndOffset));
 393:../Drivers/STM32L4xx_HAL_Driver/Src/stm32l4xx_hal_flash_ex.c ****   }
 394:../Drivers/STM32L4xx_HAL_Driver/Src/stm32l4xx_hal_flash_ex.c **** 
 395:../Drivers/STM32L4xx_HAL_Driver/Src/stm32l4xx_hal_flash_ex.c ****   /* Get Read protection level */
 396:../Drivers/STM32L4xx_HAL_Driver/Src/stm32l4xx_hal_flash_ex.c ****   pOBInit->RDPLevel = FLASH_OB_GetRDP();
 397:../Drivers/STM32L4xx_HAL_Driver/Src/stm32l4xx_hal_flash_ex.c **** 
 398:../Drivers/STM32L4xx_HAL_Driver/Src/stm32l4xx_hal_flash_ex.c ****   /* Get the user option bytes */
 399:../Drivers/STM32L4xx_HAL_Driver/Src/stm32l4xx_hal_flash_ex.c ****   pOBInit->USERConfig = FLASH_OB_GetUser();
 400:../Drivers/STM32L4xx_HAL_Driver/Src/stm32l4xx_hal_flash_ex.c **** 
 401:../Drivers/STM32L4xx_HAL_Driver/Src/stm32l4xx_hal_flash_ex.c **** #if defined (STM32L471xx) || defined (STM32L475xx) || defined (STM32L476xx) || defined (STM32L485xx
 402:../Drivers/STM32L4xx_HAL_Driver/Src/stm32l4xx_hal_flash_ex.c ****     defined (STM32L496xx) || defined (STM32L4A6xx) || \
 403:../Drivers/STM32L4xx_HAL_Driver/Src/stm32l4xx_hal_flash_ex.c ****     defined (STM32L4P5xx) || defined (STM32L4Q5xx) || \
 404:../Drivers/STM32L4xx_HAL_Driver/Src/stm32l4xx_hal_flash_ex.c ****     defined (STM32L4R5xx) || defined (STM32L4R7xx) || defined (STM32L4R9xx) || defined (STM32L4S5xx
 405:../Drivers/STM32L4xx_HAL_Driver/Src/stm32l4xx_hal_flash_ex.c ****   if((pOBInit->PCROPConfig == FLASH_BANK_1) || (pOBInit->PCROPConfig == FLASH_BANK_2))
 406:../Drivers/STM32L4xx_HAL_Driver/Src/stm32l4xx_hal_flash_ex.c **** #else
 407:../Drivers/STM32L4xx_HAL_Driver/Src/stm32l4xx_hal_flash_ex.c ****   if(pOBInit->PCROPConfig == FLASH_BANK_1)
 408:../Drivers/STM32L4xx_HAL_Driver/Src/stm32l4xx_hal_flash_ex.c **** #endif
 409:../Drivers/STM32L4xx_HAL_Driver/Src/stm32l4xx_hal_flash_ex.c ****   {
 410:../Drivers/STM32L4xx_HAL_Driver/Src/stm32l4xx_hal_flash_ex.c ****     pOBInit->OptionType |= OPTIONBYTE_PCROP;
 411:../Drivers/STM32L4xx_HAL_Driver/Src/stm32l4xx_hal_flash_ex.c ****     /* Get the Proprietary code readout protection */
 412:../Drivers/STM32L4xx_HAL_Driver/Src/stm32l4xx_hal_flash_ex.c ****     FLASH_OB_GetPCROP(&(pOBInit->PCROPConfig), &(pOBInit->PCROPStartAddr), &(pOBInit->PCROPEndAddr)
 413:../Drivers/STM32L4xx_HAL_Driver/Src/stm32l4xx_hal_flash_ex.c ****   }
 414:../Drivers/STM32L4xx_HAL_Driver/Src/stm32l4xx_hal_flash_ex.c **** }
 415:../Drivers/STM32L4xx_HAL_Driver/Src/stm32l4xx_hal_flash_ex.c **** 
 416:../Drivers/STM32L4xx_HAL_Driver/Src/stm32l4xx_hal_flash_ex.c **** /**
 417:../Drivers/STM32L4xx_HAL_Driver/Src/stm32l4xx_hal_flash_ex.c ****   * @}
 418:../Drivers/STM32L4xx_HAL_Driver/Src/stm32l4xx_hal_flash_ex.c ****   */
 419:../Drivers/STM32L4xx_HAL_Driver/Src/stm32l4xx_hal_flash_ex.c **** 
 420:../Drivers/STM32L4xx_HAL_Driver/Src/stm32l4xx_hal_flash_ex.c **** #if defined (FLASH_CFGR_LVEN)
 421:../Drivers/STM32L4xx_HAL_Driver/Src/stm32l4xx_hal_flash_ex.c **** /** @defgroup FLASHEx_Exported_Functions_Group2 Extended specific configuration functions
 422:../Drivers/STM32L4xx_HAL_Driver/Src/stm32l4xx_hal_flash_ex.c ****  *  @brief   Extended specific configuration functions
 423:../Drivers/STM32L4xx_HAL_Driver/Src/stm32l4xx_hal_flash_ex.c ****  *
 424:../Drivers/STM32L4xx_HAL_Driver/Src/stm32l4xx_hal_flash_ex.c **** @verbatim
 425:../Drivers/STM32L4xx_HAL_Driver/Src/stm32l4xx_hal_flash_ex.c ****  ===============================================================================
 426:../Drivers/STM32L4xx_HAL_Driver/Src/stm32l4xx_hal_flash_ex.c ****                 ##### Extended specific configuration functions #####
 427:../Drivers/STM32L4xx_HAL_Driver/Src/stm32l4xx_hal_flash_ex.c ****  ===============================================================================
 428:../Drivers/STM32L4xx_HAL_Driver/Src/stm32l4xx_hal_flash_ex.c ****     [..]
 429:../Drivers/STM32L4xx_HAL_Driver/Src/stm32l4xx_hal_flash_ex.c ****     This subsection provides a set of functions allowing to manage the Extended FLASH
 430:../Drivers/STM32L4xx_HAL_Driver/Src/stm32l4xx_hal_flash_ex.c ****     specific configurations.
 431:../Drivers/STM32L4xx_HAL_Driver/Src/stm32l4xx_hal_flash_ex.c **** 
ARM GAS  C:\Users\hoodc\AppData\Local\Temp\ccsNrQcU.s 			page 9


 432:../Drivers/STM32L4xx_HAL_Driver/Src/stm32l4xx_hal_flash_ex.c **** @endverbatim
 433:../Drivers/STM32L4xx_HAL_Driver/Src/stm32l4xx_hal_flash_ex.c ****   * @{
 434:../Drivers/STM32L4xx_HAL_Driver/Src/stm32l4xx_hal_flash_ex.c ****   */
 435:../Drivers/STM32L4xx_HAL_Driver/Src/stm32l4xx_hal_flash_ex.c **** 
 436:../Drivers/STM32L4xx_HAL_Driver/Src/stm32l4xx_hal_flash_ex.c **** /**
 437:../Drivers/STM32L4xx_HAL_Driver/Src/stm32l4xx_hal_flash_ex.c ****   * @brief  Configuration of the LVE pin of the Flash (managed by power controller
 438:../Drivers/STM32L4xx_HAL_Driver/Src/stm32l4xx_hal_flash_ex.c ****   *         or forced to low in order to use an external SMPS)
 439:../Drivers/STM32L4xx_HAL_Driver/Src/stm32l4xx_hal_flash_ex.c ****   * @param  ConfigLVE Configuration of the LVE pin,
 440:../Drivers/STM32L4xx_HAL_Driver/Src/stm32l4xx_hal_flash_ex.c ****   *              This parameter can be one of the following values:
 441:../Drivers/STM32L4xx_HAL_Driver/Src/stm32l4xx_hal_flash_ex.c ****   *                @arg FLASH_LVE_PIN_CTRL: LVE FLASH pin controlled by power controller
 442:../Drivers/STM32L4xx_HAL_Driver/Src/stm32l4xx_hal_flash_ex.c ****   *                @arg FLASH_LVE_PIN_FORCED: LVE FLASH pin enforced to low (external SMPS used)
 443:../Drivers/STM32L4xx_HAL_Driver/Src/stm32l4xx_hal_flash_ex.c ****   *
 444:../Drivers/STM32L4xx_HAL_Driver/Src/stm32l4xx_hal_flash_ex.c ****   * @note   Before enforcing the LVE pin to low, the SOC should be in low voltage
 445:../Drivers/STM32L4xx_HAL_Driver/Src/stm32l4xx_hal_flash_ex.c ****   *         range 2 and the voltage VDD12 should be higher than 1.08V and SMPS is ON.
 446:../Drivers/STM32L4xx_HAL_Driver/Src/stm32l4xx_hal_flash_ex.c ****   *
 447:../Drivers/STM32L4xx_HAL_Driver/Src/stm32l4xx_hal_flash_ex.c ****   * @retval HAL Status
 448:../Drivers/STM32L4xx_HAL_Driver/Src/stm32l4xx_hal_flash_ex.c ****   */
 449:../Drivers/STM32L4xx_HAL_Driver/Src/stm32l4xx_hal_flash_ex.c **** HAL_StatusTypeDef HAL_FLASHEx_ConfigLVEPin(uint32_t ConfigLVE)
 450:../Drivers/STM32L4xx_HAL_Driver/Src/stm32l4xx_hal_flash_ex.c **** {
 451:../Drivers/STM32L4xx_HAL_Driver/Src/stm32l4xx_hal_flash_ex.c ****   HAL_StatusTypeDef status;
 452:../Drivers/STM32L4xx_HAL_Driver/Src/stm32l4xx_hal_flash_ex.c **** 
 453:../Drivers/STM32L4xx_HAL_Driver/Src/stm32l4xx_hal_flash_ex.c ****   /* Process Locked */
 454:../Drivers/STM32L4xx_HAL_Driver/Src/stm32l4xx_hal_flash_ex.c ****   __HAL_LOCK(&pFlash);
 455:../Drivers/STM32L4xx_HAL_Driver/Src/stm32l4xx_hal_flash_ex.c **** 
 456:../Drivers/STM32L4xx_HAL_Driver/Src/stm32l4xx_hal_flash_ex.c ****   /* Check the parameters */
 457:../Drivers/STM32L4xx_HAL_Driver/Src/stm32l4xx_hal_flash_ex.c ****   assert_param(IS_FLASH_LVE_PIN(ConfigLVE));
 458:../Drivers/STM32L4xx_HAL_Driver/Src/stm32l4xx_hal_flash_ex.c **** 
 459:../Drivers/STM32L4xx_HAL_Driver/Src/stm32l4xx_hal_flash_ex.c ****   /* Wait for last operation to be completed */
 460:../Drivers/STM32L4xx_HAL_Driver/Src/stm32l4xx_hal_flash_ex.c ****   status = FLASH_WaitForLastOperation((uint32_t)FLASH_TIMEOUT_VALUE);
 461:../Drivers/STM32L4xx_HAL_Driver/Src/stm32l4xx_hal_flash_ex.c **** 
 462:../Drivers/STM32L4xx_HAL_Driver/Src/stm32l4xx_hal_flash_ex.c ****   if (status == HAL_OK)
 463:../Drivers/STM32L4xx_HAL_Driver/Src/stm32l4xx_hal_flash_ex.c ****   {
 464:../Drivers/STM32L4xx_HAL_Driver/Src/stm32l4xx_hal_flash_ex.c ****     /* Check that the voltage scaling is range 2 */
 465:../Drivers/STM32L4xx_HAL_Driver/Src/stm32l4xx_hal_flash_ex.c ****     if (HAL_PWREx_GetVoltageRange() == PWR_REGULATOR_VOLTAGE_SCALE2)
 466:../Drivers/STM32L4xx_HAL_Driver/Src/stm32l4xx_hal_flash_ex.c ****     {
 467:../Drivers/STM32L4xx_HAL_Driver/Src/stm32l4xx_hal_flash_ex.c ****       /* Configure the LVEN bit */
 468:../Drivers/STM32L4xx_HAL_Driver/Src/stm32l4xx_hal_flash_ex.c ****       MODIFY_REG(FLASH->CFGR, FLASH_CFGR_LVEN, ConfigLVE);
 469:../Drivers/STM32L4xx_HAL_Driver/Src/stm32l4xx_hal_flash_ex.c **** 
 470:../Drivers/STM32L4xx_HAL_Driver/Src/stm32l4xx_hal_flash_ex.c ****       /* Check that the bit has been correctly configured */
 471:../Drivers/STM32L4xx_HAL_Driver/Src/stm32l4xx_hal_flash_ex.c ****       if (READ_BIT(FLASH->CFGR, FLASH_CFGR_LVEN) != ConfigLVE)
 472:../Drivers/STM32L4xx_HAL_Driver/Src/stm32l4xx_hal_flash_ex.c ****       {
 473:../Drivers/STM32L4xx_HAL_Driver/Src/stm32l4xx_hal_flash_ex.c ****         status = HAL_ERROR;
 474:../Drivers/STM32L4xx_HAL_Driver/Src/stm32l4xx_hal_flash_ex.c ****       }
 475:../Drivers/STM32L4xx_HAL_Driver/Src/stm32l4xx_hal_flash_ex.c ****     }
 476:../Drivers/STM32L4xx_HAL_Driver/Src/stm32l4xx_hal_flash_ex.c ****     else
 477:../Drivers/STM32L4xx_HAL_Driver/Src/stm32l4xx_hal_flash_ex.c ****     {
 478:../Drivers/STM32L4xx_HAL_Driver/Src/stm32l4xx_hal_flash_ex.c ****       /* Not allow to force Flash LVE pin if not in voltage range 2 */
 479:../Drivers/STM32L4xx_HAL_Driver/Src/stm32l4xx_hal_flash_ex.c ****       status = HAL_ERROR;
 480:../Drivers/STM32L4xx_HAL_Driver/Src/stm32l4xx_hal_flash_ex.c ****     }
 481:../Drivers/STM32L4xx_HAL_Driver/Src/stm32l4xx_hal_flash_ex.c ****   }
 482:../Drivers/STM32L4xx_HAL_Driver/Src/stm32l4xx_hal_flash_ex.c **** 
 483:../Drivers/STM32L4xx_HAL_Driver/Src/stm32l4xx_hal_flash_ex.c ****   /* Process Unlocked */
 484:../Drivers/STM32L4xx_HAL_Driver/Src/stm32l4xx_hal_flash_ex.c ****   __HAL_UNLOCK(&pFlash);
 485:../Drivers/STM32L4xx_HAL_Driver/Src/stm32l4xx_hal_flash_ex.c **** 
 486:../Drivers/STM32L4xx_HAL_Driver/Src/stm32l4xx_hal_flash_ex.c ****   return status;
 487:../Drivers/STM32L4xx_HAL_Driver/Src/stm32l4xx_hal_flash_ex.c **** }
 488:../Drivers/STM32L4xx_HAL_Driver/Src/stm32l4xx_hal_flash_ex.c **** 
ARM GAS  C:\Users\hoodc\AppData\Local\Temp\ccsNrQcU.s 			page 10


 489:../Drivers/STM32L4xx_HAL_Driver/Src/stm32l4xx_hal_flash_ex.c **** /**
 490:../Drivers/STM32L4xx_HAL_Driver/Src/stm32l4xx_hal_flash_ex.c ****   * @}
 491:../Drivers/STM32L4xx_HAL_Driver/Src/stm32l4xx_hal_flash_ex.c ****   */
 492:../Drivers/STM32L4xx_HAL_Driver/Src/stm32l4xx_hal_flash_ex.c **** #endif /* FLASH_CFGR_LVEN */
 493:../Drivers/STM32L4xx_HAL_Driver/Src/stm32l4xx_hal_flash_ex.c **** 
 494:../Drivers/STM32L4xx_HAL_Driver/Src/stm32l4xx_hal_flash_ex.c **** /**
 495:../Drivers/STM32L4xx_HAL_Driver/Src/stm32l4xx_hal_flash_ex.c ****   * @}
 496:../Drivers/STM32L4xx_HAL_Driver/Src/stm32l4xx_hal_flash_ex.c ****   */
 497:../Drivers/STM32L4xx_HAL_Driver/Src/stm32l4xx_hal_flash_ex.c **** 
 498:../Drivers/STM32L4xx_HAL_Driver/Src/stm32l4xx_hal_flash_ex.c **** /* Private functions ---------------------------------------------------------*/
 499:../Drivers/STM32L4xx_HAL_Driver/Src/stm32l4xx_hal_flash_ex.c **** 
 500:../Drivers/STM32L4xx_HAL_Driver/Src/stm32l4xx_hal_flash_ex.c **** /** @addtogroup FLASHEx_Private_Functions
 501:../Drivers/STM32L4xx_HAL_Driver/Src/stm32l4xx_hal_flash_ex.c ****   * @{
 502:../Drivers/STM32L4xx_HAL_Driver/Src/stm32l4xx_hal_flash_ex.c ****   */
 503:../Drivers/STM32L4xx_HAL_Driver/Src/stm32l4xx_hal_flash_ex.c **** /**
 504:../Drivers/STM32L4xx_HAL_Driver/Src/stm32l4xx_hal_flash_ex.c ****   * @brief  Mass erase of FLASH memory.
 505:../Drivers/STM32L4xx_HAL_Driver/Src/stm32l4xx_hal_flash_ex.c ****   * @param  Banks Banks to be erased
 506:../Drivers/STM32L4xx_HAL_Driver/Src/stm32l4xx_hal_flash_ex.c ****   *          This parameter can be one of the following values:
 507:../Drivers/STM32L4xx_HAL_Driver/Src/stm32l4xx_hal_flash_ex.c ****   *            @arg FLASH_BANK_1: Bank1 to be erased
 508:../Drivers/STM32L4xx_HAL_Driver/Src/stm32l4xx_hal_flash_ex.c ****   *            @arg FLASH_BANK_2: Bank2 to be erased
 509:../Drivers/STM32L4xx_HAL_Driver/Src/stm32l4xx_hal_flash_ex.c ****   *            @arg FLASH_BANK_BOTH: Bank1 and Bank2 to be erased
 510:../Drivers/STM32L4xx_HAL_Driver/Src/stm32l4xx_hal_flash_ex.c ****   * @retval None
 511:../Drivers/STM32L4xx_HAL_Driver/Src/stm32l4xx_hal_flash_ex.c ****   */
 512:../Drivers/STM32L4xx_HAL_Driver/Src/stm32l4xx_hal_flash_ex.c **** static void FLASH_MassErase(uint32_t Banks)
 513:../Drivers/STM32L4xx_HAL_Driver/Src/stm32l4xx_hal_flash_ex.c **** {
  26              		.loc 1 513 1 view -0
  27              		.cfi_startproc
  28              		@ args = 0, pretend = 0, frame = 0
  29              		@ frame_needed = 0, uses_anonymous_args = 0
  30              		@ link register save eliminated.
 514:../Drivers/STM32L4xx_HAL_Driver/Src/stm32l4xx_hal_flash_ex.c **** #if defined (STM32L4P5xx) || defined (STM32L4Q5xx) || defined (STM32L4R5xx) || defined (STM32L4R7xx
 515:../Drivers/STM32L4xx_HAL_Driver/Src/stm32l4xx_hal_flash_ex.c ****   if (READ_BIT(FLASH->OPTR, FLASH_OPTR_DBANK) != 0U)
 516:../Drivers/STM32L4xx_HAL_Driver/Src/stm32l4xx_hal_flash_ex.c **** #endif
 517:../Drivers/STM32L4xx_HAL_Driver/Src/stm32l4xx_hal_flash_ex.c ****   {
 518:../Drivers/STM32L4xx_HAL_Driver/Src/stm32l4xx_hal_flash_ex.c ****     /* Check the parameters */
 519:../Drivers/STM32L4xx_HAL_Driver/Src/stm32l4xx_hal_flash_ex.c ****     assert_param(IS_FLASH_BANK(Banks));
  31              		.loc 1 519 5 view .LVU1
 520:../Drivers/STM32L4xx_HAL_Driver/Src/stm32l4xx_hal_flash_ex.c **** 
 521:../Drivers/STM32L4xx_HAL_Driver/Src/stm32l4xx_hal_flash_ex.c ****     /* Set the Mass Erase Bit for the bank 1 if requested */
 522:../Drivers/STM32L4xx_HAL_Driver/Src/stm32l4xx_hal_flash_ex.c ****     if((Banks & FLASH_BANK_1) != 0U)
  32              		.loc 1 522 5 view .LVU2
  33              		.loc 1 522 7 is_stmt 0 view .LVU3
  34 0000 10F0010F 		tst	r0, #1
  35 0004 04D0     		beq	.L2
 523:../Drivers/STM32L4xx_HAL_Driver/Src/stm32l4xx_hal_flash_ex.c ****     {
 524:../Drivers/STM32L4xx_HAL_Driver/Src/stm32l4xx_hal_flash_ex.c ****       SET_BIT(FLASH->CR, FLASH_CR_MER1);
  36              		.loc 1 524 7 is_stmt 1 view .LVU4
  37 0006 054A     		ldr	r2, .L3
  38 0008 5369     		ldr	r3, [r2, #20]
  39 000a 43F00403 		orr	r3, r3, #4
  40 000e 5361     		str	r3, [r2, #20]
  41              	.L2:
 525:../Drivers/STM32L4xx_HAL_Driver/Src/stm32l4xx_hal_flash_ex.c ****     }
 526:../Drivers/STM32L4xx_HAL_Driver/Src/stm32l4xx_hal_flash_ex.c **** 
 527:../Drivers/STM32L4xx_HAL_Driver/Src/stm32l4xx_hal_flash_ex.c **** #if defined (STM32L471xx) || defined (STM32L475xx) || defined (STM32L476xx) || defined (STM32L485xx
 528:../Drivers/STM32L4xx_HAL_Driver/Src/stm32l4xx_hal_flash_ex.c ****     defined (STM32L496xx) || defined (STM32L4A6xx) || \
 529:../Drivers/STM32L4xx_HAL_Driver/Src/stm32l4xx_hal_flash_ex.c ****     defined (STM32L4P5xx) || defined (STM32L4Q5xx) || \
ARM GAS  C:\Users\hoodc\AppData\Local\Temp\ccsNrQcU.s 			page 11


 530:../Drivers/STM32L4xx_HAL_Driver/Src/stm32l4xx_hal_flash_ex.c ****     defined (STM32L4R5xx) || defined (STM32L4R7xx) || defined (STM32L4R9xx) || defined (STM32L4S5xx
 531:../Drivers/STM32L4xx_HAL_Driver/Src/stm32l4xx_hal_flash_ex.c ****     /* Set the Mass Erase Bit for the bank 2 if requested */
 532:../Drivers/STM32L4xx_HAL_Driver/Src/stm32l4xx_hal_flash_ex.c ****     if((Banks & FLASH_BANK_2) != 0U)
 533:../Drivers/STM32L4xx_HAL_Driver/Src/stm32l4xx_hal_flash_ex.c ****     {
 534:../Drivers/STM32L4xx_HAL_Driver/Src/stm32l4xx_hal_flash_ex.c ****       SET_BIT(FLASH->CR, FLASH_CR_MER2);
 535:../Drivers/STM32L4xx_HAL_Driver/Src/stm32l4xx_hal_flash_ex.c ****     }
 536:../Drivers/STM32L4xx_HAL_Driver/Src/stm32l4xx_hal_flash_ex.c **** #endif
 537:../Drivers/STM32L4xx_HAL_Driver/Src/stm32l4xx_hal_flash_ex.c ****   }
 538:../Drivers/STM32L4xx_HAL_Driver/Src/stm32l4xx_hal_flash_ex.c **** #if defined (STM32L4P5xx) || defined (STM32L4Q5xx) || defined (STM32L4R5xx) || defined (STM32L4R7xx
 539:../Drivers/STM32L4xx_HAL_Driver/Src/stm32l4xx_hal_flash_ex.c ****   else
 540:../Drivers/STM32L4xx_HAL_Driver/Src/stm32l4xx_hal_flash_ex.c ****   {
 541:../Drivers/STM32L4xx_HAL_Driver/Src/stm32l4xx_hal_flash_ex.c ****     SET_BIT(FLASH->CR, (FLASH_CR_MER1 | FLASH_CR_MER2));
 542:../Drivers/STM32L4xx_HAL_Driver/Src/stm32l4xx_hal_flash_ex.c ****   }
 543:../Drivers/STM32L4xx_HAL_Driver/Src/stm32l4xx_hal_flash_ex.c **** #endif
 544:../Drivers/STM32L4xx_HAL_Driver/Src/stm32l4xx_hal_flash_ex.c **** 
 545:../Drivers/STM32L4xx_HAL_Driver/Src/stm32l4xx_hal_flash_ex.c ****   /* Proceed to erase all sectors */
 546:../Drivers/STM32L4xx_HAL_Driver/Src/stm32l4xx_hal_flash_ex.c ****   SET_BIT(FLASH->CR, FLASH_CR_STRT);
  42              		.loc 1 546 3 view .LVU5
  43 0010 024A     		ldr	r2, .L3
  44 0012 5369     		ldr	r3, [r2, #20]
  45 0014 43F48033 		orr	r3, r3, #65536
  46 0018 5361     		str	r3, [r2, #20]
 547:../Drivers/STM32L4xx_HAL_Driver/Src/stm32l4xx_hal_flash_ex.c **** }
  47              		.loc 1 547 1 is_stmt 0 view .LVU6
  48 001a 7047     		bx	lr
  49              	.L4:
  50              		.align	2
  51              	.L3:
  52 001c 00200240 		.word	1073881088
  53              		.cfi_endproc
  54              	.LFE137:
  55              		.size	FLASH_MassErase, .-FLASH_MassErase
  56              		.align	1
  57              		.global	HAL_FLASHEx_OBProgram
  58              		.syntax unified
  59              		.thumb
  60              		.thumb_func
  61              		.fpu softvfp
  62              		.type	HAL_FLASHEx_OBProgram, %function
  63              	HAL_FLASHEx_OBProgram:
  64              	.LVL1:
  65              	.LFB135:
 306:../Drivers/STM32L4xx_HAL_Driver/Src/stm32l4xx_hal_flash_ex.c ****   HAL_StatusTypeDef status = HAL_OK;
  66              		.loc 1 306 1 is_stmt 1 view -0
  67              		.cfi_startproc
  68              		@ args = 0, pretend = 0, frame = 0
  69              		@ frame_needed = 0, uses_anonymous_args = 0
 306:../Drivers/STM32L4xx_HAL_Driver/Src/stm32l4xx_hal_flash_ex.c ****   HAL_StatusTypeDef status = HAL_OK;
  70              		.loc 1 306 1 is_stmt 0 view .LVU8
  71 0020 2DE9F041 		push	{r4, r5, r6, r7, r8, lr}
  72              	.LCFI0:
  73              		.cfi_def_cfa_offset 24
  74              		.cfi_offset 4, -24
  75              		.cfi_offset 5, -20
  76              		.cfi_offset 6, -16
  77              		.cfi_offset 7, -12
  78              		.cfi_offset 8, -8
ARM GAS  C:\Users\hoodc\AppData\Local\Temp\ccsNrQcU.s 			page 12


  79              		.cfi_offset 14, -4
  80 0024 0446     		mov	r4, r0
 307:../Drivers/STM32L4xx_HAL_Driver/Src/stm32l4xx_hal_flash_ex.c **** 
  81              		.loc 1 307 3 is_stmt 1 view .LVU9
  82              	.LVL2:
 310:../Drivers/STM32L4xx_HAL_Driver/Src/stm32l4xx_hal_flash_ex.c **** 
  83              		.loc 1 310 3 view .LVU10
 310:../Drivers/STM32L4xx_HAL_Driver/Src/stm32l4xx_hal_flash_ex.c **** 
  84              		.loc 1 310 3 view .LVU11
  85 0026 9D4B     		ldr	r3, .L39
  86 0028 1B78     		ldrb	r3, [r3]	@ zero_extendqisi2
  87 002a 012B     		cmp	r3, #1
  88 002c 00F03381 		beq	.L28
 310:../Drivers/STM32L4xx_HAL_Driver/Src/stm32l4xx_hal_flash_ex.c **** 
  89              		.loc 1 310 3 discriminator 2 view .LVU12
  90 0030 9A4B     		ldr	r3, .L39
  91 0032 0122     		movs	r2, #1
  92 0034 1A70     		strb	r2, [r3]
 310:../Drivers/STM32L4xx_HAL_Driver/Src/stm32l4xx_hal_flash_ex.c **** 
  93              		.loc 1 310 3 discriminator 2 view .LVU13
 313:../Drivers/STM32L4xx_HAL_Driver/Src/stm32l4xx_hal_flash_ex.c **** 
  94              		.loc 1 313 3 discriminator 2 view .LVU14
 315:../Drivers/STM32L4xx_HAL_Driver/Src/stm32l4xx_hal_flash_ex.c **** 
  95              		.loc 1 315 3 discriminator 2 view .LVU15
 315:../Drivers/STM32L4xx_HAL_Driver/Src/stm32l4xx_hal_flash_ex.c **** 
  96              		.loc 1 315 20 is_stmt 0 discriminator 2 view .LVU16
  97 0036 0022     		movs	r2, #0
  98 0038 5A60     		str	r2, [r3, #4]
 318:../Drivers/STM32L4xx_HAL_Driver/Src/stm32l4xx_hal_flash_ex.c ****   {
  99              		.loc 1 318 3 is_stmt 1 discriminator 2 view .LVU17
 318:../Drivers/STM32L4xx_HAL_Driver/Src/stm32l4xx_hal_flash_ex.c ****   {
 100              		.loc 1 318 27 is_stmt 0 discriminator 2 view .LVU18
 101 003a 0368     		ldr	r3, [r0]
 318:../Drivers/STM32L4xx_HAL_Driver/Src/stm32l4xx_hal_flash_ex.c ****   {
 102              		.loc 1 318 5 discriminator 2 view .LVU19
 103 003c 13F0010F 		tst	r3, #1
 104 0040 17D1     		bne	.L34
 307:../Drivers/STM32L4xx_HAL_Driver/Src/stm32l4xx_hal_flash_ex.c **** 
 105              		.loc 1 307 21 view .LVU20
 106 0042 0025     		movs	r5, #0
 107              	.LVL3:
 108              	.L7:
 329:../Drivers/STM32L4xx_HAL_Driver/Src/stm32l4xx_hal_flash_ex.c ****   {
 109              		.loc 1 329 3 is_stmt 1 view .LVU21
 329:../Drivers/STM32L4xx_HAL_Driver/Src/stm32l4xx_hal_flash_ex.c ****   {
 110              		.loc 1 329 27 is_stmt 0 view .LVU22
 111 0044 2368     		ldr	r3, [r4]
 329:../Drivers/STM32L4xx_HAL_Driver/Src/stm32l4xx_hal_flash_ex.c ****   {
 112              		.loc 1 329 5 view .LVU23
 113 0046 13F0020F 		tst	r3, #2
 114 004a 44D1     		bne	.L35
 115              	.LVL4:
 116              	.L11:
 339:../Drivers/STM32L4xx_HAL_Driver/Src/stm32l4xx_hal_flash_ex.c ****   {
 117              		.loc 1 339 3 is_stmt 1 view .LVU24
 339:../Drivers/STM32L4xx_HAL_Driver/Src/stm32l4xx_hal_flash_ex.c ****   {
 118              		.loc 1 339 27 is_stmt 0 view .LVU25
ARM GAS  C:\Users\hoodc\AppData\Local\Temp\ccsNrQcU.s 			page 13


 119 004c 2368     		ldr	r3, [r4]
 339:../Drivers/STM32L4xx_HAL_Driver/Src/stm32l4xx_hal_flash_ex.c ****   {
 120              		.loc 1 339 5 view .LVU26
 121 004e 13F0040F 		tst	r3, #4
 122 0052 5ED1     		bne	.L36
 123              	.LVL5:
 124              	.L12:
 349:../Drivers/STM32L4xx_HAL_Driver/Src/stm32l4xx_hal_flash_ex.c ****   {
 125              		.loc 1 349 3 is_stmt 1 view .LVU27
 349:../Drivers/STM32L4xx_HAL_Driver/Src/stm32l4xx_hal_flash_ex.c ****   {
 126              		.loc 1 349 27 is_stmt 0 view .LVU28
 127 0054 2368     		ldr	r3, [r4]
 349:../Drivers/STM32L4xx_HAL_Driver/Src/stm32l4xx_hal_flash_ex.c ****   {
 128              		.loc 1 349 5 view .LVU29
 129 0056 13F0080F 		tst	r3, #8
 130 005a 04D0     		beq	.L26
 351:../Drivers/STM32L4xx_HAL_Driver/Src/stm32l4xx_hal_flash_ex.c ****     {
 131              		.loc 1 351 5 is_stmt 1 view .LVU30
 351:../Drivers/STM32L4xx_HAL_Driver/Src/stm32l4xx_hal_flash_ex.c ****     {
 132              		.loc 1 351 16 is_stmt 0 view .LVU31
 133 005c 276A     		ldr	r7, [r4, #32]
 351:../Drivers/STM32L4xx_HAL_Driver/Src/stm32l4xx_hal_flash_ex.c ****     {
 134              		.loc 1 351 43 view .LVU32
 135 005e 666A     		ldr	r6, [r4, #36]
 351:../Drivers/STM32L4xx_HAL_Driver/Src/stm32l4xx_hal_flash_ex.c ****     {
 136              		.loc 1 351 8 view .LVU33
 137 0060 B742     		cmp	r7, r6
 138 0062 40F0DE80 		bne	.L37
 139              	.LVL6:
 140              	.L26:
 362:../Drivers/STM32L4xx_HAL_Driver/Src/stm32l4xx_hal_flash_ex.c **** 
 141              		.loc 1 362 3 is_stmt 1 view .LVU34
 362:../Drivers/STM32L4xx_HAL_Driver/Src/stm32l4xx_hal_flash_ex.c **** 
 142              		.loc 1 362 3 view .LVU35
 143 0066 8D4B     		ldr	r3, .L39
 144 0068 0022     		movs	r2, #0
 145 006a 1A70     		strb	r2, [r3]
 362:../Drivers/STM32L4xx_HAL_Driver/Src/stm32l4xx_hal_flash_ex.c **** 
 146              		.loc 1 362 3 view .LVU36
 364:../Drivers/STM32L4xx_HAL_Driver/Src/stm32l4xx_hal_flash_ex.c **** }
 147              		.loc 1 364 3 view .LVU37
 148              	.LVL7:
 149              	.L6:
 365:../Drivers/STM32L4xx_HAL_Driver/Src/stm32l4xx_hal_flash_ex.c **** 
 150              		.loc 1 365 1 is_stmt 0 view .LVU38
 151 006c 2846     		mov	r0, r5
 152 006e BDE8F081 		pop	{r4, r5, r6, r7, r8, pc}
 153              	.LVL8:
 154              	.L34:
 321:../Drivers/STM32L4xx_HAL_Driver/Src/stm32l4xx_hal_flash_ex.c ****     {
 155              		.loc 1 321 5 is_stmt 1 view .LVU39
 321:../Drivers/STM32L4xx_HAL_Driver/Src/stm32l4xx_hal_flash_ex.c ****     {
 156              		.loc 1 321 8 is_stmt 0 view .LVU40
 157 0072 4668     		ldr	r6, [r0, #4]
 158 0074 D0F80880 		ldr	r8, [r0, #8]
 159 0078 C768     		ldr	r7, [r0, #12]
 160              	.LVL9:
ARM GAS  C:\Users\hoodc\AppData\Local\Temp\ccsNrQcU.s 			page 14


 161              	.LBB10:
 162              	.LBI10:
 548:../Drivers/STM32L4xx_HAL_Driver/Src/stm32l4xx_hal_flash_ex.c **** 
 549:../Drivers/STM32L4xx_HAL_Driver/Src/stm32l4xx_hal_flash_ex.c **** /**
 550:../Drivers/STM32L4xx_HAL_Driver/Src/stm32l4xx_hal_flash_ex.c ****   * @brief  Erase the specified FLASH memory page.
 551:../Drivers/STM32L4xx_HAL_Driver/Src/stm32l4xx_hal_flash_ex.c ****   * @param  Page FLASH page to erase
 552:../Drivers/STM32L4xx_HAL_Driver/Src/stm32l4xx_hal_flash_ex.c ****   *         This parameter must be a value between 0 and (max number of pages in the bank - 1)
 553:../Drivers/STM32L4xx_HAL_Driver/Src/stm32l4xx_hal_flash_ex.c ****   * @param  Banks Bank(s) where the page will be erased
 554:../Drivers/STM32L4xx_HAL_Driver/Src/stm32l4xx_hal_flash_ex.c ****   *          This parameter can be one of the following values:
 555:../Drivers/STM32L4xx_HAL_Driver/Src/stm32l4xx_hal_flash_ex.c ****   *            @arg FLASH_BANK_1: Page in bank 1 to be erased
 556:../Drivers/STM32L4xx_HAL_Driver/Src/stm32l4xx_hal_flash_ex.c ****   *            @arg FLASH_BANK_2: Page in bank 2 to be erased
 557:../Drivers/STM32L4xx_HAL_Driver/Src/stm32l4xx_hal_flash_ex.c ****   * @retval None
 558:../Drivers/STM32L4xx_HAL_Driver/Src/stm32l4xx_hal_flash_ex.c ****   */
 559:../Drivers/STM32L4xx_HAL_Driver/Src/stm32l4xx_hal_flash_ex.c **** void FLASH_PageErase(uint32_t Page, uint32_t Banks)
 560:../Drivers/STM32L4xx_HAL_Driver/Src/stm32l4xx_hal_flash_ex.c **** {
 561:../Drivers/STM32L4xx_HAL_Driver/Src/stm32l4xx_hal_flash_ex.c ****   /* Check the parameters */
 562:../Drivers/STM32L4xx_HAL_Driver/Src/stm32l4xx_hal_flash_ex.c ****   assert_param(IS_FLASH_PAGE(Page));
 563:../Drivers/STM32L4xx_HAL_Driver/Src/stm32l4xx_hal_flash_ex.c **** 
 564:../Drivers/STM32L4xx_HAL_Driver/Src/stm32l4xx_hal_flash_ex.c **** #if defined (STM32L471xx) || defined (STM32L475xx) || defined (STM32L476xx) || defined (STM32L485xx
 565:../Drivers/STM32L4xx_HAL_Driver/Src/stm32l4xx_hal_flash_ex.c ****     defined (STM32L496xx) || defined (STM32L4A6xx) || \
 566:../Drivers/STM32L4xx_HAL_Driver/Src/stm32l4xx_hal_flash_ex.c ****     defined (STM32L4P5xx) || defined (STM32L4Q5xx) || \
 567:../Drivers/STM32L4xx_HAL_Driver/Src/stm32l4xx_hal_flash_ex.c ****     defined (STM32L4R5xx) || defined (STM32L4R7xx) || defined (STM32L4R9xx) || defined (STM32L4S5xx
 568:../Drivers/STM32L4xx_HAL_Driver/Src/stm32l4xx_hal_flash_ex.c **** #if defined (STM32L4P5xx) || defined (STM32L4Q5xx) || defined (STM32L4R5xx) || defined (STM32L4R7xx
 569:../Drivers/STM32L4xx_HAL_Driver/Src/stm32l4xx_hal_flash_ex.c ****   if(READ_BIT(FLASH->OPTR, FLASH_OPTR_DBANK) == 0U)
 570:../Drivers/STM32L4xx_HAL_Driver/Src/stm32l4xx_hal_flash_ex.c ****   {
 571:../Drivers/STM32L4xx_HAL_Driver/Src/stm32l4xx_hal_flash_ex.c ****     CLEAR_BIT(FLASH->CR, FLASH_CR_BKER);
 572:../Drivers/STM32L4xx_HAL_Driver/Src/stm32l4xx_hal_flash_ex.c ****   }
 573:../Drivers/STM32L4xx_HAL_Driver/Src/stm32l4xx_hal_flash_ex.c ****   else
 574:../Drivers/STM32L4xx_HAL_Driver/Src/stm32l4xx_hal_flash_ex.c **** #endif
 575:../Drivers/STM32L4xx_HAL_Driver/Src/stm32l4xx_hal_flash_ex.c ****   {
 576:../Drivers/STM32L4xx_HAL_Driver/Src/stm32l4xx_hal_flash_ex.c ****     assert_param(IS_FLASH_BANK_EXCLUSIVE(Banks));
 577:../Drivers/STM32L4xx_HAL_Driver/Src/stm32l4xx_hal_flash_ex.c **** 
 578:../Drivers/STM32L4xx_HAL_Driver/Src/stm32l4xx_hal_flash_ex.c ****     if((Banks & FLASH_BANK_1) != 0U)
 579:../Drivers/STM32L4xx_HAL_Driver/Src/stm32l4xx_hal_flash_ex.c ****     {
 580:../Drivers/STM32L4xx_HAL_Driver/Src/stm32l4xx_hal_flash_ex.c ****       CLEAR_BIT(FLASH->CR, FLASH_CR_BKER);
 581:../Drivers/STM32L4xx_HAL_Driver/Src/stm32l4xx_hal_flash_ex.c ****     }
 582:../Drivers/STM32L4xx_HAL_Driver/Src/stm32l4xx_hal_flash_ex.c ****     else
 583:../Drivers/STM32L4xx_HAL_Driver/Src/stm32l4xx_hal_flash_ex.c ****     {
 584:../Drivers/STM32L4xx_HAL_Driver/Src/stm32l4xx_hal_flash_ex.c ****       SET_BIT(FLASH->CR, FLASH_CR_BKER);
 585:../Drivers/STM32L4xx_HAL_Driver/Src/stm32l4xx_hal_flash_ex.c ****     }
 586:../Drivers/STM32L4xx_HAL_Driver/Src/stm32l4xx_hal_flash_ex.c ****   }
 587:../Drivers/STM32L4xx_HAL_Driver/Src/stm32l4xx_hal_flash_ex.c **** #else
 588:../Drivers/STM32L4xx_HAL_Driver/Src/stm32l4xx_hal_flash_ex.c ****   /* Prevent unused argument(s) compilation warning */
 589:../Drivers/STM32L4xx_HAL_Driver/Src/stm32l4xx_hal_flash_ex.c ****   UNUSED(Banks);
 590:../Drivers/STM32L4xx_HAL_Driver/Src/stm32l4xx_hal_flash_ex.c **** #endif
 591:../Drivers/STM32L4xx_HAL_Driver/Src/stm32l4xx_hal_flash_ex.c **** 
 592:../Drivers/STM32L4xx_HAL_Driver/Src/stm32l4xx_hal_flash_ex.c ****   /* Proceed to erase the page */
 593:../Drivers/STM32L4xx_HAL_Driver/Src/stm32l4xx_hal_flash_ex.c ****   MODIFY_REG(FLASH->CR, FLASH_CR_PNB, ((Page & 0xFFU) << FLASH_CR_PNB_Pos));
 594:../Drivers/STM32L4xx_HAL_Driver/Src/stm32l4xx_hal_flash_ex.c ****   SET_BIT(FLASH->CR, FLASH_CR_PER);
 595:../Drivers/STM32L4xx_HAL_Driver/Src/stm32l4xx_hal_flash_ex.c ****   SET_BIT(FLASH->CR, FLASH_CR_STRT);
 596:../Drivers/STM32L4xx_HAL_Driver/Src/stm32l4xx_hal_flash_ex.c **** }
 597:../Drivers/STM32L4xx_HAL_Driver/Src/stm32l4xx_hal_flash_ex.c **** 
 598:../Drivers/STM32L4xx_HAL_Driver/Src/stm32l4xx_hal_flash_ex.c **** /**
 599:../Drivers/STM32L4xx_HAL_Driver/Src/stm32l4xx_hal_flash_ex.c ****   * @brief  Flush the instruction and data caches.
 600:../Drivers/STM32L4xx_HAL_Driver/Src/stm32l4xx_hal_flash_ex.c ****   * @retval None
 601:../Drivers/STM32L4xx_HAL_Driver/Src/stm32l4xx_hal_flash_ex.c ****   */
 602:../Drivers/STM32L4xx_HAL_Driver/Src/stm32l4xx_hal_flash_ex.c **** void FLASH_FlushCaches(void)
ARM GAS  C:\Users\hoodc\AppData\Local\Temp\ccsNrQcU.s 			page 15


 603:../Drivers/STM32L4xx_HAL_Driver/Src/stm32l4xx_hal_flash_ex.c **** {
 604:../Drivers/STM32L4xx_HAL_Driver/Src/stm32l4xx_hal_flash_ex.c ****   FLASH_CacheTypeDef cache = pFlash.CacheToReactivate;
 605:../Drivers/STM32L4xx_HAL_Driver/Src/stm32l4xx_hal_flash_ex.c **** 
 606:../Drivers/STM32L4xx_HAL_Driver/Src/stm32l4xx_hal_flash_ex.c ****   /* Flush instruction cache  */
 607:../Drivers/STM32L4xx_HAL_Driver/Src/stm32l4xx_hal_flash_ex.c ****   if((cache == FLASH_CACHE_ICACHE_ENABLED) ||
 608:../Drivers/STM32L4xx_HAL_Driver/Src/stm32l4xx_hal_flash_ex.c ****      (cache == FLASH_CACHE_ICACHE_DCACHE_ENABLED))
 609:../Drivers/STM32L4xx_HAL_Driver/Src/stm32l4xx_hal_flash_ex.c ****   {
 610:../Drivers/STM32L4xx_HAL_Driver/Src/stm32l4xx_hal_flash_ex.c ****     /* Reset instruction cache */
 611:../Drivers/STM32L4xx_HAL_Driver/Src/stm32l4xx_hal_flash_ex.c ****     __HAL_FLASH_INSTRUCTION_CACHE_RESET();
 612:../Drivers/STM32L4xx_HAL_Driver/Src/stm32l4xx_hal_flash_ex.c ****     /* Enable instruction cache */
 613:../Drivers/STM32L4xx_HAL_Driver/Src/stm32l4xx_hal_flash_ex.c ****     __HAL_FLASH_INSTRUCTION_CACHE_ENABLE();
 614:../Drivers/STM32L4xx_HAL_Driver/Src/stm32l4xx_hal_flash_ex.c ****   }
 615:../Drivers/STM32L4xx_HAL_Driver/Src/stm32l4xx_hal_flash_ex.c **** 
 616:../Drivers/STM32L4xx_HAL_Driver/Src/stm32l4xx_hal_flash_ex.c ****   /* Flush data cache */
 617:../Drivers/STM32L4xx_HAL_Driver/Src/stm32l4xx_hal_flash_ex.c ****   if((cache == FLASH_CACHE_DCACHE_ENABLED) ||
 618:../Drivers/STM32L4xx_HAL_Driver/Src/stm32l4xx_hal_flash_ex.c ****      (cache == FLASH_CACHE_ICACHE_DCACHE_ENABLED))
 619:../Drivers/STM32L4xx_HAL_Driver/Src/stm32l4xx_hal_flash_ex.c ****   {
 620:../Drivers/STM32L4xx_HAL_Driver/Src/stm32l4xx_hal_flash_ex.c ****     /* Reset data cache */
 621:../Drivers/STM32L4xx_HAL_Driver/Src/stm32l4xx_hal_flash_ex.c ****     __HAL_FLASH_DATA_CACHE_RESET();
 622:../Drivers/STM32L4xx_HAL_Driver/Src/stm32l4xx_hal_flash_ex.c ****     /* Enable data cache */
 623:../Drivers/STM32L4xx_HAL_Driver/Src/stm32l4xx_hal_flash_ex.c ****     __HAL_FLASH_DATA_CACHE_ENABLE();
 624:../Drivers/STM32L4xx_HAL_Driver/Src/stm32l4xx_hal_flash_ex.c ****   }
 625:../Drivers/STM32L4xx_HAL_Driver/Src/stm32l4xx_hal_flash_ex.c **** 
 626:../Drivers/STM32L4xx_HAL_Driver/Src/stm32l4xx_hal_flash_ex.c ****   /* Reset internal variable */
 627:../Drivers/STM32L4xx_HAL_Driver/Src/stm32l4xx_hal_flash_ex.c ****   pFlash.CacheToReactivate = FLASH_CACHE_DISABLED;
 628:../Drivers/STM32L4xx_HAL_Driver/Src/stm32l4xx_hal_flash_ex.c **** }
 629:../Drivers/STM32L4xx_HAL_Driver/Src/stm32l4xx_hal_flash_ex.c **** 
 630:../Drivers/STM32L4xx_HAL_Driver/Src/stm32l4xx_hal_flash_ex.c **** /**
 631:../Drivers/STM32L4xx_HAL_Driver/Src/stm32l4xx_hal_flash_ex.c ****   * @brief  Configure the write protection of the desired pages.
 632:../Drivers/STM32L4xx_HAL_Driver/Src/stm32l4xx_hal_flash_ex.c ****   *
 633:../Drivers/STM32L4xx_HAL_Driver/Src/stm32l4xx_hal_flash_ex.c ****   * @note   When the memory read protection level is selected (RDP level = 1),
 634:../Drivers/STM32L4xx_HAL_Driver/Src/stm32l4xx_hal_flash_ex.c ****   *         it is not possible to program or erase Flash memory if the CPU debug
 635:../Drivers/STM32L4xx_HAL_Driver/Src/stm32l4xx_hal_flash_ex.c ****   *         features are connected (JTAG or single wire) or boot code is being
 636:../Drivers/STM32L4xx_HAL_Driver/Src/stm32l4xx_hal_flash_ex.c ****   *         executed from RAM or System flash, even if WRP is not activated.
 637:../Drivers/STM32L4xx_HAL_Driver/Src/stm32l4xx_hal_flash_ex.c ****   * @note   To configure the WRP options, the option lock bit OPTLOCK must be
 638:../Drivers/STM32L4xx_HAL_Driver/Src/stm32l4xx_hal_flash_ex.c ****   *         cleared with the call of the HAL_FLASH_OB_Unlock() function.
 639:../Drivers/STM32L4xx_HAL_Driver/Src/stm32l4xx_hal_flash_ex.c ****   * @note   To validate the WRP options, the option bytes must be reloaded
 640:../Drivers/STM32L4xx_HAL_Driver/Src/stm32l4xx_hal_flash_ex.c ****   *         through the call of the HAL_FLASH_OB_Launch() function.
 641:../Drivers/STM32L4xx_HAL_Driver/Src/stm32l4xx_hal_flash_ex.c ****   *
 642:../Drivers/STM32L4xx_HAL_Driver/Src/stm32l4xx_hal_flash_ex.c ****   * @param  WRPArea specifies the area to be configured.
 643:../Drivers/STM32L4xx_HAL_Driver/Src/stm32l4xx_hal_flash_ex.c ****   *          This parameter can be one of the following values:
 644:../Drivers/STM32L4xx_HAL_Driver/Src/stm32l4xx_hal_flash_ex.c ****   *            @arg OB_WRPAREA_BANK1_AREAA: Flash Bank 1 Area A
 645:../Drivers/STM32L4xx_HAL_Driver/Src/stm32l4xx_hal_flash_ex.c ****   *            @arg OB_WRPAREA_BANK1_AREAB: Flash Bank 1 Area B
 646:../Drivers/STM32L4xx_HAL_Driver/Src/stm32l4xx_hal_flash_ex.c ****   *            @arg OB_WRPAREA_BANK2_AREAA: Flash Bank 2 Area A  (don't apply for STM32L43x/STM32L4
 647:../Drivers/STM32L4xx_HAL_Driver/Src/stm32l4xx_hal_flash_ex.c ****   *            @arg OB_WRPAREA_BANK2_AREAB: Flash Bank 2 Area B  (don't apply for STM32L43x/STM32L4
 648:../Drivers/STM32L4xx_HAL_Driver/Src/stm32l4xx_hal_flash_ex.c ****   *
 649:../Drivers/STM32L4xx_HAL_Driver/Src/stm32l4xx_hal_flash_ex.c ****   * @param  WRPStartOffset specifies the start page of the write protected area
 650:../Drivers/STM32L4xx_HAL_Driver/Src/stm32l4xx_hal_flash_ex.c ****   *          This parameter can be page number between 0 and (max number of pages in the bank - 1)
 651:../Drivers/STM32L4xx_HAL_Driver/Src/stm32l4xx_hal_flash_ex.c ****   *
 652:../Drivers/STM32L4xx_HAL_Driver/Src/stm32l4xx_hal_flash_ex.c ****   * @param  WRDPEndOffset specifies the end page of the write protected area
 653:../Drivers/STM32L4xx_HAL_Driver/Src/stm32l4xx_hal_flash_ex.c ****   *          This parameter can be page number between WRPStartOffset and (max number of pages in t
 654:../Drivers/STM32L4xx_HAL_Driver/Src/stm32l4xx_hal_flash_ex.c ****   *
 655:../Drivers/STM32L4xx_HAL_Driver/Src/stm32l4xx_hal_flash_ex.c ****   * @retval HAL Status
 656:../Drivers/STM32L4xx_HAL_Driver/Src/stm32l4xx_hal_flash_ex.c ****   */
 657:../Drivers/STM32L4xx_HAL_Driver/Src/stm32l4xx_hal_flash_ex.c **** static HAL_StatusTypeDef FLASH_OB_WRPConfig(uint32_t WRPArea, uint32_t WRPStartOffset, uint32_t WRD
 163              		.loc 1 657 26 is_stmt 1 view .LVU41
 164              	.LBB11:
ARM GAS  C:\Users\hoodc\AppData\Local\Temp\ccsNrQcU.s 			page 16


 658:../Drivers/STM32L4xx_HAL_Driver/Src/stm32l4xx_hal_flash_ex.c **** {
 659:../Drivers/STM32L4xx_HAL_Driver/Src/stm32l4xx_hal_flash_ex.c ****   HAL_StatusTypeDef status;
 165              		.loc 1 659 3 view .LVU42
 660:../Drivers/STM32L4xx_HAL_Driver/Src/stm32l4xx_hal_flash_ex.c **** 
 661:../Drivers/STM32L4xx_HAL_Driver/Src/stm32l4xx_hal_flash_ex.c ****   /* Check the parameters */
 662:../Drivers/STM32L4xx_HAL_Driver/Src/stm32l4xx_hal_flash_ex.c ****   assert_param(IS_OB_WRPAREA(WRPArea));
 166              		.loc 1 662 3 view .LVU43
 663:../Drivers/STM32L4xx_HAL_Driver/Src/stm32l4xx_hal_flash_ex.c ****   assert_param(IS_FLASH_PAGE(WRPStartOffset));
 167              		.loc 1 663 3 view .LVU44
 664:../Drivers/STM32L4xx_HAL_Driver/Src/stm32l4xx_hal_flash_ex.c ****   assert_param(IS_FLASH_PAGE(WRDPEndOffset));
 168              		.loc 1 664 3 view .LVU45
 665:../Drivers/STM32L4xx_HAL_Driver/Src/stm32l4xx_hal_flash_ex.c **** 
 666:../Drivers/STM32L4xx_HAL_Driver/Src/stm32l4xx_hal_flash_ex.c ****   /* Wait for last operation to be completed */
 667:../Drivers/STM32L4xx_HAL_Driver/Src/stm32l4xx_hal_flash_ex.c ****   status = FLASH_WaitForLastOperation((uint32_t)FLASH_TIMEOUT_VALUE);
 169              		.loc 1 667 3 view .LVU46
 170              		.loc 1 667 12 is_stmt 0 view .LVU47
 171 007a 4CF25030 		movw	r0, #50000
 172              	.LVL10:
 173              		.loc 1 667 12 view .LVU48
 174 007e FFF7FEFF 		bl	FLASH_WaitForLastOperation
 175              	.LVL11:
 668:../Drivers/STM32L4xx_HAL_Driver/Src/stm32l4xx_hal_flash_ex.c **** 
 669:../Drivers/STM32L4xx_HAL_Driver/Src/stm32l4xx_hal_flash_ex.c ****   if(status == HAL_OK)
 176              		.loc 1 669 3 is_stmt 1 view .LVU49
 177              		.loc 1 669 5 is_stmt 0 view .LVU50
 178 0082 0546     		mov	r5, r0
 179 0084 B8B9     		cbnz	r0, .L8
 670:../Drivers/STM32L4xx_HAL_Driver/Src/stm32l4xx_hal_flash_ex.c ****   {
 671:../Drivers/STM32L4xx_HAL_Driver/Src/stm32l4xx_hal_flash_ex.c ****     /* Configure the write protected area */
 672:../Drivers/STM32L4xx_HAL_Driver/Src/stm32l4xx_hal_flash_ex.c ****     if(WRPArea == OB_WRPAREA_BANK1_AREAA)
 180              		.loc 1 672 5 is_stmt 1 view .LVU51
 181              		.loc 1 672 7 is_stmt 0 view .LVU52
 182 0086 D6B9     		cbnz	r6, .L9
 673:../Drivers/STM32L4xx_HAL_Driver/Src/stm32l4xx_hal_flash_ex.c ****     {
 674:../Drivers/STM32L4xx_HAL_Driver/Src/stm32l4xx_hal_flash_ex.c ****       MODIFY_REG(FLASH->WRP1AR, (FLASH_WRP1AR_WRP1A_STRT | FLASH_WRP1AR_WRP1A_END),
 183              		.loc 1 674 7 is_stmt 1 view .LVU53
 184 0088 854A     		ldr	r2, .L39+4
 185 008a D36A     		ldr	r3, [r2, #44]
 186 008c 23F03F13 		bic	r3, r3, #4128831
 187 0090 43EA0803 		orr	r3, r3, r8
 188 0094 43EA0743 		orr	r3, r3, r7, lsl #16
 189 0098 D362     		str	r3, [r2, #44]
 190              	.L10:
 675:../Drivers/STM32L4xx_HAL_Driver/Src/stm32l4xx_hal_flash_ex.c ****                  (WRPStartOffset | (WRDPEndOffset << 16)));
 676:../Drivers/STM32L4xx_HAL_Driver/Src/stm32l4xx_hal_flash_ex.c ****     }
 677:../Drivers/STM32L4xx_HAL_Driver/Src/stm32l4xx_hal_flash_ex.c ****     else if(WRPArea == OB_WRPAREA_BANK1_AREAB)
 678:../Drivers/STM32L4xx_HAL_Driver/Src/stm32l4xx_hal_flash_ex.c ****     {
 679:../Drivers/STM32L4xx_HAL_Driver/Src/stm32l4xx_hal_flash_ex.c ****       MODIFY_REG(FLASH->WRP1BR, (FLASH_WRP1BR_WRP1B_STRT | FLASH_WRP1BR_WRP1B_END),
 680:../Drivers/STM32L4xx_HAL_Driver/Src/stm32l4xx_hal_flash_ex.c ****                  (WRPStartOffset | (WRDPEndOffset << 16)));
 681:../Drivers/STM32L4xx_HAL_Driver/Src/stm32l4xx_hal_flash_ex.c ****     }
 682:../Drivers/STM32L4xx_HAL_Driver/Src/stm32l4xx_hal_flash_ex.c **** #if defined (STM32L471xx) || defined (STM32L475xx) || defined (STM32L476xx) || defined (STM32L485xx
 683:../Drivers/STM32L4xx_HAL_Driver/Src/stm32l4xx_hal_flash_ex.c ****     defined (STM32L496xx) || defined (STM32L4A6xx) || \
 684:../Drivers/STM32L4xx_HAL_Driver/Src/stm32l4xx_hal_flash_ex.c ****     defined (STM32L4P5xx) || defined (STM32L4Q5xx) || \
 685:../Drivers/STM32L4xx_HAL_Driver/Src/stm32l4xx_hal_flash_ex.c ****     defined (STM32L4R5xx) || defined (STM32L4R7xx) || defined (STM32L4R9xx) || defined (STM32L4S5xx
 686:../Drivers/STM32L4xx_HAL_Driver/Src/stm32l4xx_hal_flash_ex.c ****     else if(WRPArea == OB_WRPAREA_BANK2_AREAA)
 687:../Drivers/STM32L4xx_HAL_Driver/Src/stm32l4xx_hal_flash_ex.c ****     {
 688:../Drivers/STM32L4xx_HAL_Driver/Src/stm32l4xx_hal_flash_ex.c ****       MODIFY_REG(FLASH->WRP2AR, (FLASH_WRP2AR_WRP2A_STRT | FLASH_WRP2AR_WRP2A_END),
ARM GAS  C:\Users\hoodc\AppData\Local\Temp\ccsNrQcU.s 			page 17


 689:../Drivers/STM32L4xx_HAL_Driver/Src/stm32l4xx_hal_flash_ex.c ****                  (WRPStartOffset | (WRDPEndOffset << 16)));
 690:../Drivers/STM32L4xx_HAL_Driver/Src/stm32l4xx_hal_flash_ex.c ****     }
 691:../Drivers/STM32L4xx_HAL_Driver/Src/stm32l4xx_hal_flash_ex.c ****     else if(WRPArea == OB_WRPAREA_BANK2_AREAB)
 692:../Drivers/STM32L4xx_HAL_Driver/Src/stm32l4xx_hal_flash_ex.c ****     {
 693:../Drivers/STM32L4xx_HAL_Driver/Src/stm32l4xx_hal_flash_ex.c ****       MODIFY_REG(FLASH->WRP2BR, (FLASH_WRP2BR_WRP2B_STRT | FLASH_WRP2BR_WRP2B_END),
 694:../Drivers/STM32L4xx_HAL_Driver/Src/stm32l4xx_hal_flash_ex.c ****                  (WRPStartOffset | (WRDPEndOffset << 16)));
 695:../Drivers/STM32L4xx_HAL_Driver/Src/stm32l4xx_hal_flash_ex.c ****     }
 696:../Drivers/STM32L4xx_HAL_Driver/Src/stm32l4xx_hal_flash_ex.c **** #endif
 697:../Drivers/STM32L4xx_HAL_Driver/Src/stm32l4xx_hal_flash_ex.c ****     else
 698:../Drivers/STM32L4xx_HAL_Driver/Src/stm32l4xx_hal_flash_ex.c ****     {
 699:../Drivers/STM32L4xx_HAL_Driver/Src/stm32l4xx_hal_flash_ex.c ****       /* Nothing to do */
 700:../Drivers/STM32L4xx_HAL_Driver/Src/stm32l4xx_hal_flash_ex.c ****     }
 191              		.loc 1 700 5 view .LVU54
 701:../Drivers/STM32L4xx_HAL_Driver/Src/stm32l4xx_hal_flash_ex.c **** 
 702:../Drivers/STM32L4xx_HAL_Driver/Src/stm32l4xx_hal_flash_ex.c ****     /* Set OPTSTRT Bit */
 703:../Drivers/STM32L4xx_HAL_Driver/Src/stm32l4xx_hal_flash_ex.c ****     SET_BIT(FLASH->CR, FLASH_CR_OPTSTRT);
 192              		.loc 1 703 5 view .LVU55
 193 009a 814E     		ldr	r6, .L39+4
 194              	.LVL12:
 195              		.loc 1 703 5 is_stmt 0 view .LVU56
 196 009c 7369     		ldr	r3, [r6, #20]
 197 009e 43F40033 		orr	r3, r3, #131072
 198 00a2 7361     		str	r3, [r6, #20]
 704:../Drivers/STM32L4xx_HAL_Driver/Src/stm32l4xx_hal_flash_ex.c **** 
 705:../Drivers/STM32L4xx_HAL_Driver/Src/stm32l4xx_hal_flash_ex.c ****     /* Wait for last operation to be completed */
 706:../Drivers/STM32L4xx_HAL_Driver/Src/stm32l4xx_hal_flash_ex.c ****     status = FLASH_WaitForLastOperation((uint32_t)FLASH_TIMEOUT_VALUE);
 199              		.loc 1 706 5 is_stmt 1 view .LVU57
 200              		.loc 1 706 14 is_stmt 0 view .LVU58
 201 00a4 4CF25030 		movw	r0, #50000
 202              	.LVL13:
 203              		.loc 1 706 14 view .LVU59
 204 00a8 FFF7FEFF 		bl	FLASH_WaitForLastOperation
 205              	.LVL14:
 206 00ac 0546     		mov	r5, r0
 207              	.LVL15:
 707:../Drivers/STM32L4xx_HAL_Driver/Src/stm32l4xx_hal_flash_ex.c **** 
 708:../Drivers/STM32L4xx_HAL_Driver/Src/stm32l4xx_hal_flash_ex.c ****     /* If the option byte program operation is completed, disable the OPTSTRT Bit */
 709:../Drivers/STM32L4xx_HAL_Driver/Src/stm32l4xx_hal_flash_ex.c ****     CLEAR_BIT(FLASH->CR, FLASH_CR_OPTSTRT);
 208              		.loc 1 709 5 is_stmt 1 view .LVU60
 209 00ae 7369     		ldr	r3, [r6, #20]
 210 00b0 23F40033 		bic	r3, r3, #131072
 211 00b4 7361     		str	r3, [r6, #20]
 212              	.LVL16:
 213              	.L8:
 710:../Drivers/STM32L4xx_HAL_Driver/Src/stm32l4xx_hal_flash_ex.c ****   }
 711:../Drivers/STM32L4xx_HAL_Driver/Src/stm32l4xx_hal_flash_ex.c **** 
 712:../Drivers/STM32L4xx_HAL_Driver/Src/stm32l4xx_hal_flash_ex.c ****   return status;
 214              		.loc 1 712 3 view .LVU61
 215              		.loc 1 712 3 is_stmt 0 view .LVU62
 216              	.LBE11:
 217              	.LBE10:
 307:../Drivers/STM32L4xx_HAL_Driver/Src/stm32l4xx_hal_flash_ex.c **** 
 218              		.loc 1 307 21 view .LVU63
 219 00b6 003D     		subs	r5, r5, #0
 220 00b8 18BF     		it	ne
 221 00ba 0125     		movne	r5, #1
 222 00bc C2E7     		b	.L7
ARM GAS  C:\Users\hoodc\AppData\Local\Temp\ccsNrQcU.s 			page 18


 223              	.LVL17:
 224              	.L9:
 225              	.LBB13:
 226              	.LBB12:
 677:../Drivers/STM32L4xx_HAL_Driver/Src/stm32l4xx_hal_flash_ex.c ****     {
 227              		.loc 1 677 10 is_stmt 1 view .LVU64
 677:../Drivers/STM32L4xx_HAL_Driver/Src/stm32l4xx_hal_flash_ex.c ****     {
 228              		.loc 1 677 12 is_stmt 0 view .LVU65
 229 00be 012E     		cmp	r6, #1
 230 00c0 EBD1     		bne	.L10
 679:../Drivers/STM32L4xx_HAL_Driver/Src/stm32l4xx_hal_flash_ex.c ****                  (WRPStartOffset | (WRDPEndOffset << 16)));
 231              		.loc 1 679 7 is_stmt 1 view .LVU66
 232 00c2 774A     		ldr	r2, .L39+4
 233 00c4 136B     		ldr	r3, [r2, #48]
 234 00c6 23F03F13 		bic	r3, r3, #4128831
 235 00ca 43EA0803 		orr	r3, r3, r8
 236 00ce 43EA0743 		orr	r3, r3, r7, lsl #16
 237 00d2 1363     		str	r3, [r2, #48]
 238 00d4 E1E7     		b	.L10
 239              	.LVL18:
 240              	.L35:
 679:../Drivers/STM32L4xx_HAL_Driver/Src/stm32l4xx_hal_flash_ex.c ****                  (WRPStartOffset | (WRDPEndOffset << 16)));
 241              		.loc 1 679 7 is_stmt 0 view .LVU67
 242              	.LBE12:
 243              	.LBE13:
 332:../Drivers/STM32L4xx_HAL_Driver/Src/stm32l4xx_hal_flash_ex.c ****     {
 244              		.loc 1 332 5 is_stmt 1 view .LVU68
 332:../Drivers/STM32L4xx_HAL_Driver/Src/stm32l4xx_hal_flash_ex.c ****     {
 245              		.loc 1 332 8 is_stmt 0 view .LVU69
 246 00d6 2769     		ldr	r7, [r4, #16]
 247              	.LVL19:
 248              	.LBB14:
 249              	.LBI14:
 713:../Drivers/STM32L4xx_HAL_Driver/Src/stm32l4xx_hal_flash_ex.c **** }
 714:../Drivers/STM32L4xx_HAL_Driver/Src/stm32l4xx_hal_flash_ex.c **** 
 715:../Drivers/STM32L4xx_HAL_Driver/Src/stm32l4xx_hal_flash_ex.c **** /**
 716:../Drivers/STM32L4xx_HAL_Driver/Src/stm32l4xx_hal_flash_ex.c ****   * @brief  Set the read protection level.
 717:../Drivers/STM32L4xx_HAL_Driver/Src/stm32l4xx_hal_flash_ex.c ****   *
 718:../Drivers/STM32L4xx_HAL_Driver/Src/stm32l4xx_hal_flash_ex.c ****   * @note   To configure the RDP level, the option lock bit OPTLOCK must be
 719:../Drivers/STM32L4xx_HAL_Driver/Src/stm32l4xx_hal_flash_ex.c ****   *         cleared with the call of the HAL_FLASH_OB_Unlock() function.
 720:../Drivers/STM32L4xx_HAL_Driver/Src/stm32l4xx_hal_flash_ex.c ****   * @note   To validate the RDP level, the option bytes must be reloaded
 721:../Drivers/STM32L4xx_HAL_Driver/Src/stm32l4xx_hal_flash_ex.c ****   *         through the call of the HAL_FLASH_OB_Launch() function.
 722:../Drivers/STM32L4xx_HAL_Driver/Src/stm32l4xx_hal_flash_ex.c ****   * @note   !!! Warning : When enabling OB_RDP level 2 it's no more possible
 723:../Drivers/STM32L4xx_HAL_Driver/Src/stm32l4xx_hal_flash_ex.c ****   *         to go back to level 1 or 0 !!!
 724:../Drivers/STM32L4xx_HAL_Driver/Src/stm32l4xx_hal_flash_ex.c ****   *
 725:../Drivers/STM32L4xx_HAL_Driver/Src/stm32l4xx_hal_flash_ex.c ****   * @param  RDPLevel specifies the read protection level.
 726:../Drivers/STM32L4xx_HAL_Driver/Src/stm32l4xx_hal_flash_ex.c ****   *         This parameter can be one of the following values:
 727:../Drivers/STM32L4xx_HAL_Driver/Src/stm32l4xx_hal_flash_ex.c ****   *            @arg OB_RDP_LEVEL_0: No protection
 728:../Drivers/STM32L4xx_HAL_Driver/Src/stm32l4xx_hal_flash_ex.c ****   *            @arg OB_RDP_LEVEL_1: Read protection of the memory
 729:../Drivers/STM32L4xx_HAL_Driver/Src/stm32l4xx_hal_flash_ex.c ****   *            @arg OB_RDP_LEVEL_2: Full chip protection
 730:../Drivers/STM32L4xx_HAL_Driver/Src/stm32l4xx_hal_flash_ex.c ****   *
 731:../Drivers/STM32L4xx_HAL_Driver/Src/stm32l4xx_hal_flash_ex.c ****   * @retval HAL status
 732:../Drivers/STM32L4xx_HAL_Driver/Src/stm32l4xx_hal_flash_ex.c ****   */
 733:../Drivers/STM32L4xx_HAL_Driver/Src/stm32l4xx_hal_flash_ex.c **** static HAL_StatusTypeDef FLASH_OB_RDPConfig(uint32_t RDPLevel)
 250              		.loc 1 733 26 is_stmt 1 view .LVU70
 251              	.LBB15:
 734:../Drivers/STM32L4xx_HAL_Driver/Src/stm32l4xx_hal_flash_ex.c **** {
ARM GAS  C:\Users\hoodc\AppData\Local\Temp\ccsNrQcU.s 			page 19


 735:../Drivers/STM32L4xx_HAL_Driver/Src/stm32l4xx_hal_flash_ex.c ****   HAL_StatusTypeDef status;
 252              		.loc 1 735 3 view .LVU71
 736:../Drivers/STM32L4xx_HAL_Driver/Src/stm32l4xx_hal_flash_ex.c **** 
 737:../Drivers/STM32L4xx_HAL_Driver/Src/stm32l4xx_hal_flash_ex.c ****   /* Check the parameters */
 738:../Drivers/STM32L4xx_HAL_Driver/Src/stm32l4xx_hal_flash_ex.c ****   assert_param(IS_OB_RDP_LEVEL(RDPLevel));
 253              		.loc 1 738 3 view .LVU72
 739:../Drivers/STM32L4xx_HAL_Driver/Src/stm32l4xx_hal_flash_ex.c **** 
 740:../Drivers/STM32L4xx_HAL_Driver/Src/stm32l4xx_hal_flash_ex.c ****   /* Wait for last operation to be completed */
 741:../Drivers/STM32L4xx_HAL_Driver/Src/stm32l4xx_hal_flash_ex.c ****   status = FLASH_WaitForLastOperation((uint32_t)FLASH_TIMEOUT_VALUE);
 254              		.loc 1 741 3 view .LVU73
 255              		.loc 1 741 12 is_stmt 0 view .LVU74
 256 00d8 4CF25030 		movw	r0, #50000
 257 00dc FFF7FEFF 		bl	FLASH_WaitForLastOperation
 258              	.LVL20:
 742:../Drivers/STM32L4xx_HAL_Driver/Src/stm32l4xx_hal_flash_ex.c **** 
 743:../Drivers/STM32L4xx_HAL_Driver/Src/stm32l4xx_hal_flash_ex.c ****   if(status == HAL_OK)
 259              		.loc 1 743 3 is_stmt 1 view .LVU75
 260              		.loc 1 743 5 is_stmt 0 view .LVU76
 261 00e0 08B1     		cbz	r0, .L38
 262              	.LBE15:
 263              	.LBE14:
 334:../Drivers/STM32L4xx_HAL_Driver/Src/stm32l4xx_hal_flash_ex.c ****     }
 264              		.loc 1 334 14 view .LVU77
 265 00e2 0125     		movs	r5, #1
 266              	.LVL21:
 334:../Drivers/STM32L4xx_HAL_Driver/Src/stm32l4xx_hal_flash_ex.c ****     }
 267              		.loc 1 334 14 view .LVU78
 268 00e4 B2E7     		b	.L11
 269              	.LVL22:
 270              	.L38:
 271              	.LBB17:
 272              	.LBB16:
 744:../Drivers/STM32L4xx_HAL_Driver/Src/stm32l4xx_hal_flash_ex.c ****   {
 745:../Drivers/STM32L4xx_HAL_Driver/Src/stm32l4xx_hal_flash_ex.c ****     /* Configure the RDP level in the option bytes register */
 746:../Drivers/STM32L4xx_HAL_Driver/Src/stm32l4xx_hal_flash_ex.c ****     MODIFY_REG(FLASH->OPTR, FLASH_OPTR_RDP, RDPLevel);
 273              		.loc 1 746 5 is_stmt 1 view .LVU79
 274 00e6 6E4E     		ldr	r6, .L39+4
 275 00e8 336A     		ldr	r3, [r6, #32]
 276 00ea 23F0FF03 		bic	r3, r3, #255
 277 00ee 3B43     		orrs	r3, r3, r7
 278 00f0 3362     		str	r3, [r6, #32]
 747:../Drivers/STM32L4xx_HAL_Driver/Src/stm32l4xx_hal_flash_ex.c **** 
 748:../Drivers/STM32L4xx_HAL_Driver/Src/stm32l4xx_hal_flash_ex.c ****     /* Set OPTSTRT Bit */
 749:../Drivers/STM32L4xx_HAL_Driver/Src/stm32l4xx_hal_flash_ex.c ****     SET_BIT(FLASH->CR, FLASH_CR_OPTSTRT);
 279              		.loc 1 749 5 view .LVU80
 280 00f2 7369     		ldr	r3, [r6, #20]
 281 00f4 43F40033 		orr	r3, r3, #131072
 282 00f8 7361     		str	r3, [r6, #20]
 750:../Drivers/STM32L4xx_HAL_Driver/Src/stm32l4xx_hal_flash_ex.c **** 
 751:../Drivers/STM32L4xx_HAL_Driver/Src/stm32l4xx_hal_flash_ex.c ****     /* Wait for last operation to be completed */
 752:../Drivers/STM32L4xx_HAL_Driver/Src/stm32l4xx_hal_flash_ex.c ****     status = FLASH_WaitForLastOperation((uint32_t)FLASH_TIMEOUT_VALUE);
 283              		.loc 1 752 5 view .LVU81
 284              		.loc 1 752 14 is_stmt 0 view .LVU82
 285 00fa 4CF25030 		movw	r0, #50000
 286              	.LVL23:
 287              		.loc 1 752 14 view .LVU83
 288 00fe FFF7FEFF 		bl	FLASH_WaitForLastOperation
ARM GAS  C:\Users\hoodc\AppData\Local\Temp\ccsNrQcU.s 			page 20


 289              	.LVL24:
 753:../Drivers/STM32L4xx_HAL_Driver/Src/stm32l4xx_hal_flash_ex.c **** 
 754:../Drivers/STM32L4xx_HAL_Driver/Src/stm32l4xx_hal_flash_ex.c ****     /* If the option byte program operation is completed, disable the OPTSTRT Bit */
 755:../Drivers/STM32L4xx_HAL_Driver/Src/stm32l4xx_hal_flash_ex.c ****     CLEAR_BIT(FLASH->CR, FLASH_CR_OPTSTRT);
 290              		.loc 1 755 5 is_stmt 1 view .LVU84
 291 0102 7369     		ldr	r3, [r6, #20]
 292 0104 23F40033 		bic	r3, r3, #131072
 293 0108 7361     		str	r3, [r6, #20]
 756:../Drivers/STM32L4xx_HAL_Driver/Src/stm32l4xx_hal_flash_ex.c ****   }
 757:../Drivers/STM32L4xx_HAL_Driver/Src/stm32l4xx_hal_flash_ex.c **** 
 758:../Drivers/STM32L4xx_HAL_Driver/Src/stm32l4xx_hal_flash_ex.c ****   return status;
 294              		.loc 1 758 3 view .LVU85
 295              	.LVL25:
 296              		.loc 1 758 3 is_stmt 0 view .LVU86
 297              	.LBE16:
 298              	.LBE17:
 334:../Drivers/STM32L4xx_HAL_Driver/Src/stm32l4xx_hal_flash_ex.c ****     }
 299              		.loc 1 334 14 view .LVU87
 300 010a 0028     		cmp	r0, #0
 301 010c 18BF     		it	ne
 302 010e 0125     		movne	r5, #1
 303              	.LVL26:
 334:../Drivers/STM32L4xx_HAL_Driver/Src/stm32l4xx_hal_flash_ex.c ****     }
 304              		.loc 1 334 14 view .LVU88
 305 0110 9CE7     		b	.L11
 306              	.LVL27:
 307              	.L36:
 342:../Drivers/STM32L4xx_HAL_Driver/Src/stm32l4xx_hal_flash_ex.c ****     {
 308              		.loc 1 342 5 is_stmt 1 view .LVU89
 342:../Drivers/STM32L4xx_HAL_Driver/Src/stm32l4xx_hal_flash_ex.c ****     {
 309              		.loc 1 342 8 is_stmt 0 view .LVU90
 310 0112 6669     		ldr	r6, [r4, #20]
 311 0114 A769     		ldr	r7, [r4, #24]
 312              	.LVL28:
 313              	.LBB18:
 314              	.LBI18:
 759:../Drivers/STM32L4xx_HAL_Driver/Src/stm32l4xx_hal_flash_ex.c **** }
 760:../Drivers/STM32L4xx_HAL_Driver/Src/stm32l4xx_hal_flash_ex.c **** 
 761:../Drivers/STM32L4xx_HAL_Driver/Src/stm32l4xx_hal_flash_ex.c **** /**
 762:../Drivers/STM32L4xx_HAL_Driver/Src/stm32l4xx_hal_flash_ex.c ****   * @brief  Program the FLASH User Option Byte.
 763:../Drivers/STM32L4xx_HAL_Driver/Src/stm32l4xx_hal_flash_ex.c ****   *
 764:../Drivers/STM32L4xx_HAL_Driver/Src/stm32l4xx_hal_flash_ex.c ****   * @note   To configure the user option bytes, the option lock bit OPTLOCK must
 765:../Drivers/STM32L4xx_HAL_Driver/Src/stm32l4xx_hal_flash_ex.c ****   *         be cleared with the call of the HAL_FLASH_OB_Unlock() function.
 766:../Drivers/STM32L4xx_HAL_Driver/Src/stm32l4xx_hal_flash_ex.c ****   * @note   To validate the user option bytes, the option bytes must be reloaded
 767:../Drivers/STM32L4xx_HAL_Driver/Src/stm32l4xx_hal_flash_ex.c ****   *         through the call of the HAL_FLASH_OB_Launch() function.
 768:../Drivers/STM32L4xx_HAL_Driver/Src/stm32l4xx_hal_flash_ex.c ****   *
 769:../Drivers/STM32L4xx_HAL_Driver/Src/stm32l4xx_hal_flash_ex.c ****   * @param  UserType The FLASH User Option Bytes to be modified
 770:../Drivers/STM32L4xx_HAL_Driver/Src/stm32l4xx_hal_flash_ex.c ****   * @param  UserConfig The FLASH User Option Bytes values:
 771:../Drivers/STM32L4xx_HAL_Driver/Src/stm32l4xx_hal_flash_ex.c ****   *         BOR_LEV(Bit8-10), nRST_STOP(Bit12), nRST_STDBY(Bit13), IWDG_SW(Bit16),
 772:../Drivers/STM32L4xx_HAL_Driver/Src/stm32l4xx_hal_flash_ex.c ****   *         IWDG_STOP(Bit17), IWDG_STDBY(Bit18), WWDG_SW(Bit19), BFB2(Bit20),
 773:../Drivers/STM32L4xx_HAL_Driver/Src/stm32l4xx_hal_flash_ex.c ****   *         DUALBANK(Bit21), nBOOT1(Bit23), SRAM2_PE(Bit24) and SRAM2_RST(Bit25).
 774:../Drivers/STM32L4xx_HAL_Driver/Src/stm32l4xx_hal_flash_ex.c ****   *
 775:../Drivers/STM32L4xx_HAL_Driver/Src/stm32l4xx_hal_flash_ex.c ****   * @retval HAL status
 776:../Drivers/STM32L4xx_HAL_Driver/Src/stm32l4xx_hal_flash_ex.c ****   */
 777:../Drivers/STM32L4xx_HAL_Driver/Src/stm32l4xx_hal_flash_ex.c **** static HAL_StatusTypeDef FLASH_OB_UserConfig(uint32_t UserType, uint32_t UserConfig)
 315              		.loc 1 777 26 is_stmt 1 view .LVU91
 316              	.LBB19:
ARM GAS  C:\Users\hoodc\AppData\Local\Temp\ccsNrQcU.s 			page 21


 778:../Drivers/STM32L4xx_HAL_Driver/Src/stm32l4xx_hal_flash_ex.c **** {
 779:../Drivers/STM32L4xx_HAL_Driver/Src/stm32l4xx_hal_flash_ex.c ****   uint32_t optr_reg_val = 0;
 317              		.loc 1 779 3 view .LVU92
 780:../Drivers/STM32L4xx_HAL_Driver/Src/stm32l4xx_hal_flash_ex.c ****   uint32_t optr_reg_mask = 0;
 318              		.loc 1 780 3 view .LVU93
 781:../Drivers/STM32L4xx_HAL_Driver/Src/stm32l4xx_hal_flash_ex.c ****   HAL_StatusTypeDef status;
 319              		.loc 1 781 3 view .LVU94
 782:../Drivers/STM32L4xx_HAL_Driver/Src/stm32l4xx_hal_flash_ex.c **** 
 783:../Drivers/STM32L4xx_HAL_Driver/Src/stm32l4xx_hal_flash_ex.c ****   /* Check the parameters */
 784:../Drivers/STM32L4xx_HAL_Driver/Src/stm32l4xx_hal_flash_ex.c ****   assert_param(IS_OB_USER_TYPE(UserType));
 320              		.loc 1 784 3 view .LVU95
 785:../Drivers/STM32L4xx_HAL_Driver/Src/stm32l4xx_hal_flash_ex.c **** 
 786:../Drivers/STM32L4xx_HAL_Driver/Src/stm32l4xx_hal_flash_ex.c ****   /* Wait for last operation to be completed */
 787:../Drivers/STM32L4xx_HAL_Driver/Src/stm32l4xx_hal_flash_ex.c ****   status = FLASH_WaitForLastOperation((uint32_t)FLASH_TIMEOUT_VALUE);
 321              		.loc 1 787 3 view .LVU96
 322              		.loc 1 787 12 is_stmt 0 view .LVU97
 323 0116 4CF25030 		movw	r0, #50000
 324 011a FFF7FEFF 		bl	FLASH_WaitForLastOperation
 325              	.LVL29:
 788:../Drivers/STM32L4xx_HAL_Driver/Src/stm32l4xx_hal_flash_ex.c **** 
 789:../Drivers/STM32L4xx_HAL_Driver/Src/stm32l4xx_hal_flash_ex.c ****   if(status == HAL_OK)
 326              		.loc 1 789 3 is_stmt 1 view .LVU98
 327              		.loc 1 789 5 is_stmt 0 view .LVU99
 328 011e 0028     		cmp	r0, #0
 329 0120 7DD1     		bne	.L31
 790:../Drivers/STM32L4xx_HAL_Driver/Src/stm32l4xx_hal_flash_ex.c ****   {
 791:../Drivers/STM32L4xx_HAL_Driver/Src/stm32l4xx_hal_flash_ex.c ****     if((UserType & OB_USER_BOR_LEV) != 0U)
 330              		.loc 1 791 5 is_stmt 1 view .LVU100
 331              		.loc 1 791 7 is_stmt 0 view .LVU101
 332 0122 16F00103 		ands	r3, r6, #1
 792:../Drivers/STM32L4xx_HAL_Driver/Src/stm32l4xx_hal_flash_ex.c ****     {
 793:../Drivers/STM32L4xx_HAL_Driver/Src/stm32l4xx_hal_flash_ex.c ****       /* BOR level option byte should be modified */
 794:../Drivers/STM32L4xx_HAL_Driver/Src/stm32l4xx_hal_flash_ex.c ****       assert_param(IS_OB_USER_BOR_LEVEL(UserConfig & FLASH_OPTR_BOR_LEV));
 333              		.loc 1 794 7 is_stmt 1 view .LVU102
 795:../Drivers/STM32L4xx_HAL_Driver/Src/stm32l4xx_hal_flash_ex.c **** 
 796:../Drivers/STM32L4xx_HAL_Driver/Src/stm32l4xx_hal_flash_ex.c ****       /* Set value and mask for BOR level option byte */
 797:../Drivers/STM32L4xx_HAL_Driver/Src/stm32l4xx_hal_flash_ex.c ****       optr_reg_val |= (UserConfig & FLASH_OPTR_BOR_LEV);
 334              		.loc 1 797 7 view .LVU103
 335              		.loc 1 797 35 is_stmt 0 view .LVU104
 336 0126 1ABF     		itte	ne
 337 0128 07F4E063 		andne	r3, r7, #1792
 338              	.LVL30:
 798:../Drivers/STM32L4xx_HAL_Driver/Src/stm32l4xx_hal_flash_ex.c ****       optr_reg_mask |= FLASH_OPTR_BOR_LEV;
 339              		.loc 1 798 7 is_stmt 1 view .LVU105
 340              		.loc 1 798 21 is_stmt 0 view .LVU106
 341 012c 4FF4E062 		movne	r2, #1792
 780:../Drivers/STM32L4xx_HAL_Driver/Src/stm32l4xx_hal_flash_ex.c ****   HAL_StatusTypeDef status;
 342              		.loc 1 780 12 view .LVU107
 343 0130 1A46     		moveq	r2, r3
 344              	.LVL31:
 799:../Drivers/STM32L4xx_HAL_Driver/Src/stm32l4xx_hal_flash_ex.c ****     }
 800:../Drivers/STM32L4xx_HAL_Driver/Src/stm32l4xx_hal_flash_ex.c **** 
 801:../Drivers/STM32L4xx_HAL_Driver/Src/stm32l4xx_hal_flash_ex.c ****     if((UserType & OB_USER_nRST_STOP) != 0U)
 345              		.loc 1 801 5 is_stmt 1 view .LVU108
 346              		.loc 1 801 7 is_stmt 0 view .LVU109
 347 0132 16F0020F 		tst	r6, #2
 348 0136 04D0     		beq	.L14
ARM GAS  C:\Users\hoodc\AppData\Local\Temp\ccsNrQcU.s 			page 22


 802:../Drivers/STM32L4xx_HAL_Driver/Src/stm32l4xx_hal_flash_ex.c ****     {
 803:../Drivers/STM32L4xx_HAL_Driver/Src/stm32l4xx_hal_flash_ex.c ****       /* nRST_STOP option byte should be modified */
 804:../Drivers/STM32L4xx_HAL_Driver/Src/stm32l4xx_hal_flash_ex.c ****       assert_param(IS_OB_USER_STOP(UserConfig & FLASH_OPTR_nRST_STOP));
 349              		.loc 1 804 7 is_stmt 1 view .LVU110
 805:../Drivers/STM32L4xx_HAL_Driver/Src/stm32l4xx_hal_flash_ex.c **** 
 806:../Drivers/STM32L4xx_HAL_Driver/Src/stm32l4xx_hal_flash_ex.c ****       /* Set value and mask for nRST_STOP option byte */
 807:../Drivers/STM32L4xx_HAL_Driver/Src/stm32l4xx_hal_flash_ex.c ****       optr_reg_val |= (UserConfig & FLASH_OPTR_nRST_STOP);
 350              		.loc 1 807 7 view .LVU111
 351              		.loc 1 807 35 is_stmt 0 view .LVU112
 352 0138 07F48051 		and	r1, r7, #4096
 353              		.loc 1 807 20 view .LVU113
 354 013c 0B43     		orrs	r3, r3, r1
 355              	.LVL32:
 808:../Drivers/STM32L4xx_HAL_Driver/Src/stm32l4xx_hal_flash_ex.c ****       optr_reg_mask |= FLASH_OPTR_nRST_STOP;
 356              		.loc 1 808 7 is_stmt 1 view .LVU114
 357              		.loc 1 808 21 is_stmt 0 view .LVU115
 358 013e 42F48052 		orr	r2, r2, #4096
 359              	.LVL33:
 360              	.L14:
 809:../Drivers/STM32L4xx_HAL_Driver/Src/stm32l4xx_hal_flash_ex.c ****     }
 810:../Drivers/STM32L4xx_HAL_Driver/Src/stm32l4xx_hal_flash_ex.c **** 
 811:../Drivers/STM32L4xx_HAL_Driver/Src/stm32l4xx_hal_flash_ex.c ****     if((UserType & OB_USER_nRST_STDBY) != 0U)
 361              		.loc 1 811 5 is_stmt 1 view .LVU116
 362              		.loc 1 811 7 is_stmt 0 view .LVU117
 363 0142 16F0040F 		tst	r6, #4
 364 0146 04D0     		beq	.L15
 812:../Drivers/STM32L4xx_HAL_Driver/Src/stm32l4xx_hal_flash_ex.c ****     {
 813:../Drivers/STM32L4xx_HAL_Driver/Src/stm32l4xx_hal_flash_ex.c ****       /* nRST_STDBY option byte should be modified */
 814:../Drivers/STM32L4xx_HAL_Driver/Src/stm32l4xx_hal_flash_ex.c ****       assert_param(IS_OB_USER_STANDBY(UserConfig & FLASH_OPTR_nRST_STDBY));
 365              		.loc 1 814 7 is_stmt 1 view .LVU118
 815:../Drivers/STM32L4xx_HAL_Driver/Src/stm32l4xx_hal_flash_ex.c **** 
 816:../Drivers/STM32L4xx_HAL_Driver/Src/stm32l4xx_hal_flash_ex.c ****       /* Set value and mask for nRST_STDBY option byte */
 817:../Drivers/STM32L4xx_HAL_Driver/Src/stm32l4xx_hal_flash_ex.c ****       optr_reg_val |= (UserConfig & FLASH_OPTR_nRST_STDBY);
 366              		.loc 1 817 7 view .LVU119
 367              		.loc 1 817 35 is_stmt 0 view .LVU120
 368 0148 07F40051 		and	r1, r7, #8192
 369              		.loc 1 817 20 view .LVU121
 370 014c 0B43     		orrs	r3, r3, r1
 371              	.LVL34:
 818:../Drivers/STM32L4xx_HAL_Driver/Src/stm32l4xx_hal_flash_ex.c ****       optr_reg_mask |= FLASH_OPTR_nRST_STDBY;
 372              		.loc 1 818 7 is_stmt 1 view .LVU122
 373              		.loc 1 818 21 is_stmt 0 view .LVU123
 374 014e 42F40052 		orr	r2, r2, #8192
 375              	.LVL35:
 376              	.L15:
 819:../Drivers/STM32L4xx_HAL_Driver/Src/stm32l4xx_hal_flash_ex.c ****     }
 820:../Drivers/STM32L4xx_HAL_Driver/Src/stm32l4xx_hal_flash_ex.c **** 
 821:../Drivers/STM32L4xx_HAL_Driver/Src/stm32l4xx_hal_flash_ex.c ****     if((UserType & OB_USER_nRST_SHDW) != 0U)
 377              		.loc 1 821 5 is_stmt 1 view .LVU124
 378              		.loc 1 821 7 is_stmt 0 view .LVU125
 379 0152 16F4805F 		tst	r6, #4096
 380 0156 04D0     		beq	.L16
 822:../Drivers/STM32L4xx_HAL_Driver/Src/stm32l4xx_hal_flash_ex.c ****     {
 823:../Drivers/STM32L4xx_HAL_Driver/Src/stm32l4xx_hal_flash_ex.c ****       /* nRST_SHDW option byte should be modified */
 824:../Drivers/STM32L4xx_HAL_Driver/Src/stm32l4xx_hal_flash_ex.c ****       assert_param(IS_OB_USER_SHUTDOWN(UserConfig & FLASH_OPTR_nRST_SHDW));
 381              		.loc 1 824 7 is_stmt 1 view .LVU126
 825:../Drivers/STM32L4xx_HAL_Driver/Src/stm32l4xx_hal_flash_ex.c **** 
ARM GAS  C:\Users\hoodc\AppData\Local\Temp\ccsNrQcU.s 			page 23


 826:../Drivers/STM32L4xx_HAL_Driver/Src/stm32l4xx_hal_flash_ex.c ****       /* Set value and mask for nRST_SHDW option byte */
 827:../Drivers/STM32L4xx_HAL_Driver/Src/stm32l4xx_hal_flash_ex.c ****       optr_reg_val |= (UserConfig & FLASH_OPTR_nRST_SHDW);
 382              		.loc 1 827 7 view .LVU127
 383              		.loc 1 827 35 is_stmt 0 view .LVU128
 384 0158 07F48041 		and	r1, r7, #16384
 385              		.loc 1 827 20 view .LVU129
 386 015c 0B43     		orrs	r3, r3, r1
 387              	.LVL36:
 828:../Drivers/STM32L4xx_HAL_Driver/Src/stm32l4xx_hal_flash_ex.c ****       optr_reg_mask |= FLASH_OPTR_nRST_SHDW;
 388              		.loc 1 828 7 is_stmt 1 view .LVU130
 389              		.loc 1 828 21 is_stmt 0 view .LVU131
 390 015e 42F48042 		orr	r2, r2, #16384
 391              	.LVL37:
 392              	.L16:
 829:../Drivers/STM32L4xx_HAL_Driver/Src/stm32l4xx_hal_flash_ex.c ****     }
 830:../Drivers/STM32L4xx_HAL_Driver/Src/stm32l4xx_hal_flash_ex.c **** 
 831:../Drivers/STM32L4xx_HAL_Driver/Src/stm32l4xx_hal_flash_ex.c ****     if((UserType & OB_USER_IWDG_SW) != 0U)
 393              		.loc 1 831 5 is_stmt 1 view .LVU132
 394              		.loc 1 831 7 is_stmt 0 view .LVU133
 395 0162 16F0080F 		tst	r6, #8
 396 0166 04D0     		beq	.L17
 832:../Drivers/STM32L4xx_HAL_Driver/Src/stm32l4xx_hal_flash_ex.c ****     {
 833:../Drivers/STM32L4xx_HAL_Driver/Src/stm32l4xx_hal_flash_ex.c ****       /* IWDG_SW option byte should be modified */
 834:../Drivers/STM32L4xx_HAL_Driver/Src/stm32l4xx_hal_flash_ex.c ****       assert_param(IS_OB_USER_IWDG(UserConfig & FLASH_OPTR_IWDG_SW));
 397              		.loc 1 834 7 is_stmt 1 view .LVU134
 835:../Drivers/STM32L4xx_HAL_Driver/Src/stm32l4xx_hal_flash_ex.c **** 
 836:../Drivers/STM32L4xx_HAL_Driver/Src/stm32l4xx_hal_flash_ex.c ****       /* Set value and mask for IWDG_SW option byte */
 837:../Drivers/STM32L4xx_HAL_Driver/Src/stm32l4xx_hal_flash_ex.c ****       optr_reg_val |= (UserConfig & FLASH_OPTR_IWDG_SW);
 398              		.loc 1 837 7 view .LVU135
 399              		.loc 1 837 35 is_stmt 0 view .LVU136
 400 0168 07F48031 		and	r1, r7, #65536
 401              		.loc 1 837 20 view .LVU137
 402 016c 0B43     		orrs	r3, r3, r1
 403              	.LVL38:
 838:../Drivers/STM32L4xx_HAL_Driver/Src/stm32l4xx_hal_flash_ex.c ****       optr_reg_mask |= FLASH_OPTR_IWDG_SW;
 404              		.loc 1 838 7 is_stmt 1 view .LVU138
 405              		.loc 1 838 21 is_stmt 0 view .LVU139
 406 016e 42F48032 		orr	r2, r2, #65536
 407              	.LVL39:
 408              	.L17:
 839:../Drivers/STM32L4xx_HAL_Driver/Src/stm32l4xx_hal_flash_ex.c ****     }
 840:../Drivers/STM32L4xx_HAL_Driver/Src/stm32l4xx_hal_flash_ex.c **** 
 841:../Drivers/STM32L4xx_HAL_Driver/Src/stm32l4xx_hal_flash_ex.c ****     if((UserType & OB_USER_IWDG_STOP) != 0U)
 409              		.loc 1 841 5 is_stmt 1 view .LVU140
 410              		.loc 1 841 7 is_stmt 0 view .LVU141
 411 0172 16F0100F 		tst	r6, #16
 412 0176 04D0     		beq	.L18
 842:../Drivers/STM32L4xx_HAL_Driver/Src/stm32l4xx_hal_flash_ex.c ****     {
 843:../Drivers/STM32L4xx_HAL_Driver/Src/stm32l4xx_hal_flash_ex.c ****       /* IWDG_STOP option byte should be modified */
 844:../Drivers/STM32L4xx_HAL_Driver/Src/stm32l4xx_hal_flash_ex.c ****       assert_param(IS_OB_USER_IWDG_STOP(UserConfig & FLASH_OPTR_IWDG_STOP));
 413              		.loc 1 844 7 is_stmt 1 view .LVU142
 845:../Drivers/STM32L4xx_HAL_Driver/Src/stm32l4xx_hal_flash_ex.c **** 
 846:../Drivers/STM32L4xx_HAL_Driver/Src/stm32l4xx_hal_flash_ex.c ****       /* Set value and mask for IWDG_STOP option byte */
 847:../Drivers/STM32L4xx_HAL_Driver/Src/stm32l4xx_hal_flash_ex.c ****       optr_reg_val |= (UserConfig & FLASH_OPTR_IWDG_STOP);
 414              		.loc 1 847 7 view .LVU143
 415              		.loc 1 847 35 is_stmt 0 view .LVU144
 416 0178 07F40031 		and	r1, r7, #131072
ARM GAS  C:\Users\hoodc\AppData\Local\Temp\ccsNrQcU.s 			page 24


 417              		.loc 1 847 20 view .LVU145
 418 017c 0B43     		orrs	r3, r3, r1
 419              	.LVL40:
 848:../Drivers/STM32L4xx_HAL_Driver/Src/stm32l4xx_hal_flash_ex.c ****       optr_reg_mask |= FLASH_OPTR_IWDG_STOP;
 420              		.loc 1 848 7 is_stmt 1 view .LVU146
 421              		.loc 1 848 21 is_stmt 0 view .LVU147
 422 017e 42F40032 		orr	r2, r2, #131072
 423              	.LVL41:
 424              	.L18:
 849:../Drivers/STM32L4xx_HAL_Driver/Src/stm32l4xx_hal_flash_ex.c ****     }
 850:../Drivers/STM32L4xx_HAL_Driver/Src/stm32l4xx_hal_flash_ex.c **** 
 851:../Drivers/STM32L4xx_HAL_Driver/Src/stm32l4xx_hal_flash_ex.c ****     if((UserType & OB_USER_IWDG_STDBY) != 0U)
 425              		.loc 1 851 5 is_stmt 1 view .LVU148
 426              		.loc 1 851 7 is_stmt 0 view .LVU149
 427 0182 16F0200F 		tst	r6, #32
 428 0186 04D0     		beq	.L19
 852:../Drivers/STM32L4xx_HAL_Driver/Src/stm32l4xx_hal_flash_ex.c ****     {
 853:../Drivers/STM32L4xx_HAL_Driver/Src/stm32l4xx_hal_flash_ex.c ****       /* IWDG_STDBY option byte should be modified */
 854:../Drivers/STM32L4xx_HAL_Driver/Src/stm32l4xx_hal_flash_ex.c ****       assert_param(IS_OB_USER_IWDG_STDBY(UserConfig & FLASH_OPTR_IWDG_STDBY));
 429              		.loc 1 854 7 is_stmt 1 view .LVU150
 855:../Drivers/STM32L4xx_HAL_Driver/Src/stm32l4xx_hal_flash_ex.c **** 
 856:../Drivers/STM32L4xx_HAL_Driver/Src/stm32l4xx_hal_flash_ex.c ****       /* Set value and mask for IWDG_STDBY option byte */
 857:../Drivers/STM32L4xx_HAL_Driver/Src/stm32l4xx_hal_flash_ex.c ****       optr_reg_val |= (UserConfig & FLASH_OPTR_IWDG_STDBY);
 430              		.loc 1 857 7 view .LVU151
 431              		.loc 1 857 35 is_stmt 0 view .LVU152
 432 0188 07F48021 		and	r1, r7, #262144
 433              		.loc 1 857 20 view .LVU153
 434 018c 0B43     		orrs	r3, r3, r1
 435              	.LVL42:
 858:../Drivers/STM32L4xx_HAL_Driver/Src/stm32l4xx_hal_flash_ex.c ****       optr_reg_mask |= FLASH_OPTR_IWDG_STDBY;
 436              		.loc 1 858 7 is_stmt 1 view .LVU154
 437              		.loc 1 858 21 is_stmt 0 view .LVU155
 438 018e 42F48022 		orr	r2, r2, #262144
 439              	.LVL43:
 440              	.L19:
 859:../Drivers/STM32L4xx_HAL_Driver/Src/stm32l4xx_hal_flash_ex.c ****     }
 860:../Drivers/STM32L4xx_HAL_Driver/Src/stm32l4xx_hal_flash_ex.c **** 
 861:../Drivers/STM32L4xx_HAL_Driver/Src/stm32l4xx_hal_flash_ex.c ****     if((UserType & OB_USER_WWDG_SW) != 0U)
 441              		.loc 1 861 5 is_stmt 1 view .LVU156
 442              		.loc 1 861 7 is_stmt 0 view .LVU157
 443 0192 16F0400F 		tst	r6, #64
 444 0196 04D0     		beq	.L20
 862:../Drivers/STM32L4xx_HAL_Driver/Src/stm32l4xx_hal_flash_ex.c ****     {
 863:../Drivers/STM32L4xx_HAL_Driver/Src/stm32l4xx_hal_flash_ex.c ****       /* WWDG_SW option byte should be modified */
 864:../Drivers/STM32L4xx_HAL_Driver/Src/stm32l4xx_hal_flash_ex.c ****       assert_param(IS_OB_USER_WWDG(UserConfig & FLASH_OPTR_WWDG_SW));
 445              		.loc 1 864 7 is_stmt 1 view .LVU158
 865:../Drivers/STM32L4xx_HAL_Driver/Src/stm32l4xx_hal_flash_ex.c **** 
 866:../Drivers/STM32L4xx_HAL_Driver/Src/stm32l4xx_hal_flash_ex.c ****       /* Set value and mask for WWDG_SW option byte */
 867:../Drivers/STM32L4xx_HAL_Driver/Src/stm32l4xx_hal_flash_ex.c ****       optr_reg_val |= (UserConfig & FLASH_OPTR_WWDG_SW);
 446              		.loc 1 867 7 view .LVU159
 447              		.loc 1 867 35 is_stmt 0 view .LVU160
 448 0198 07F40021 		and	r1, r7, #524288
 449              		.loc 1 867 20 view .LVU161
 450 019c 0B43     		orrs	r3, r3, r1
 451              	.LVL44:
 868:../Drivers/STM32L4xx_HAL_Driver/Src/stm32l4xx_hal_flash_ex.c ****       optr_reg_mask |= FLASH_OPTR_WWDG_SW;
 452              		.loc 1 868 7 is_stmt 1 view .LVU162
ARM GAS  C:\Users\hoodc\AppData\Local\Temp\ccsNrQcU.s 			page 25


 453              		.loc 1 868 21 is_stmt 0 view .LVU163
 454 019e 42F40022 		orr	r2, r2, #524288
 455              	.LVL45:
 456              	.L20:
 869:../Drivers/STM32L4xx_HAL_Driver/Src/stm32l4xx_hal_flash_ex.c ****     }
 870:../Drivers/STM32L4xx_HAL_Driver/Src/stm32l4xx_hal_flash_ex.c **** 
 871:../Drivers/STM32L4xx_HAL_Driver/Src/stm32l4xx_hal_flash_ex.c **** #if defined (STM32L471xx) || defined (STM32L475xx) || defined (STM32L476xx) || defined (STM32L485xx
 872:../Drivers/STM32L4xx_HAL_Driver/Src/stm32l4xx_hal_flash_ex.c ****     defined (STM32L496xx) || defined (STM32L4A6xx) || \
 873:../Drivers/STM32L4xx_HAL_Driver/Src/stm32l4xx_hal_flash_ex.c ****     defined (STM32L4P5xx) || defined (STM32L4Q5xx) || \
 874:../Drivers/STM32L4xx_HAL_Driver/Src/stm32l4xx_hal_flash_ex.c ****     defined (STM32L4R5xx) || defined (STM32L4R7xx) || defined (STM32L4R9xx) || defined (STM32L4S5xx
 875:../Drivers/STM32L4xx_HAL_Driver/Src/stm32l4xx_hal_flash_ex.c ****     if((UserType & OB_USER_BFB2) != 0U)
 876:../Drivers/STM32L4xx_HAL_Driver/Src/stm32l4xx_hal_flash_ex.c ****     {
 877:../Drivers/STM32L4xx_HAL_Driver/Src/stm32l4xx_hal_flash_ex.c ****       /* BFB2 option byte should be modified */
 878:../Drivers/STM32L4xx_HAL_Driver/Src/stm32l4xx_hal_flash_ex.c ****       assert_param(IS_OB_USER_BFB2(UserConfig & FLASH_OPTR_BFB2));
 879:../Drivers/STM32L4xx_HAL_Driver/Src/stm32l4xx_hal_flash_ex.c **** 
 880:../Drivers/STM32L4xx_HAL_Driver/Src/stm32l4xx_hal_flash_ex.c ****       /* Set value and mask for BFB2 option byte */
 881:../Drivers/STM32L4xx_HAL_Driver/Src/stm32l4xx_hal_flash_ex.c ****       optr_reg_val |= (UserConfig & FLASH_OPTR_BFB2);
 882:../Drivers/STM32L4xx_HAL_Driver/Src/stm32l4xx_hal_flash_ex.c ****       optr_reg_mask |= FLASH_OPTR_BFB2;
 883:../Drivers/STM32L4xx_HAL_Driver/Src/stm32l4xx_hal_flash_ex.c ****     }
 884:../Drivers/STM32L4xx_HAL_Driver/Src/stm32l4xx_hal_flash_ex.c **** 
 885:../Drivers/STM32L4xx_HAL_Driver/Src/stm32l4xx_hal_flash_ex.c ****     if((UserType & OB_USER_DUALBANK) != 0U)
 886:../Drivers/STM32L4xx_HAL_Driver/Src/stm32l4xx_hal_flash_ex.c ****     {
 887:../Drivers/STM32L4xx_HAL_Driver/Src/stm32l4xx_hal_flash_ex.c **** #if defined (STM32L4P5xx) || defined (STM32L4Q5xx) || defined (STM32L4R5xx) || defined (STM32L4R7xx
 888:../Drivers/STM32L4xx_HAL_Driver/Src/stm32l4xx_hal_flash_ex.c ****       /* DUALBANK option byte should be modified */
 889:../Drivers/STM32L4xx_HAL_Driver/Src/stm32l4xx_hal_flash_ex.c ****       assert_param(IS_OB_USER_DUALBANK(UserConfig & FLASH_OPTR_DB1M));
 890:../Drivers/STM32L4xx_HAL_Driver/Src/stm32l4xx_hal_flash_ex.c **** 
 891:../Drivers/STM32L4xx_HAL_Driver/Src/stm32l4xx_hal_flash_ex.c ****       /* Set value and mask for DUALBANK option byte */
 892:../Drivers/STM32L4xx_HAL_Driver/Src/stm32l4xx_hal_flash_ex.c ****       optr_reg_val |= (UserConfig & FLASH_OPTR_DB1M);
 893:../Drivers/STM32L4xx_HAL_Driver/Src/stm32l4xx_hal_flash_ex.c ****       optr_reg_mask |= FLASH_OPTR_DB1M;
 894:../Drivers/STM32L4xx_HAL_Driver/Src/stm32l4xx_hal_flash_ex.c **** #else
 895:../Drivers/STM32L4xx_HAL_Driver/Src/stm32l4xx_hal_flash_ex.c ****       /* DUALBANK option byte should be modified */
 896:../Drivers/STM32L4xx_HAL_Driver/Src/stm32l4xx_hal_flash_ex.c ****       assert_param(IS_OB_USER_DUALBANK(UserConfig & FLASH_OPTR_DUALBANK));
 897:../Drivers/STM32L4xx_HAL_Driver/Src/stm32l4xx_hal_flash_ex.c **** 
 898:../Drivers/STM32L4xx_HAL_Driver/Src/stm32l4xx_hal_flash_ex.c ****       /* Set value and mask for DUALBANK option byte */
 899:../Drivers/STM32L4xx_HAL_Driver/Src/stm32l4xx_hal_flash_ex.c ****       optr_reg_val |= (UserConfig & FLASH_OPTR_DUALBANK);
 900:../Drivers/STM32L4xx_HAL_Driver/Src/stm32l4xx_hal_flash_ex.c ****       optr_reg_mask |= FLASH_OPTR_DUALBANK;
 901:../Drivers/STM32L4xx_HAL_Driver/Src/stm32l4xx_hal_flash_ex.c **** #endif
 902:../Drivers/STM32L4xx_HAL_Driver/Src/stm32l4xx_hal_flash_ex.c ****     }
 903:../Drivers/STM32L4xx_HAL_Driver/Src/stm32l4xx_hal_flash_ex.c **** #endif
 904:../Drivers/STM32L4xx_HAL_Driver/Src/stm32l4xx_hal_flash_ex.c **** 
 905:../Drivers/STM32L4xx_HAL_Driver/Src/stm32l4xx_hal_flash_ex.c ****     if((UserType & OB_USER_nBOOT1) != 0U)
 457              		.loc 1 905 5 is_stmt 1 view .LVU164
 458              		.loc 1 905 7 is_stmt 0 view .LVU165
 459 01a2 16F4007F 		tst	r6, #512
 460 01a6 04D0     		beq	.L21
 906:../Drivers/STM32L4xx_HAL_Driver/Src/stm32l4xx_hal_flash_ex.c ****     {
 907:../Drivers/STM32L4xx_HAL_Driver/Src/stm32l4xx_hal_flash_ex.c ****       /* nBOOT1 option byte should be modified */
 908:../Drivers/STM32L4xx_HAL_Driver/Src/stm32l4xx_hal_flash_ex.c ****       assert_param(IS_OB_USER_BOOT1(UserConfig & FLASH_OPTR_nBOOT1));
 461              		.loc 1 908 7 is_stmt 1 view .LVU166
 909:../Drivers/STM32L4xx_HAL_Driver/Src/stm32l4xx_hal_flash_ex.c **** 
 910:../Drivers/STM32L4xx_HAL_Driver/Src/stm32l4xx_hal_flash_ex.c ****       /* Set value and mask for nBOOT1 option byte */
 911:../Drivers/STM32L4xx_HAL_Driver/Src/stm32l4xx_hal_flash_ex.c ****       optr_reg_val |= (UserConfig & FLASH_OPTR_nBOOT1);
 462              		.loc 1 911 7 view .LVU167
 463              		.loc 1 911 35 is_stmt 0 view .LVU168
 464 01a8 07F40001 		and	r1, r7, #8388608
 465              		.loc 1 911 20 view .LVU169
 466 01ac 0B43     		orrs	r3, r3, r1
ARM GAS  C:\Users\hoodc\AppData\Local\Temp\ccsNrQcU.s 			page 26


 467              	.LVL46:
 912:../Drivers/STM32L4xx_HAL_Driver/Src/stm32l4xx_hal_flash_ex.c ****       optr_reg_mask |= FLASH_OPTR_nBOOT1;
 468              		.loc 1 912 7 is_stmt 1 view .LVU170
 469              		.loc 1 912 21 is_stmt 0 view .LVU171
 470 01ae 42F40002 		orr	r2, r2, #8388608
 471              	.LVL47:
 472              	.L21:
 913:../Drivers/STM32L4xx_HAL_Driver/Src/stm32l4xx_hal_flash_ex.c ****     }
 914:../Drivers/STM32L4xx_HAL_Driver/Src/stm32l4xx_hal_flash_ex.c **** 
 915:../Drivers/STM32L4xx_HAL_Driver/Src/stm32l4xx_hal_flash_ex.c ****     if((UserType & OB_USER_SRAM2_PE) != 0U)
 473              		.loc 1 915 5 is_stmt 1 view .LVU172
 474              		.loc 1 915 7 is_stmt 0 view .LVU173
 475 01b2 16F4806F 		tst	r6, #1024
 476 01b6 04D0     		beq	.L22
 916:../Drivers/STM32L4xx_HAL_Driver/Src/stm32l4xx_hal_flash_ex.c ****     {
 917:../Drivers/STM32L4xx_HAL_Driver/Src/stm32l4xx_hal_flash_ex.c ****       /* SRAM2_PE option byte should be modified */
 918:../Drivers/STM32L4xx_HAL_Driver/Src/stm32l4xx_hal_flash_ex.c ****       assert_param(IS_OB_USER_SRAM2_PARITY(UserConfig & FLASH_OPTR_SRAM2_PE));
 477              		.loc 1 918 7 is_stmt 1 view .LVU174
 919:../Drivers/STM32L4xx_HAL_Driver/Src/stm32l4xx_hal_flash_ex.c **** 
 920:../Drivers/STM32L4xx_HAL_Driver/Src/stm32l4xx_hal_flash_ex.c ****       /* Set value and mask for SRAM2_PE option byte */
 921:../Drivers/STM32L4xx_HAL_Driver/Src/stm32l4xx_hal_flash_ex.c ****       optr_reg_val |= (UserConfig & FLASH_OPTR_SRAM2_PE);
 478              		.loc 1 921 7 view .LVU175
 479              		.loc 1 921 35 is_stmt 0 view .LVU176
 480 01b8 07F08071 		and	r1, r7, #16777216
 481              		.loc 1 921 20 view .LVU177
 482 01bc 0B43     		orrs	r3, r3, r1
 483              	.LVL48:
 922:../Drivers/STM32L4xx_HAL_Driver/Src/stm32l4xx_hal_flash_ex.c ****       optr_reg_mask |= FLASH_OPTR_SRAM2_PE;
 484              		.loc 1 922 7 is_stmt 1 view .LVU178
 485              		.loc 1 922 21 is_stmt 0 view .LVU179
 486 01be 42F08072 		orr	r2, r2, #16777216
 487              	.LVL49:
 488              	.L22:
 923:../Drivers/STM32L4xx_HAL_Driver/Src/stm32l4xx_hal_flash_ex.c ****     }
 924:../Drivers/STM32L4xx_HAL_Driver/Src/stm32l4xx_hal_flash_ex.c **** 
 925:../Drivers/STM32L4xx_HAL_Driver/Src/stm32l4xx_hal_flash_ex.c ****     if((UserType & OB_USER_SRAM2_RST) != 0U)
 489              		.loc 1 925 5 is_stmt 1 view .LVU180
 490              		.loc 1 925 7 is_stmt 0 view .LVU181
 491 01c2 16F4006F 		tst	r6, #2048
 492 01c6 04D0     		beq	.L23
 926:../Drivers/STM32L4xx_HAL_Driver/Src/stm32l4xx_hal_flash_ex.c ****     {
 927:../Drivers/STM32L4xx_HAL_Driver/Src/stm32l4xx_hal_flash_ex.c ****       /* SRAM2_RST option byte should be modified */
 928:../Drivers/STM32L4xx_HAL_Driver/Src/stm32l4xx_hal_flash_ex.c ****       assert_param(IS_OB_USER_SRAM2_RST(UserConfig & FLASH_OPTR_SRAM2_RST));
 493              		.loc 1 928 7 is_stmt 1 view .LVU182
 929:../Drivers/STM32L4xx_HAL_Driver/Src/stm32l4xx_hal_flash_ex.c **** 
 930:../Drivers/STM32L4xx_HAL_Driver/Src/stm32l4xx_hal_flash_ex.c ****       /* Set value and mask for SRAM2_RST option byte */
 931:../Drivers/STM32L4xx_HAL_Driver/Src/stm32l4xx_hal_flash_ex.c ****       optr_reg_val |= (UserConfig & FLASH_OPTR_SRAM2_RST);
 494              		.loc 1 931 7 view .LVU183
 495              		.loc 1 931 35 is_stmt 0 view .LVU184
 496 01c8 07F00071 		and	r1, r7, #33554432
 497              		.loc 1 931 20 view .LVU185
 498 01cc 0B43     		orrs	r3, r3, r1
 499              	.LVL50:
 932:../Drivers/STM32L4xx_HAL_Driver/Src/stm32l4xx_hal_flash_ex.c ****       optr_reg_mask |= FLASH_OPTR_SRAM2_RST;
 500              		.loc 1 932 7 is_stmt 1 view .LVU186
 501              		.loc 1 932 21 is_stmt 0 view .LVU187
 502 01ce 42F00072 		orr	r2, r2, #33554432
ARM GAS  C:\Users\hoodc\AppData\Local\Temp\ccsNrQcU.s 			page 27


 503              	.LVL51:
 504              	.L23:
 933:../Drivers/STM32L4xx_HAL_Driver/Src/stm32l4xx_hal_flash_ex.c ****     }
 934:../Drivers/STM32L4xx_HAL_Driver/Src/stm32l4xx_hal_flash_ex.c **** 
 935:../Drivers/STM32L4xx_HAL_Driver/Src/stm32l4xx_hal_flash_ex.c **** #if defined (STM32L412xx) || defined (STM32L422xx) || defined (STM32L431xx) || defined (STM32L432xx
 936:../Drivers/STM32L4xx_HAL_Driver/Src/stm32l4xx_hal_flash_ex.c ****     defined (STM32L442xx) || defined (STM32L443xx) || defined (STM32L451xx) || defined (STM32L452xx
 937:../Drivers/STM32L4xx_HAL_Driver/Src/stm32l4xx_hal_flash_ex.c ****     defined (STM32L496xx) || defined (STM32L4A6xx) || \
 938:../Drivers/STM32L4xx_HAL_Driver/Src/stm32l4xx_hal_flash_ex.c ****     defined (STM32L4P5xx) || defined (STM32L4Q5xx) || \
 939:../Drivers/STM32L4xx_HAL_Driver/Src/stm32l4xx_hal_flash_ex.c ****     defined (STM32L4R5xx) || defined (STM32L4R7xx) || defined (STM32L4R9xx) || defined (STM32L4S5xx
 940:../Drivers/STM32L4xx_HAL_Driver/Src/stm32l4xx_hal_flash_ex.c ****     if((UserType & OB_USER_nSWBOOT0) != 0U)
 505              		.loc 1 940 5 is_stmt 1 view .LVU188
 506              		.loc 1 940 7 is_stmt 0 view .LVU189
 507 01d2 16F4005F 		tst	r6, #8192
 508 01d6 04D0     		beq	.L24
 941:../Drivers/STM32L4xx_HAL_Driver/Src/stm32l4xx_hal_flash_ex.c ****     {
 942:../Drivers/STM32L4xx_HAL_Driver/Src/stm32l4xx_hal_flash_ex.c ****       /* nSWBOOT0 option byte should be modified */
 943:../Drivers/STM32L4xx_HAL_Driver/Src/stm32l4xx_hal_flash_ex.c ****       assert_param(IS_OB_USER_SWBOOT0(UserConfig & FLASH_OPTR_nSWBOOT0));
 509              		.loc 1 943 7 is_stmt 1 view .LVU190
 944:../Drivers/STM32L4xx_HAL_Driver/Src/stm32l4xx_hal_flash_ex.c **** 
 945:../Drivers/STM32L4xx_HAL_Driver/Src/stm32l4xx_hal_flash_ex.c ****       /* Set value and mask for nSWBOOT0 option byte */
 946:../Drivers/STM32L4xx_HAL_Driver/Src/stm32l4xx_hal_flash_ex.c ****       optr_reg_val |= (UserConfig & FLASH_OPTR_nSWBOOT0);
 510              		.loc 1 946 7 view .LVU191
 511              		.loc 1 946 35 is_stmt 0 view .LVU192
 512 01d8 07F08061 		and	r1, r7, #67108864
 513              		.loc 1 946 20 view .LVU193
 514 01dc 0B43     		orrs	r3, r3, r1
 515              	.LVL52:
 947:../Drivers/STM32L4xx_HAL_Driver/Src/stm32l4xx_hal_flash_ex.c ****       optr_reg_mask |= FLASH_OPTR_nSWBOOT0;
 516              		.loc 1 947 7 is_stmt 1 view .LVU194
 517              		.loc 1 947 21 is_stmt 0 view .LVU195
 518 01de 42F08062 		orr	r2, r2, #67108864
 519              	.LVL53:
 520              	.L24:
 948:../Drivers/STM32L4xx_HAL_Driver/Src/stm32l4xx_hal_flash_ex.c ****     }
 949:../Drivers/STM32L4xx_HAL_Driver/Src/stm32l4xx_hal_flash_ex.c **** 
 950:../Drivers/STM32L4xx_HAL_Driver/Src/stm32l4xx_hal_flash_ex.c ****     if((UserType & OB_USER_nBOOT0) != 0U)
 521              		.loc 1 950 5 is_stmt 1 view .LVU196
 522              		.loc 1 950 7 is_stmt 0 view .LVU197
 523 01e2 16F4804F 		tst	r6, #16384
 524 01e6 04D0     		beq	.L25
 951:../Drivers/STM32L4xx_HAL_Driver/Src/stm32l4xx_hal_flash_ex.c ****     {
 952:../Drivers/STM32L4xx_HAL_Driver/Src/stm32l4xx_hal_flash_ex.c ****       /* nBOOT0 option byte should be modified */
 953:../Drivers/STM32L4xx_HAL_Driver/Src/stm32l4xx_hal_flash_ex.c ****       assert_param(IS_OB_USER_BOOT0(UserConfig & FLASH_OPTR_nBOOT0));
 525              		.loc 1 953 7 is_stmt 1 view .LVU198
 954:../Drivers/STM32L4xx_HAL_Driver/Src/stm32l4xx_hal_flash_ex.c **** 
 955:../Drivers/STM32L4xx_HAL_Driver/Src/stm32l4xx_hal_flash_ex.c ****       /* Set value and mask for nBOOT0 option byte */
 956:../Drivers/STM32L4xx_HAL_Driver/Src/stm32l4xx_hal_flash_ex.c ****       optr_reg_val |= (UserConfig & FLASH_OPTR_nBOOT0);
 526              		.loc 1 956 7 view .LVU199
 527              		.loc 1 956 35 is_stmt 0 view .LVU200
 528 01e8 07F00067 		and	r7, r7, #134217728
 529              	.LVL54:
 530              		.loc 1 956 20 view .LVU201
 531 01ec 3B43     		orrs	r3, r3, r7
 532              	.LVL55:
 957:../Drivers/STM32L4xx_HAL_Driver/Src/stm32l4xx_hal_flash_ex.c ****       optr_reg_mask |= FLASH_OPTR_nBOOT0;
 533              		.loc 1 957 7 is_stmt 1 view .LVU202
 534              		.loc 1 957 21 is_stmt 0 view .LVU203
ARM GAS  C:\Users\hoodc\AppData\Local\Temp\ccsNrQcU.s 			page 28


 535 01ee 42F00062 		orr	r2, r2, #134217728
 536              	.LVL56:
 537              	.L25:
 958:../Drivers/STM32L4xx_HAL_Driver/Src/stm32l4xx_hal_flash_ex.c ****     }
 959:../Drivers/STM32L4xx_HAL_Driver/Src/stm32l4xx_hal_flash_ex.c **** #endif
 960:../Drivers/STM32L4xx_HAL_Driver/Src/stm32l4xx_hal_flash_ex.c **** 
 961:../Drivers/STM32L4xx_HAL_Driver/Src/stm32l4xx_hal_flash_ex.c ****     /* Configure the option bytes register */
 962:../Drivers/STM32L4xx_HAL_Driver/Src/stm32l4xx_hal_flash_ex.c ****     MODIFY_REG(FLASH->OPTR, optr_reg_mask, optr_reg_val);
 538              		.loc 1 962 5 is_stmt 1 view .LVU204
 539 01f2 2B4E     		ldr	r6, .L39+4
 540              	.LVL57:
 541              		.loc 1 962 5 is_stmt 0 view .LVU205
 542 01f4 316A     		ldr	r1, [r6, #32]
 543 01f6 21EA0202 		bic	r2, r1, r2
 544              	.LVL58:
 545              		.loc 1 962 5 view .LVU206
 546 01fa 1343     		orrs	r3, r3, r2
 547              	.LVL59:
 548              		.loc 1 962 5 view .LVU207
 549 01fc 3362     		str	r3, [r6, #32]
 963:../Drivers/STM32L4xx_HAL_Driver/Src/stm32l4xx_hal_flash_ex.c **** 
 964:../Drivers/STM32L4xx_HAL_Driver/Src/stm32l4xx_hal_flash_ex.c ****     /* Set OPTSTRT Bit */
 965:../Drivers/STM32L4xx_HAL_Driver/Src/stm32l4xx_hal_flash_ex.c ****     SET_BIT(FLASH->CR, FLASH_CR_OPTSTRT);
 550              		.loc 1 965 5 is_stmt 1 view .LVU208
 551 01fe 7369     		ldr	r3, [r6, #20]
 552 0200 43F40033 		orr	r3, r3, #131072
 553 0204 7361     		str	r3, [r6, #20]
 966:../Drivers/STM32L4xx_HAL_Driver/Src/stm32l4xx_hal_flash_ex.c **** 
 967:../Drivers/STM32L4xx_HAL_Driver/Src/stm32l4xx_hal_flash_ex.c ****     /* Wait for last operation to be completed */
 968:../Drivers/STM32L4xx_HAL_Driver/Src/stm32l4xx_hal_flash_ex.c ****     status = FLASH_WaitForLastOperation((uint32_t)FLASH_TIMEOUT_VALUE);
 554              		.loc 1 968 5 view .LVU209
 555              		.loc 1 968 14 is_stmt 0 view .LVU210
 556 0206 4CF25030 		movw	r0, #50000
 557              	.LVL60:
 558              		.loc 1 968 14 view .LVU211
 559 020a FFF7FEFF 		bl	FLASH_WaitForLastOperation
 560              	.LVL61:
 969:../Drivers/STM32L4xx_HAL_Driver/Src/stm32l4xx_hal_flash_ex.c **** 
 970:../Drivers/STM32L4xx_HAL_Driver/Src/stm32l4xx_hal_flash_ex.c ****     /* If the option byte program operation is completed, disable the OPTSTRT Bit */
 971:../Drivers/STM32L4xx_HAL_Driver/Src/stm32l4xx_hal_flash_ex.c ****     CLEAR_BIT(FLASH->CR, FLASH_CR_OPTSTRT);
 561              		.loc 1 971 5 is_stmt 1 view .LVU212
 562 020e 7369     		ldr	r3, [r6, #20]
 563 0210 23F40033 		bic	r3, r3, #131072
 564 0214 7361     		str	r3, [r6, #20]
 972:../Drivers/STM32L4xx_HAL_Driver/Src/stm32l4xx_hal_flash_ex.c ****   }
 973:../Drivers/STM32L4xx_HAL_Driver/Src/stm32l4xx_hal_flash_ex.c **** 
 974:../Drivers/STM32L4xx_HAL_Driver/Src/stm32l4xx_hal_flash_ex.c ****   return status;
 565              		.loc 1 974 3 view .LVU213
 566              	.LVL62:
 567              		.loc 1 974 3 is_stmt 0 view .LVU214
 568              	.LBE19:
 569              	.LBE18:
 344:../Drivers/STM32L4xx_HAL_Driver/Src/stm32l4xx_hal_flash_ex.c ****     }
 570              		.loc 1 344 14 view .LVU215
 571 0216 0028     		cmp	r0, #0
 572 0218 18BF     		it	ne
 573 021a 0125     		movne	r5, #1
ARM GAS  C:\Users\hoodc\AppData\Local\Temp\ccsNrQcU.s 			page 29


 574              	.LVL63:
 344:../Drivers/STM32L4xx_HAL_Driver/Src/stm32l4xx_hal_flash_ex.c ****     }
 575              		.loc 1 344 14 view .LVU216
 576 021c 1AE7     		b	.L12
 577              	.LVL64:
 578              	.L31:
 344:../Drivers/STM32L4xx_HAL_Driver/Src/stm32l4xx_hal_flash_ex.c ****     }
 579              		.loc 1 344 14 view .LVU217
 580 021e 0125     		movs	r5, #1
 581              	.LVL65:
 344:../Drivers/STM32L4xx_HAL_Driver/Src/stm32l4xx_hal_flash_ex.c ****     }
 582              		.loc 1 344 14 view .LVU218
 583 0220 18E7     		b	.L12
 584              	.LVL66:
 585              	.L37:
 354:../Drivers/STM32L4xx_HAL_Driver/Src/stm32l4xx_hal_flash_ex.c ****       {
 586              		.loc 1 354 7 is_stmt 1 view .LVU219
 354:../Drivers/STM32L4xx_HAL_Driver/Src/stm32l4xx_hal_flash_ex.c ****       {
 587              		.loc 1 354 10 is_stmt 0 view .LVU220
 588 0222 D4F81C80 		ldr	r8, [r4, #28]
 589              	.LVL67:
 590              	.LBB20:
 591              	.LBI20:
 975:../Drivers/STM32L4xx_HAL_Driver/Src/stm32l4xx_hal_flash_ex.c **** }
 976:../Drivers/STM32L4xx_HAL_Driver/Src/stm32l4xx_hal_flash_ex.c **** 
 977:../Drivers/STM32L4xx_HAL_Driver/Src/stm32l4xx_hal_flash_ex.c **** /**
 978:../Drivers/STM32L4xx_HAL_Driver/Src/stm32l4xx_hal_flash_ex.c ****   * @brief  Configure the Proprietary code readout protection of the desired addresses.
 979:../Drivers/STM32L4xx_HAL_Driver/Src/stm32l4xx_hal_flash_ex.c ****   *
 980:../Drivers/STM32L4xx_HAL_Driver/Src/stm32l4xx_hal_flash_ex.c ****   * @note   To configure the PCROP options, the option lock bit OPTLOCK must be
 981:../Drivers/STM32L4xx_HAL_Driver/Src/stm32l4xx_hal_flash_ex.c ****   *         cleared with the call of the HAL_FLASH_OB_Unlock() function.
 982:../Drivers/STM32L4xx_HAL_Driver/Src/stm32l4xx_hal_flash_ex.c ****   * @note   To validate the PCROP options, the option bytes must be reloaded
 983:../Drivers/STM32L4xx_HAL_Driver/Src/stm32l4xx_hal_flash_ex.c ****   *         through the call of the HAL_FLASH_OB_Launch() function.
 984:../Drivers/STM32L4xx_HAL_Driver/Src/stm32l4xx_hal_flash_ex.c ****   *
 985:../Drivers/STM32L4xx_HAL_Driver/Src/stm32l4xx_hal_flash_ex.c ****   * @param  PCROPConfig specifies the configuration (Bank to be configured and PCROP_RDP option).
 986:../Drivers/STM32L4xx_HAL_Driver/Src/stm32l4xx_hal_flash_ex.c ****   *          This parameter must be a combination of FLASH_BANK_1 or FLASH_BANK_2
 987:../Drivers/STM32L4xx_HAL_Driver/Src/stm32l4xx_hal_flash_ex.c ****   *          with OB_PCROP_RDP_NOT_ERASE or OB_PCROP_RDP_ERASE
 988:../Drivers/STM32L4xx_HAL_Driver/Src/stm32l4xx_hal_flash_ex.c ****   *
 989:../Drivers/STM32L4xx_HAL_Driver/Src/stm32l4xx_hal_flash_ex.c ****   * @param  PCROPStartAddr specifies the start address of the Proprietary code readout protection
 990:../Drivers/STM32L4xx_HAL_Driver/Src/stm32l4xx_hal_flash_ex.c ****   *          This parameter can be an address between begin and end of the bank
 991:../Drivers/STM32L4xx_HAL_Driver/Src/stm32l4xx_hal_flash_ex.c ****   *
 992:../Drivers/STM32L4xx_HAL_Driver/Src/stm32l4xx_hal_flash_ex.c ****   * @param  PCROPEndAddr specifies the end address of the Proprietary code readout protection
 993:../Drivers/STM32L4xx_HAL_Driver/Src/stm32l4xx_hal_flash_ex.c ****   *          This parameter can be an address between PCROPStartAddr and end of the bank
 994:../Drivers/STM32L4xx_HAL_Driver/Src/stm32l4xx_hal_flash_ex.c ****   *
 995:../Drivers/STM32L4xx_HAL_Driver/Src/stm32l4xx_hal_flash_ex.c ****   * @retval HAL Status
 996:../Drivers/STM32L4xx_HAL_Driver/Src/stm32l4xx_hal_flash_ex.c ****   */
 997:../Drivers/STM32L4xx_HAL_Driver/Src/stm32l4xx_hal_flash_ex.c **** static HAL_StatusTypeDef FLASH_OB_PCROPConfig(uint32_t PCROPConfig, uint32_t PCROPStartAddr, uint32
 592              		.loc 1 997 26 is_stmt 1 view .LVU221
 593              	.LBB21:
 998:../Drivers/STM32L4xx_HAL_Driver/Src/stm32l4xx_hal_flash_ex.c **** {
 999:../Drivers/STM32L4xx_HAL_Driver/Src/stm32l4xx_hal_flash_ex.c ****   HAL_StatusTypeDef status;
 594              		.loc 1 999 3 view .LVU222
1000:../Drivers/STM32L4xx_HAL_Driver/Src/stm32l4xx_hal_flash_ex.c ****   uint32_t reg_value;
 595              		.loc 1 1000 3 view .LVU223
1001:../Drivers/STM32L4xx_HAL_Driver/Src/stm32l4xx_hal_flash_ex.c ****   uint32_t bank1_addr;
 596              		.loc 1 1001 3 view .LVU224
1002:../Drivers/STM32L4xx_HAL_Driver/Src/stm32l4xx_hal_flash_ex.c **** #if defined (STM32L471xx) || defined (STM32L475xx) || defined (STM32L476xx) || defined (STM32L485xx
1003:../Drivers/STM32L4xx_HAL_Driver/Src/stm32l4xx_hal_flash_ex.c ****     defined (STM32L496xx) || defined (STM32L4A6xx) || \
ARM GAS  C:\Users\hoodc\AppData\Local\Temp\ccsNrQcU.s 			page 30


1004:../Drivers/STM32L4xx_HAL_Driver/Src/stm32l4xx_hal_flash_ex.c ****     defined (STM32L4P5xx) || defined (STM32L4Q5xx) || \
1005:../Drivers/STM32L4xx_HAL_Driver/Src/stm32l4xx_hal_flash_ex.c ****     defined (STM32L4R5xx) || defined (STM32L4R7xx) || defined (STM32L4R9xx) || defined (STM32L4S5xx
1006:../Drivers/STM32L4xx_HAL_Driver/Src/stm32l4xx_hal_flash_ex.c ****   uint32_t bank2_addr;
1007:../Drivers/STM32L4xx_HAL_Driver/Src/stm32l4xx_hal_flash_ex.c **** #endif
1008:../Drivers/STM32L4xx_HAL_Driver/Src/stm32l4xx_hal_flash_ex.c **** 
1009:../Drivers/STM32L4xx_HAL_Driver/Src/stm32l4xx_hal_flash_ex.c ****   /* Check the parameters */
1010:../Drivers/STM32L4xx_HAL_Driver/Src/stm32l4xx_hal_flash_ex.c ****   assert_param(IS_FLASH_BANK_EXCLUSIVE(PCROPConfig & FLASH_BANK_BOTH));
 597              		.loc 1 1010 3 view .LVU225
1011:../Drivers/STM32L4xx_HAL_Driver/Src/stm32l4xx_hal_flash_ex.c ****   assert_param(IS_OB_PCROP_RDP(PCROPConfig & FLASH_PCROP1ER_PCROP_RDP));
 598              		.loc 1 1011 3 view .LVU226
1012:../Drivers/STM32L4xx_HAL_Driver/Src/stm32l4xx_hal_flash_ex.c ****   assert_param(IS_FLASH_MAIN_MEM_ADDRESS(PCROPStartAddr));
 599              		.loc 1 1012 3 view .LVU227
1013:../Drivers/STM32L4xx_HAL_Driver/Src/stm32l4xx_hal_flash_ex.c ****   assert_param(IS_FLASH_MAIN_MEM_ADDRESS(PCROPEndAddr));
 600              		.loc 1 1013 3 view .LVU228
1014:../Drivers/STM32L4xx_HAL_Driver/Src/stm32l4xx_hal_flash_ex.c **** 
1015:../Drivers/STM32L4xx_HAL_Driver/Src/stm32l4xx_hal_flash_ex.c ****   /* Wait for last operation to be completed */
1016:../Drivers/STM32L4xx_HAL_Driver/Src/stm32l4xx_hal_flash_ex.c ****   status = FLASH_WaitForLastOperation((uint32_t)FLASH_TIMEOUT_VALUE);
 601              		.loc 1 1016 3 view .LVU229
 602              		.loc 1 1016 12 is_stmt 0 view .LVU230
 603 0226 4CF25030 		movw	r0, #50000
 604 022a FFF7FEFF 		bl	FLASH_WaitForLastOperation
 605              	.LVL68:
1017:../Drivers/STM32L4xx_HAL_Driver/Src/stm32l4xx_hal_flash_ex.c **** 
1018:../Drivers/STM32L4xx_HAL_Driver/Src/stm32l4xx_hal_flash_ex.c ****   if(status == HAL_OK)
 606              		.loc 1 1018 3 is_stmt 1 view .LVU231
 607              		.loc 1 1018 5 is_stmt 0 view .LVU232
 608 022e 80BB     		cbnz	r0, .L33
1019:../Drivers/STM32L4xx_HAL_Driver/Src/stm32l4xx_hal_flash_ex.c ****   {
1020:../Drivers/STM32L4xx_HAL_Driver/Src/stm32l4xx_hal_flash_ex.c **** #if defined (STM32L471xx) || defined (STM32L475xx) || defined (STM32L476xx) || defined (STM32L485xx
1021:../Drivers/STM32L4xx_HAL_Driver/Src/stm32l4xx_hal_flash_ex.c ****     defined (STM32L496xx) || defined (STM32L4A6xx) || \
1022:../Drivers/STM32L4xx_HAL_Driver/Src/stm32l4xx_hal_flash_ex.c ****     defined (STM32L4P5xx) || defined (STM32L4Q5xx) || \
1023:../Drivers/STM32L4xx_HAL_Driver/Src/stm32l4xx_hal_flash_ex.c ****     defined (STM32L4R5xx) || defined (STM32L4R7xx) || defined (STM32L4R9xx) || defined (STM32L4S5xx
1024:../Drivers/STM32L4xx_HAL_Driver/Src/stm32l4xx_hal_flash_ex.c ****     /* Get the information about the bank swapping */
1025:../Drivers/STM32L4xx_HAL_Driver/Src/stm32l4xx_hal_flash_ex.c ****     if (READ_BIT(SYSCFG->MEMRMP, SYSCFG_MEMRMP_FB_MODE) == 0U)
1026:../Drivers/STM32L4xx_HAL_Driver/Src/stm32l4xx_hal_flash_ex.c ****     {
1027:../Drivers/STM32L4xx_HAL_Driver/Src/stm32l4xx_hal_flash_ex.c ****       bank1_addr = FLASH_BASE;
1028:../Drivers/STM32L4xx_HAL_Driver/Src/stm32l4xx_hal_flash_ex.c ****       bank2_addr = FLASH_BASE + FLASH_BANK_SIZE;
1029:../Drivers/STM32L4xx_HAL_Driver/Src/stm32l4xx_hal_flash_ex.c ****     }
1030:../Drivers/STM32L4xx_HAL_Driver/Src/stm32l4xx_hal_flash_ex.c ****     else
1031:../Drivers/STM32L4xx_HAL_Driver/Src/stm32l4xx_hal_flash_ex.c ****     {
1032:../Drivers/STM32L4xx_HAL_Driver/Src/stm32l4xx_hal_flash_ex.c ****       bank1_addr = FLASH_BASE + FLASH_BANK_SIZE;
1033:../Drivers/STM32L4xx_HAL_Driver/Src/stm32l4xx_hal_flash_ex.c ****       bank2_addr = FLASH_BASE;
1034:../Drivers/STM32L4xx_HAL_Driver/Src/stm32l4xx_hal_flash_ex.c ****     }
1035:../Drivers/STM32L4xx_HAL_Driver/Src/stm32l4xx_hal_flash_ex.c **** #else
1036:../Drivers/STM32L4xx_HAL_Driver/Src/stm32l4xx_hal_flash_ex.c ****     bank1_addr = FLASH_BASE;
 609              		.loc 1 1036 5 is_stmt 1 view .LVU233
 610              	.LVL69:
1037:../Drivers/STM32L4xx_HAL_Driver/Src/stm32l4xx_hal_flash_ex.c **** #endif
1038:../Drivers/STM32L4xx_HAL_Driver/Src/stm32l4xx_hal_flash_ex.c **** 
1039:../Drivers/STM32L4xx_HAL_Driver/Src/stm32l4xx_hal_flash_ex.c **** #if defined (STM32L4P5xx) || defined (STM32L4Q5xx) || defined (STM32L4R5xx) || defined (STM32L4R7xx
1040:../Drivers/STM32L4xx_HAL_Driver/Src/stm32l4xx_hal_flash_ex.c ****     if (READ_BIT(FLASH->OPTR, FLASH_OPTR_DBANK) == 0U)
1041:../Drivers/STM32L4xx_HAL_Driver/Src/stm32l4xx_hal_flash_ex.c ****     {
1042:../Drivers/STM32L4xx_HAL_Driver/Src/stm32l4xx_hal_flash_ex.c ****       /* Configure the Proprietary code readout protection */
1043:../Drivers/STM32L4xx_HAL_Driver/Src/stm32l4xx_hal_flash_ex.c ****       if((PCROPConfig & FLASH_BANK_BOTH) == FLASH_BANK_1)
1044:../Drivers/STM32L4xx_HAL_Driver/Src/stm32l4xx_hal_flash_ex.c ****       {
1045:../Drivers/STM32L4xx_HAL_Driver/Src/stm32l4xx_hal_flash_ex.c ****         reg_value = ((PCROPStartAddr - FLASH_BASE) >> 4);
1046:../Drivers/STM32L4xx_HAL_Driver/Src/stm32l4xx_hal_flash_ex.c ****         MODIFY_REG(FLASH->PCROP1SR, FLASH_PCROP1SR_PCROP1_STRT, reg_value);
ARM GAS  C:\Users\hoodc\AppData\Local\Temp\ccsNrQcU.s 			page 31


1047:../Drivers/STM32L4xx_HAL_Driver/Src/stm32l4xx_hal_flash_ex.c **** 
1048:../Drivers/STM32L4xx_HAL_Driver/Src/stm32l4xx_hal_flash_ex.c ****         reg_value = ((PCROPEndAddr - FLASH_BASE) >> 4);
1049:../Drivers/STM32L4xx_HAL_Driver/Src/stm32l4xx_hal_flash_ex.c ****         MODIFY_REG(FLASH->PCROP1ER, FLASH_PCROP1ER_PCROP1_END, reg_value);
1050:../Drivers/STM32L4xx_HAL_Driver/Src/stm32l4xx_hal_flash_ex.c ****       }
1051:../Drivers/STM32L4xx_HAL_Driver/Src/stm32l4xx_hal_flash_ex.c ****       else if((PCROPConfig & FLASH_BANK_BOTH) == FLASH_BANK_2)
1052:../Drivers/STM32L4xx_HAL_Driver/Src/stm32l4xx_hal_flash_ex.c ****       {
1053:../Drivers/STM32L4xx_HAL_Driver/Src/stm32l4xx_hal_flash_ex.c ****         reg_value = ((PCROPStartAddr - FLASH_BASE) >> 4);
1054:../Drivers/STM32L4xx_HAL_Driver/Src/stm32l4xx_hal_flash_ex.c ****         MODIFY_REG(FLASH->PCROP2SR, FLASH_PCROP2SR_PCROP2_STRT, reg_value);
1055:../Drivers/STM32L4xx_HAL_Driver/Src/stm32l4xx_hal_flash_ex.c **** 
1056:../Drivers/STM32L4xx_HAL_Driver/Src/stm32l4xx_hal_flash_ex.c ****         reg_value = ((PCROPEndAddr - FLASH_BASE) >> 4);
1057:../Drivers/STM32L4xx_HAL_Driver/Src/stm32l4xx_hal_flash_ex.c ****         MODIFY_REG(FLASH->PCROP2ER, FLASH_PCROP2ER_PCROP2_END, reg_value);
1058:../Drivers/STM32L4xx_HAL_Driver/Src/stm32l4xx_hal_flash_ex.c ****       }
1059:../Drivers/STM32L4xx_HAL_Driver/Src/stm32l4xx_hal_flash_ex.c ****       else
1060:../Drivers/STM32L4xx_HAL_Driver/Src/stm32l4xx_hal_flash_ex.c ****       {
1061:../Drivers/STM32L4xx_HAL_Driver/Src/stm32l4xx_hal_flash_ex.c ****         /* Nothing to do */
1062:../Drivers/STM32L4xx_HAL_Driver/Src/stm32l4xx_hal_flash_ex.c ****       }
1063:../Drivers/STM32L4xx_HAL_Driver/Src/stm32l4xx_hal_flash_ex.c ****     }
1064:../Drivers/STM32L4xx_HAL_Driver/Src/stm32l4xx_hal_flash_ex.c ****     else
1065:../Drivers/STM32L4xx_HAL_Driver/Src/stm32l4xx_hal_flash_ex.c **** #endif
1066:../Drivers/STM32L4xx_HAL_Driver/Src/stm32l4xx_hal_flash_ex.c ****     {
1067:../Drivers/STM32L4xx_HAL_Driver/Src/stm32l4xx_hal_flash_ex.c ****       /* Configure the Proprietary code readout protection */
1068:../Drivers/STM32L4xx_HAL_Driver/Src/stm32l4xx_hal_flash_ex.c ****       if((PCROPConfig & FLASH_BANK_BOTH) == FLASH_BANK_1)
 611              		.loc 1 1068 7 view .LVU234
 612              		.loc 1 1068 9 is_stmt 0 view .LVU235
 613 0230 18F0010F 		tst	r8, #1
 614 0234 14D0     		beq	.L27
1069:../Drivers/STM32L4xx_HAL_Driver/Src/stm32l4xx_hal_flash_ex.c ****       {
1070:../Drivers/STM32L4xx_HAL_Driver/Src/stm32l4xx_hal_flash_ex.c ****         reg_value = ((PCROPStartAddr - bank1_addr) >> 3);
 615              		.loc 1 1070 9 is_stmt 1 view .LVU236
 616              	.LVL70:
1071:../Drivers/STM32L4xx_HAL_Driver/Src/stm32l4xx_hal_flash_ex.c ****         MODIFY_REG(FLASH->PCROP1SR, FLASH_PCROP1SR_PCROP1_STRT, reg_value);
 617              		.loc 1 1071 9 view .LVU237
 618 0236 1A4A     		ldr	r2, .L39+4
 619 0238 536A     		ldr	r3, [r2, #36]
1070:../Drivers/STM32L4xx_HAL_Driver/Src/stm32l4xx_hal_flash_ex.c ****         MODIFY_REG(FLASH->PCROP1SR, FLASH_PCROP1SR_PCROP1_STRT, reg_value);
 620              		.loc 1 1070 38 is_stmt 0 view .LVU238
 621 023a 07F17847 		add	r7, r7, #-134217728
 622              	.LVL71:
 623              		.loc 1 1071 9 view .LVU239
 624 023e 23F47F53 		bic	r3, r3, #16320
 625 0242 23F03F03 		bic	r3, r3, #63
 626 0246 43EAD707 		orr	r7, r3, r7, lsr #3
 627              	.LVL72:
 628              		.loc 1 1071 9 view .LVU240
 629 024a 5762     		str	r7, [r2, #36]
1072:../Drivers/STM32L4xx_HAL_Driver/Src/stm32l4xx_hal_flash_ex.c **** 
1073:../Drivers/STM32L4xx_HAL_Driver/Src/stm32l4xx_hal_flash_ex.c ****         reg_value = ((PCROPEndAddr - bank1_addr) >> 3);
 630              		.loc 1 1073 9 is_stmt 1 view .LVU241
 631              	.LVL73:
1074:../Drivers/STM32L4xx_HAL_Driver/Src/stm32l4xx_hal_flash_ex.c ****         MODIFY_REG(FLASH->PCROP1ER, FLASH_PCROP1ER_PCROP1_END, reg_value);
 632              		.loc 1 1074 9 view .LVU242
 633 024c 936A     		ldr	r3, [r2, #40]
1073:../Drivers/STM32L4xx_HAL_Driver/Src/stm32l4xx_hal_flash_ex.c ****         MODIFY_REG(FLASH->PCROP1ER, FLASH_PCROP1ER_PCROP1_END, reg_value);
 634              		.loc 1 1073 36 is_stmt 0 view .LVU243
 635 024e 06F17846 		add	r6, r6, #-134217728
 636              	.LVL74:
 637              		.loc 1 1074 9 view .LVU244
ARM GAS  C:\Users\hoodc\AppData\Local\Temp\ccsNrQcU.s 			page 32


 638 0252 23F47F53 		bic	r3, r3, #16320
 639 0256 23F03F03 		bic	r3, r3, #63
 640 025a 43EAD606 		orr	r6, r3, r6, lsr #3
 641              	.LVL75:
 642              		.loc 1 1074 9 view .LVU245
 643 025e 9662     		str	r6, [r2, #40]
 644              	.L27:
1075:../Drivers/STM32L4xx_HAL_Driver/Src/stm32l4xx_hal_flash_ex.c ****       }
1076:../Drivers/STM32L4xx_HAL_Driver/Src/stm32l4xx_hal_flash_ex.c **** #if defined (STM32L471xx) || defined (STM32L475xx) || defined (STM32L476xx) || defined (STM32L485xx
1077:../Drivers/STM32L4xx_HAL_Driver/Src/stm32l4xx_hal_flash_ex.c ****     defined (STM32L496xx) || defined (STM32L4A6xx) || \
1078:../Drivers/STM32L4xx_HAL_Driver/Src/stm32l4xx_hal_flash_ex.c ****     defined (STM32L4P5xx) || defined (STM32L4Q5xx) || \
1079:../Drivers/STM32L4xx_HAL_Driver/Src/stm32l4xx_hal_flash_ex.c ****     defined (STM32L4R5xx) || defined (STM32L4R7xx) || defined (STM32L4R9xx) || defined (STM32L4S5xx
1080:../Drivers/STM32L4xx_HAL_Driver/Src/stm32l4xx_hal_flash_ex.c ****       else if((PCROPConfig & FLASH_BANK_BOTH) == FLASH_BANK_2)
1081:../Drivers/STM32L4xx_HAL_Driver/Src/stm32l4xx_hal_flash_ex.c ****       {
1082:../Drivers/STM32L4xx_HAL_Driver/Src/stm32l4xx_hal_flash_ex.c ****         reg_value = ((PCROPStartAddr - bank2_addr) >> 3);
1083:../Drivers/STM32L4xx_HAL_Driver/Src/stm32l4xx_hal_flash_ex.c ****         MODIFY_REG(FLASH->PCROP2SR, FLASH_PCROP2SR_PCROP2_STRT, reg_value);
1084:../Drivers/STM32L4xx_HAL_Driver/Src/stm32l4xx_hal_flash_ex.c **** 
1085:../Drivers/STM32L4xx_HAL_Driver/Src/stm32l4xx_hal_flash_ex.c ****         reg_value = ((PCROPEndAddr - bank2_addr) >> 3);
1086:../Drivers/STM32L4xx_HAL_Driver/Src/stm32l4xx_hal_flash_ex.c ****         MODIFY_REG(FLASH->PCROP2ER, FLASH_PCROP2ER_PCROP2_END, reg_value);
1087:../Drivers/STM32L4xx_HAL_Driver/Src/stm32l4xx_hal_flash_ex.c ****       }
1088:../Drivers/STM32L4xx_HAL_Driver/Src/stm32l4xx_hal_flash_ex.c **** #endif
1089:../Drivers/STM32L4xx_HAL_Driver/Src/stm32l4xx_hal_flash_ex.c ****       else
1090:../Drivers/STM32L4xx_HAL_Driver/Src/stm32l4xx_hal_flash_ex.c ****       {
1091:../Drivers/STM32L4xx_HAL_Driver/Src/stm32l4xx_hal_flash_ex.c ****         /* Nothing to do */
1092:../Drivers/STM32L4xx_HAL_Driver/Src/stm32l4xx_hal_flash_ex.c ****       }
 645              		.loc 1 1092 7 is_stmt 1 view .LVU246
1093:../Drivers/STM32L4xx_HAL_Driver/Src/stm32l4xx_hal_flash_ex.c ****     }
1094:../Drivers/STM32L4xx_HAL_Driver/Src/stm32l4xx_hal_flash_ex.c **** 
1095:../Drivers/STM32L4xx_HAL_Driver/Src/stm32l4xx_hal_flash_ex.c ****     MODIFY_REG(FLASH->PCROP1ER, FLASH_PCROP1ER_PCROP_RDP, (PCROPConfig & FLASH_PCROP1ER_PCROP_RDP))
 646              		.loc 1 1095 5 view .LVU247
 647 0260 0F4C     		ldr	r4, .L39+4
 648              	.LVL76:
 649              		.loc 1 1095 5 is_stmt 0 view .LVU248
 650 0262 A36A     		ldr	r3, [r4, #40]
 651 0264 23F00043 		bic	r3, r3, #-2147483648
 652 0268 08F00048 		and	r8, r8, #-2147483648
 653              	.LVL77:
 654              		.loc 1 1095 5 view .LVU249
 655 026c 43EA0803 		orr	r3, r3, r8
 656 0270 A362     		str	r3, [r4, #40]
1096:../Drivers/STM32L4xx_HAL_Driver/Src/stm32l4xx_hal_flash_ex.c **** 
1097:../Drivers/STM32L4xx_HAL_Driver/Src/stm32l4xx_hal_flash_ex.c ****     /* Set OPTSTRT Bit */
1098:../Drivers/STM32L4xx_HAL_Driver/Src/stm32l4xx_hal_flash_ex.c ****     SET_BIT(FLASH->CR, FLASH_CR_OPTSTRT);
 657              		.loc 1 1098 5 is_stmt 1 view .LVU250
 658 0272 6369     		ldr	r3, [r4, #20]
 659 0274 43F40033 		orr	r3, r3, #131072
 660 0278 6361     		str	r3, [r4, #20]
1099:../Drivers/STM32L4xx_HAL_Driver/Src/stm32l4xx_hal_flash_ex.c **** 
1100:../Drivers/STM32L4xx_HAL_Driver/Src/stm32l4xx_hal_flash_ex.c ****     /* Wait for last operation to be completed */
1101:../Drivers/STM32L4xx_HAL_Driver/Src/stm32l4xx_hal_flash_ex.c ****     status = FLASH_WaitForLastOperation((uint32_t)FLASH_TIMEOUT_VALUE);
 661              		.loc 1 1101 5 view .LVU251
 662              		.loc 1 1101 14 is_stmt 0 view .LVU252
 663 027a 4CF25030 		movw	r0, #50000
 664              	.LVL78:
 665              		.loc 1 1101 14 view .LVU253
 666 027e FFF7FEFF 		bl	FLASH_WaitForLastOperation
 667              	.LVL79:
ARM GAS  C:\Users\hoodc\AppData\Local\Temp\ccsNrQcU.s 			page 33


1102:../Drivers/STM32L4xx_HAL_Driver/Src/stm32l4xx_hal_flash_ex.c **** 
1103:../Drivers/STM32L4xx_HAL_Driver/Src/stm32l4xx_hal_flash_ex.c ****     /* If the option byte program operation is completed, disable the OPTSTRT Bit */
1104:../Drivers/STM32L4xx_HAL_Driver/Src/stm32l4xx_hal_flash_ex.c ****     CLEAR_BIT(FLASH->CR, FLASH_CR_OPTSTRT);
 668              		.loc 1 1104 5 is_stmt 1 view .LVU254
 669 0282 6369     		ldr	r3, [r4, #20]
 670 0284 23F40033 		bic	r3, r3, #131072
 671 0288 6361     		str	r3, [r4, #20]
1105:../Drivers/STM32L4xx_HAL_Driver/Src/stm32l4xx_hal_flash_ex.c ****   }
1106:../Drivers/STM32L4xx_HAL_Driver/Src/stm32l4xx_hal_flash_ex.c **** 
1107:../Drivers/STM32L4xx_HAL_Driver/Src/stm32l4xx_hal_flash_ex.c ****   return status;
 672              		.loc 1 1107 3 view .LVU255
 673              	.LVL80:
 674              		.loc 1 1107 3 is_stmt 0 view .LVU256
 675              	.LBE21:
 676              	.LBE20:
 356:../Drivers/STM32L4xx_HAL_Driver/Src/stm32l4xx_hal_flash_ex.c ****       }
 677              		.loc 1 356 16 view .LVU257
 678 028a 0028     		cmp	r0, #0
 679 028c 18BF     		it	ne
 680 028e 0125     		movne	r5, #1
 681              	.LVL81:
 356:../Drivers/STM32L4xx_HAL_Driver/Src/stm32l4xx_hal_flash_ex.c ****       }
 682              		.loc 1 356 16 view .LVU258
 683 0290 E9E6     		b	.L26
 684              	.LVL82:
 685              	.L33:
 356:../Drivers/STM32L4xx_HAL_Driver/Src/stm32l4xx_hal_flash_ex.c ****       }
 686              		.loc 1 356 16 view .LVU259
 687 0292 0125     		movs	r5, #1
 688              	.LVL83:
 356:../Drivers/STM32L4xx_HAL_Driver/Src/stm32l4xx_hal_flash_ex.c ****       }
 689              		.loc 1 356 16 view .LVU260
 690 0294 E7E6     		b	.L26
 691              	.LVL84:
 692              	.L28:
 310:../Drivers/STM32L4xx_HAL_Driver/Src/stm32l4xx_hal_flash_ex.c **** 
 693              		.loc 1 310 3 view .LVU261
 694 0296 0225     		movs	r5, #2
 695 0298 E8E6     		b	.L6
 696              	.L40:
 697 029a 00BF     		.align	2
 698              	.L39:
 699 029c 00000000 		.word	pFlash
 700 02a0 00200240 		.word	1073881088
 701              		.cfi_endproc
 702              	.LFE135:
 703              		.size	HAL_FLASHEx_OBProgram, .-HAL_FLASHEx_OBProgram
 704              		.align	1
 705              		.global	HAL_FLASHEx_OBGetConfig
 706              		.syntax unified
 707              		.thumb
 708              		.thumb_func
 709              		.fpu softvfp
 710              		.type	HAL_FLASHEx_OBGetConfig, %function
 711              	HAL_FLASHEx_OBGetConfig:
 712              	.LVL85:
 713              	.LFB136:
ARM GAS  C:\Users\hoodc\AppData\Local\Temp\ccsNrQcU.s 			page 34


 377:../Drivers/STM32L4xx_HAL_Driver/Src/stm32l4xx_hal_flash_ex.c ****   pOBInit->OptionType = (OPTIONBYTE_RDP | OPTIONBYTE_USER);
 714              		.loc 1 377 1 is_stmt 1 view -0
 715              		.cfi_startproc
 716              		@ args = 0, pretend = 0, frame = 0
 717              		@ frame_needed = 0, uses_anonymous_args = 0
 718              		@ link register save eliminated.
 378:../Drivers/STM32L4xx_HAL_Driver/Src/stm32l4xx_hal_flash_ex.c **** 
 719              		.loc 1 378 3 view .LVU263
 378:../Drivers/STM32L4xx_HAL_Driver/Src/stm32l4xx_hal_flash_ex.c **** 
 720              		.loc 1 378 23 is_stmt 0 view .LVU264
 721 02a4 0623     		movs	r3, #6
 722 02a6 0360     		str	r3, [r0]
 387:../Drivers/STM32L4xx_HAL_Driver/Src/stm32l4xx_hal_flash_ex.c **** #endif
 723              		.loc 1 387 3 is_stmt 1 view .LVU265
 387:../Drivers/STM32L4xx_HAL_Driver/Src/stm32l4xx_hal_flash_ex.c **** #endif
 724              		.loc 1 387 14 is_stmt 0 view .LVU266
 725 02a8 4368     		ldr	r3, [r0, #4]
 387:../Drivers/STM32L4xx_HAL_Driver/Src/stm32l4xx_hal_flash_ex.c **** #endif
 726              		.loc 1 387 5 view .LVU267
 727 02aa 012B     		cmp	r3, #1
 728 02ac 08D9     		bls	.L48
 729              	.L42:
 396:../Drivers/STM32L4xx_HAL_Driver/Src/stm32l4xx_hal_flash_ex.c **** 
 730              		.loc 1 396 3 is_stmt 1 view .LVU268
 731              	.LBB30:
 732              	.LBI30:
1108:../Drivers/STM32L4xx_HAL_Driver/Src/stm32l4xx_hal_flash_ex.c **** }
1109:../Drivers/STM32L4xx_HAL_Driver/Src/stm32l4xx_hal_flash_ex.c **** 
1110:../Drivers/STM32L4xx_HAL_Driver/Src/stm32l4xx_hal_flash_ex.c **** /**
1111:../Drivers/STM32L4xx_HAL_Driver/Src/stm32l4xx_hal_flash_ex.c ****   * @brief  Return the FLASH Write Protection Option Bytes value.
1112:../Drivers/STM32L4xx_HAL_Driver/Src/stm32l4xx_hal_flash_ex.c ****   *
1113:../Drivers/STM32L4xx_HAL_Driver/Src/stm32l4xx_hal_flash_ex.c ****   * @param[in]  WRPArea: specifies the area to be returned.
1114:../Drivers/STM32L4xx_HAL_Driver/Src/stm32l4xx_hal_flash_ex.c ****   *          This parameter can be one of the following values:
1115:../Drivers/STM32L4xx_HAL_Driver/Src/stm32l4xx_hal_flash_ex.c ****   *            @arg OB_WRPAREA_BANK1_AREAA: Flash Bank 1 Area A
1116:../Drivers/STM32L4xx_HAL_Driver/Src/stm32l4xx_hal_flash_ex.c ****   *            @arg OB_WRPAREA_BANK1_AREAB: Flash Bank 1 Area B
1117:../Drivers/STM32L4xx_HAL_Driver/Src/stm32l4xx_hal_flash_ex.c ****   *            @arg OB_WRPAREA_BANK2_AREAA: Flash Bank 2 Area A (don't apply to STM32L43x/STM32L44x
1118:../Drivers/STM32L4xx_HAL_Driver/Src/stm32l4xx_hal_flash_ex.c ****   *            @arg OB_WRPAREA_BANK2_AREAB: Flash Bank 2 Area B (don't apply to STM32L43x/STM32L44x
1119:../Drivers/STM32L4xx_HAL_Driver/Src/stm32l4xx_hal_flash_ex.c ****   *
1120:../Drivers/STM32L4xx_HAL_Driver/Src/stm32l4xx_hal_flash_ex.c ****   * @param[out]  WRPStartOffset: specifies the address where to copied the start page
1121:../Drivers/STM32L4xx_HAL_Driver/Src/stm32l4xx_hal_flash_ex.c ****   *                         of the write protected area
1122:../Drivers/STM32L4xx_HAL_Driver/Src/stm32l4xx_hal_flash_ex.c ****   *
1123:../Drivers/STM32L4xx_HAL_Driver/Src/stm32l4xx_hal_flash_ex.c ****   * @param[out]  WRDPEndOffset: specifies the address where to copied the end page of
1124:../Drivers/STM32L4xx_HAL_Driver/Src/stm32l4xx_hal_flash_ex.c ****   *                        the write protected area
1125:../Drivers/STM32L4xx_HAL_Driver/Src/stm32l4xx_hal_flash_ex.c ****   *
1126:../Drivers/STM32L4xx_HAL_Driver/Src/stm32l4xx_hal_flash_ex.c ****   * @retval None
1127:../Drivers/STM32L4xx_HAL_Driver/Src/stm32l4xx_hal_flash_ex.c ****   */
1128:../Drivers/STM32L4xx_HAL_Driver/Src/stm32l4xx_hal_flash_ex.c **** static void FLASH_OB_GetWRP(uint32_t WRPArea, uint32_t * WRPStartOffset, uint32_t * WRDPEndOffset)
1129:../Drivers/STM32L4xx_HAL_Driver/Src/stm32l4xx_hal_flash_ex.c **** {
1130:../Drivers/STM32L4xx_HAL_Driver/Src/stm32l4xx_hal_flash_ex.c ****   /* Get the configuration of the write protected area */
1131:../Drivers/STM32L4xx_HAL_Driver/Src/stm32l4xx_hal_flash_ex.c ****   if(WRPArea == OB_WRPAREA_BANK1_AREAA)
1132:../Drivers/STM32L4xx_HAL_Driver/Src/stm32l4xx_hal_flash_ex.c ****   {
1133:../Drivers/STM32L4xx_HAL_Driver/Src/stm32l4xx_hal_flash_ex.c ****     *WRPStartOffset = READ_BIT(FLASH->WRP1AR, FLASH_WRP1AR_WRP1A_STRT);
1134:../Drivers/STM32L4xx_HAL_Driver/Src/stm32l4xx_hal_flash_ex.c ****     *WRDPEndOffset = (READ_BIT(FLASH->WRP1AR, FLASH_WRP1AR_WRP1A_END) >> 16);
1135:../Drivers/STM32L4xx_HAL_Driver/Src/stm32l4xx_hal_flash_ex.c ****   }
1136:../Drivers/STM32L4xx_HAL_Driver/Src/stm32l4xx_hal_flash_ex.c ****   else if(WRPArea == OB_WRPAREA_BANK1_AREAB)
1137:../Drivers/STM32L4xx_HAL_Driver/Src/stm32l4xx_hal_flash_ex.c ****   {
1138:../Drivers/STM32L4xx_HAL_Driver/Src/stm32l4xx_hal_flash_ex.c ****     *WRPStartOffset = READ_BIT(FLASH->WRP1BR, FLASH_WRP1BR_WRP1B_STRT);
ARM GAS  C:\Users\hoodc\AppData\Local\Temp\ccsNrQcU.s 			page 35


1139:../Drivers/STM32L4xx_HAL_Driver/Src/stm32l4xx_hal_flash_ex.c ****     *WRDPEndOffset = (READ_BIT(FLASH->WRP1BR, FLASH_WRP1BR_WRP1B_END) >> 16);
1140:../Drivers/STM32L4xx_HAL_Driver/Src/stm32l4xx_hal_flash_ex.c ****   }
1141:../Drivers/STM32L4xx_HAL_Driver/Src/stm32l4xx_hal_flash_ex.c **** #if defined (STM32L471xx) || defined (STM32L475xx) || defined (STM32L476xx) || defined (STM32L485xx
1142:../Drivers/STM32L4xx_HAL_Driver/Src/stm32l4xx_hal_flash_ex.c ****     defined (STM32L496xx) || defined (STM32L4A6xx) || \
1143:../Drivers/STM32L4xx_HAL_Driver/Src/stm32l4xx_hal_flash_ex.c ****     defined (STM32L4P5xx) || defined (STM32L4Q5xx) || \
1144:../Drivers/STM32L4xx_HAL_Driver/Src/stm32l4xx_hal_flash_ex.c ****     defined (STM32L4R5xx) || defined (STM32L4R7xx) || defined (STM32L4R9xx) || defined (STM32L4S5xx
1145:../Drivers/STM32L4xx_HAL_Driver/Src/stm32l4xx_hal_flash_ex.c ****   else if(WRPArea == OB_WRPAREA_BANK2_AREAA)
1146:../Drivers/STM32L4xx_HAL_Driver/Src/stm32l4xx_hal_flash_ex.c ****   {
1147:../Drivers/STM32L4xx_HAL_Driver/Src/stm32l4xx_hal_flash_ex.c ****     *WRPStartOffset = READ_BIT(FLASH->WRP2AR, FLASH_WRP2AR_WRP2A_STRT);
1148:../Drivers/STM32L4xx_HAL_Driver/Src/stm32l4xx_hal_flash_ex.c ****     *WRDPEndOffset = (READ_BIT(FLASH->WRP2AR, FLASH_WRP2AR_WRP2A_END) >> 16);
1149:../Drivers/STM32L4xx_HAL_Driver/Src/stm32l4xx_hal_flash_ex.c ****   }
1150:../Drivers/STM32L4xx_HAL_Driver/Src/stm32l4xx_hal_flash_ex.c ****   else if(WRPArea == OB_WRPAREA_BANK2_AREAB)
1151:../Drivers/STM32L4xx_HAL_Driver/Src/stm32l4xx_hal_flash_ex.c ****   {
1152:../Drivers/STM32L4xx_HAL_Driver/Src/stm32l4xx_hal_flash_ex.c ****     *WRPStartOffset = READ_BIT(FLASH->WRP2BR, FLASH_WRP2BR_WRP2B_STRT);
1153:../Drivers/STM32L4xx_HAL_Driver/Src/stm32l4xx_hal_flash_ex.c ****     *WRDPEndOffset = (READ_BIT(FLASH->WRP2BR, FLASH_WRP2BR_WRP2B_END) >> 16);
1154:../Drivers/STM32L4xx_HAL_Driver/Src/stm32l4xx_hal_flash_ex.c ****   }
1155:../Drivers/STM32L4xx_HAL_Driver/Src/stm32l4xx_hal_flash_ex.c **** #endif
1156:../Drivers/STM32L4xx_HAL_Driver/Src/stm32l4xx_hal_flash_ex.c ****   else
1157:../Drivers/STM32L4xx_HAL_Driver/Src/stm32l4xx_hal_flash_ex.c ****   {
1158:../Drivers/STM32L4xx_HAL_Driver/Src/stm32l4xx_hal_flash_ex.c ****     /* Nothing to do */
1159:../Drivers/STM32L4xx_HAL_Driver/Src/stm32l4xx_hal_flash_ex.c ****   }
1160:../Drivers/STM32L4xx_HAL_Driver/Src/stm32l4xx_hal_flash_ex.c **** }
1161:../Drivers/STM32L4xx_HAL_Driver/Src/stm32l4xx_hal_flash_ex.c **** 
1162:../Drivers/STM32L4xx_HAL_Driver/Src/stm32l4xx_hal_flash_ex.c **** /**
1163:../Drivers/STM32L4xx_HAL_Driver/Src/stm32l4xx_hal_flash_ex.c ****   * @brief  Return the FLASH Read Protection level.
1164:../Drivers/STM32L4xx_HAL_Driver/Src/stm32l4xx_hal_flash_ex.c ****   * @retval FLASH ReadOut Protection Status:
1165:../Drivers/STM32L4xx_HAL_Driver/Src/stm32l4xx_hal_flash_ex.c ****   *         This return value can be one of the following values:
1166:../Drivers/STM32L4xx_HAL_Driver/Src/stm32l4xx_hal_flash_ex.c ****   *            @arg OB_RDP_LEVEL_0: No protection
1167:../Drivers/STM32L4xx_HAL_Driver/Src/stm32l4xx_hal_flash_ex.c ****   *            @arg OB_RDP_LEVEL_1: Read protection of the memory
1168:../Drivers/STM32L4xx_HAL_Driver/Src/stm32l4xx_hal_flash_ex.c ****   *            @arg OB_RDP_LEVEL_2: Full chip protection
1169:../Drivers/STM32L4xx_HAL_Driver/Src/stm32l4xx_hal_flash_ex.c ****   */
1170:../Drivers/STM32L4xx_HAL_Driver/Src/stm32l4xx_hal_flash_ex.c **** static uint32_t FLASH_OB_GetRDP(void)
 733              		.loc 1 1170 17 view .LVU269
 734              	.LBB31:
1171:../Drivers/STM32L4xx_HAL_Driver/Src/stm32l4xx_hal_flash_ex.c **** {
1172:../Drivers/STM32L4xx_HAL_Driver/Src/stm32l4xx_hal_flash_ex.c ****   uint32_t rdp_level = READ_BIT(FLASH->OPTR, FLASH_OPTR_RDP);
 735              		.loc 1 1172 3 view .LVU270
 736              		.loc 1 1172 24 is_stmt 0 view .LVU271
 737 02ae 234B     		ldr	r3, .L50
 738 02b0 1B6A     		ldr	r3, [r3, #32]
 739              		.loc 1 1172 12 view .LVU272
 740 02b2 DBB2     		uxtb	r3, r3
 741              	.LVL86:
1173:../Drivers/STM32L4xx_HAL_Driver/Src/stm32l4xx_hal_flash_ex.c **** 
1174:../Drivers/STM32L4xx_HAL_Driver/Src/stm32l4xx_hal_flash_ex.c ****   if ((rdp_level != OB_RDP_LEVEL_0) && (rdp_level != OB_RDP_LEVEL_2))
 742              		.loc 1 1174 3 is_stmt 1 view .LVU273
 743              		.loc 1 1174 6 is_stmt 0 view .LVU274
 744 02b4 AA2B     		cmp	r3, #170
 745 02b6 1AD0     		beq	.L44
 746              		.loc 1 1174 37 view .LVU275
 747 02b8 CC2B     		cmp	r3, #204
 748 02ba 18D0     		beq	.L44
1175:../Drivers/STM32L4xx_HAL_Driver/Src/stm32l4xx_hal_flash_ex.c ****   {
1176:../Drivers/STM32L4xx_HAL_Driver/Src/stm32l4xx_hal_flash_ex.c ****     return (OB_RDP_LEVEL_1);
 749              		.loc 1 1176 12 view .LVU276
 750 02bc BB23     		movs	r3, #187
 751              	.LVL87:
ARM GAS  C:\Users\hoodc\AppData\Local\Temp\ccsNrQcU.s 			page 36


 752              		.loc 1 1176 12 view .LVU277
 753 02be 19E0     		b	.L45
 754              	.L48:
 755              		.loc 1 1176 12 view .LVU278
 756              	.LBE31:
 757              	.LBE30:
 390:../Drivers/STM32L4xx_HAL_Driver/Src/stm32l4xx_hal_flash_ex.c ****     /* Get write protection on the selected area */
 758              		.loc 1 390 5 is_stmt 1 view .LVU279
 390:../Drivers/STM32L4xx_HAL_Driver/Src/stm32l4xx_hal_flash_ex.c ****     /* Get write protection on the selected area */
 759              		.loc 1 390 25 is_stmt 0 view .LVU280
 760 02c0 0722     		movs	r2, #7
 761 02c2 0260     		str	r2, [r0]
 392:../Drivers/STM32L4xx_HAL_Driver/Src/stm32l4xx_hal_flash_ex.c ****   }
 762              		.loc 1 392 5 is_stmt 1 view .LVU281
 763              	.LVL88:
 764              	.LBB33:
 765              	.LBI33:
1128:../Drivers/STM32L4xx_HAL_Driver/Src/stm32l4xx_hal_flash_ex.c **** {
 766              		.loc 1 1128 13 view .LVU282
 767              	.LBB34:
1131:../Drivers/STM32L4xx_HAL_Driver/Src/stm32l4xx_hal_flash_ex.c ****   {
 768              		.loc 1 1131 3 view .LVU283
1131:../Drivers/STM32L4xx_HAL_Driver/Src/stm32l4xx_hal_flash_ex.c ****   {
 769              		.loc 1 1131 5 is_stmt 0 view .LVU284
 770 02c4 4BB9     		cbnz	r3, .L43
1133:../Drivers/STM32L4xx_HAL_Driver/Src/stm32l4xx_hal_flash_ex.c ****     *WRDPEndOffset = (READ_BIT(FLASH->WRP1AR, FLASH_WRP1AR_WRP1A_END) >> 16);
 771              		.loc 1 1133 5 is_stmt 1 view .LVU285
1133:../Drivers/STM32L4xx_HAL_Driver/Src/stm32l4xx_hal_flash_ex.c ****     *WRDPEndOffset = (READ_BIT(FLASH->WRP1AR, FLASH_WRP1AR_WRP1A_END) >> 16);
 772              		.loc 1 1133 23 is_stmt 0 view .LVU286
 773 02c6 1D4A     		ldr	r2, .L50
 774 02c8 D36A     		ldr	r3, [r2, #44]
 775              	.LVL89:
1133:../Drivers/STM32L4xx_HAL_Driver/Src/stm32l4xx_hal_flash_ex.c ****     *WRDPEndOffset = (READ_BIT(FLASH->WRP1AR, FLASH_WRP1AR_WRP1A_END) >> 16);
 776              		.loc 1 1133 23 view .LVU287
 777 02ca 03F03F03 		and	r3, r3, #63
1133:../Drivers/STM32L4xx_HAL_Driver/Src/stm32l4xx_hal_flash_ex.c ****     *WRDPEndOffset = (READ_BIT(FLASH->WRP1AR, FLASH_WRP1AR_WRP1A_END) >> 16);
 778              		.loc 1 1133 21 view .LVU288
 779 02ce 8360     		str	r3, [r0, #8]
1134:../Drivers/STM32L4xx_HAL_Driver/Src/stm32l4xx_hal_flash_ex.c ****   }
 780              		.loc 1 1134 5 is_stmt 1 view .LVU289
1134:../Drivers/STM32L4xx_HAL_Driver/Src/stm32l4xx_hal_flash_ex.c ****   }
 781              		.loc 1 1134 23 is_stmt 0 view .LVU290
 782 02d0 D36A     		ldr	r3, [r2, #44]
1134:../Drivers/STM32L4xx_HAL_Driver/Src/stm32l4xx_hal_flash_ex.c ****   }
 783              		.loc 1 1134 71 view .LVU291
 784 02d2 C3F30543 		ubfx	r3, r3, #16, #6
1134:../Drivers/STM32L4xx_HAL_Driver/Src/stm32l4xx_hal_flash_ex.c ****   }
 785              		.loc 1 1134 20 view .LVU292
 786 02d6 C360     		str	r3, [r0, #12]
 787 02d8 E9E7     		b	.L42
 788              	.LVL90:
 789              	.L43:
1136:../Drivers/STM32L4xx_HAL_Driver/Src/stm32l4xx_hal_flash_ex.c ****   {
 790              		.loc 1 1136 8 is_stmt 1 view .LVU293
1138:../Drivers/STM32L4xx_HAL_Driver/Src/stm32l4xx_hal_flash_ex.c ****     *WRDPEndOffset = (READ_BIT(FLASH->WRP1BR, FLASH_WRP1BR_WRP1B_END) >> 16);
 791              		.loc 1 1138 5 view .LVU294
1138:../Drivers/STM32L4xx_HAL_Driver/Src/stm32l4xx_hal_flash_ex.c ****     *WRDPEndOffset = (READ_BIT(FLASH->WRP1BR, FLASH_WRP1BR_WRP1B_END) >> 16);
ARM GAS  C:\Users\hoodc\AppData\Local\Temp\ccsNrQcU.s 			page 37


 792              		.loc 1 1138 23 is_stmt 0 view .LVU295
 793 02da 184A     		ldr	r2, .L50
 794 02dc 136B     		ldr	r3, [r2, #48]
 795              	.LVL91:
1138:../Drivers/STM32L4xx_HAL_Driver/Src/stm32l4xx_hal_flash_ex.c ****     *WRDPEndOffset = (READ_BIT(FLASH->WRP1BR, FLASH_WRP1BR_WRP1B_END) >> 16);
 796              		.loc 1 1138 23 view .LVU296
 797 02de 03F03F03 		and	r3, r3, #63
1138:../Drivers/STM32L4xx_HAL_Driver/Src/stm32l4xx_hal_flash_ex.c ****     *WRDPEndOffset = (READ_BIT(FLASH->WRP1BR, FLASH_WRP1BR_WRP1B_END) >> 16);
 798              		.loc 1 1138 21 view .LVU297
 799 02e2 8360     		str	r3, [r0, #8]
1139:../Drivers/STM32L4xx_HAL_Driver/Src/stm32l4xx_hal_flash_ex.c ****   }
 800              		.loc 1 1139 5 is_stmt 1 view .LVU298
1139:../Drivers/STM32L4xx_HAL_Driver/Src/stm32l4xx_hal_flash_ex.c ****   }
 801              		.loc 1 1139 23 is_stmt 0 view .LVU299
 802 02e4 136B     		ldr	r3, [r2, #48]
1139:../Drivers/STM32L4xx_HAL_Driver/Src/stm32l4xx_hal_flash_ex.c ****   }
 803              		.loc 1 1139 71 view .LVU300
 804 02e6 C3F30543 		ubfx	r3, r3, #16, #6
1139:../Drivers/STM32L4xx_HAL_Driver/Src/stm32l4xx_hal_flash_ex.c ****   }
 805              		.loc 1 1139 20 view .LVU301
 806 02ea C360     		str	r3, [r0, #12]
 807 02ec DFE7     		b	.L42
 808              	.LVL92:
 809              	.L44:
1139:../Drivers/STM32L4xx_HAL_Driver/Src/stm32l4xx_hal_flash_ex.c ****   }
 810              		.loc 1 1139 20 view .LVU302
 811              	.LBE34:
 812              	.LBE33:
 813              	.LBB35:
 814              	.LBB32:
1177:../Drivers/STM32L4xx_HAL_Driver/Src/stm32l4xx_hal_flash_ex.c ****   }
1178:../Drivers/STM32L4xx_HAL_Driver/Src/stm32l4xx_hal_flash_ex.c ****   else
1179:../Drivers/STM32L4xx_HAL_Driver/Src/stm32l4xx_hal_flash_ex.c ****   {
1180:../Drivers/STM32L4xx_HAL_Driver/Src/stm32l4xx_hal_flash_ex.c ****     return (READ_BIT(FLASH->OPTR, FLASH_OPTR_RDP));
 815              		.loc 1 1180 5 is_stmt 1 view .LVU303
 816              		.loc 1 1180 13 is_stmt 0 view .LVU304
 817 02ee 134B     		ldr	r3, .L50
 818              	.LVL93:
 819              		.loc 1 1180 13 view .LVU305
 820 02f0 1B6A     		ldr	r3, [r3, #32]
 821 02f2 DBB2     		uxtb	r3, r3
 822              	.L45:
 823              		.loc 1 1180 13 view .LVU306
 824              	.LBE32:
 825              	.LBE35:
 396:../Drivers/STM32L4xx_HAL_Driver/Src/stm32l4xx_hal_flash_ex.c **** 
 826              		.loc 1 396 21 view .LVU307
 827 02f4 0361     		str	r3, [r0, #16]
 399:../Drivers/STM32L4xx_HAL_Driver/Src/stm32l4xx_hal_flash_ex.c **** 
 828              		.loc 1 399 3 is_stmt 1 view .LVU308
 829              	.LBB36:
 830              	.LBI36:
1181:../Drivers/STM32L4xx_HAL_Driver/Src/stm32l4xx_hal_flash_ex.c ****   }
1182:../Drivers/STM32L4xx_HAL_Driver/Src/stm32l4xx_hal_flash_ex.c **** }
1183:../Drivers/STM32L4xx_HAL_Driver/Src/stm32l4xx_hal_flash_ex.c **** 
1184:../Drivers/STM32L4xx_HAL_Driver/Src/stm32l4xx_hal_flash_ex.c **** /**
1185:../Drivers/STM32L4xx_HAL_Driver/Src/stm32l4xx_hal_flash_ex.c ****   * @brief  Return the FLASH User Option Byte value.
ARM GAS  C:\Users\hoodc\AppData\Local\Temp\ccsNrQcU.s 			page 38


1186:../Drivers/STM32L4xx_HAL_Driver/Src/stm32l4xx_hal_flash_ex.c ****   * @retval The FLASH User Option Bytes values:
1187:../Drivers/STM32L4xx_HAL_Driver/Src/stm32l4xx_hal_flash_ex.c ****   *      For STM32L47x/STM32L48x devices :
1188:../Drivers/STM32L4xx_HAL_Driver/Src/stm32l4xx_hal_flash_ex.c ****   *         BOR_LEV(Bit8-10), nRST_STOP(Bit12), nRST_STDBY(Bit13), nRST_SHDW(Bit14),
1189:../Drivers/STM32L4xx_HAL_Driver/Src/stm32l4xx_hal_flash_ex.c ****   *         IWDG_SW(Bit16), IWDG_STOP(Bit17), IWDG_STDBY(Bit18), WWDG_SW(Bit19),
1190:../Drivers/STM32L4xx_HAL_Driver/Src/stm32l4xx_hal_flash_ex.c ****   *         BFB2(Bit20), DUALBANK(Bit21), nBOOT1(Bit23), SRAM2_PE(Bit24) and SRAM2_RST(Bit25).
1191:../Drivers/STM32L4xx_HAL_Driver/Src/stm32l4xx_hal_flash_ex.c ****   *      For STM32L43x/STM32L44x devices :
1192:../Drivers/STM32L4xx_HAL_Driver/Src/stm32l4xx_hal_flash_ex.c ****   *         BOR_LEV(Bit8-10), nRST_STOP(Bit12), nRST_STDBY(Bit13), nRST_SHDW(Bit14),
1193:../Drivers/STM32L4xx_HAL_Driver/Src/stm32l4xx_hal_flash_ex.c ****   *         IWDG_SW(Bit16), IWDG_STOP(Bit17), IWDG_STDBY(Bit18), WWDG_SW(Bit19),
1194:../Drivers/STM32L4xx_HAL_Driver/Src/stm32l4xx_hal_flash_ex.c ****   *         nBOOT1(Bit23), SRAM2_PE(Bit24), SRAM2_RST(Bit25), nSWBOOT0(Bit26) and nBOOT0(Bit27).
1195:../Drivers/STM32L4xx_HAL_Driver/Src/stm32l4xx_hal_flash_ex.c ****   */
1196:../Drivers/STM32L4xx_HAL_Driver/Src/stm32l4xx_hal_flash_ex.c **** static uint32_t FLASH_OB_GetUser(void)
 831              		.loc 1 1196 17 view .LVU309
 832              	.LBB37:
1197:../Drivers/STM32L4xx_HAL_Driver/Src/stm32l4xx_hal_flash_ex.c **** {
1198:../Drivers/STM32L4xx_HAL_Driver/Src/stm32l4xx_hal_flash_ex.c ****   uint32_t user_config = READ_REG(FLASH->OPTR);
 833              		.loc 1 1198 3 view .LVU310
 834              		.loc 1 1198 12 is_stmt 0 view .LVU311
 835 02f6 114B     		ldr	r3, .L50
 836 02f8 1B6A     		ldr	r3, [r3, #32]
 837              	.LVL94:
1199:../Drivers/STM32L4xx_HAL_Driver/Src/stm32l4xx_hal_flash_ex.c ****   CLEAR_BIT(user_config, FLASH_OPTR_RDP);
 838              		.loc 1 1199 3 is_stmt 1 view .LVU312
1200:../Drivers/STM32L4xx_HAL_Driver/Src/stm32l4xx_hal_flash_ex.c **** 
1201:../Drivers/STM32L4xx_HAL_Driver/Src/stm32l4xx_hal_flash_ex.c ****   return user_config;
 839              		.loc 1 1201 3 view .LVU313
1199:../Drivers/STM32L4xx_HAL_Driver/Src/stm32l4xx_hal_flash_ex.c ****   CLEAR_BIT(user_config, FLASH_OPTR_RDP);
 840              		.loc 1 1199 3 is_stmt 0 view .LVU314
 841 02fa 23F0FF03 		bic	r3, r3, #255
 842              	.LBE37:
 843              	.LBE36:
 399:../Drivers/STM32L4xx_HAL_Driver/Src/stm32l4xx_hal_flash_ex.c **** 
 844              		.loc 1 399 23 view .LVU315
 845 02fe 8361     		str	r3, [r0, #24]
 407:../Drivers/STM32L4xx_HAL_Driver/Src/stm32l4xx_hal_flash_ex.c **** #endif
 846              		.loc 1 407 3 is_stmt 1 view .LVU316
 407:../Drivers/STM32L4xx_HAL_Driver/Src/stm32l4xx_hal_flash_ex.c **** #endif
 847              		.loc 1 407 5 is_stmt 0 view .LVU317
 848 0300 C369     		ldr	r3, [r0, #28]
 849 0302 012B     		cmp	r3, #1
 850 0304 00D0     		beq	.L49
 851              	.L41:
 414:../Drivers/STM32L4xx_HAL_Driver/Src/stm32l4xx_hal_flash_ex.c **** 
 852              		.loc 1 414 1 view .LVU318
 853 0306 7047     		bx	lr
 854              	.L49:
 410:../Drivers/STM32L4xx_HAL_Driver/Src/stm32l4xx_hal_flash_ex.c ****     /* Get the Proprietary code readout protection */
 855              		.loc 1 410 5 is_stmt 1 view .LVU319
 410:../Drivers/STM32L4xx_HAL_Driver/Src/stm32l4xx_hal_flash_ex.c ****     /* Get the Proprietary code readout protection */
 856              		.loc 1 410 25 is_stmt 0 view .LVU320
 857 0308 0368     		ldr	r3, [r0]
 858 030a 43F00803 		orr	r3, r3, #8
 859 030e 0360     		str	r3, [r0]
 412:../Drivers/STM32L4xx_HAL_Driver/Src/stm32l4xx_hal_flash_ex.c ****   }
 860              		.loc 1 412 5 is_stmt 1 view .LVU321
 861              	.LVL95:
 862              	.LBB38:
 863              	.LBI38:
ARM GAS  C:\Users\hoodc\AppData\Local\Temp\ccsNrQcU.s 			page 39


1202:../Drivers/STM32L4xx_HAL_Driver/Src/stm32l4xx_hal_flash_ex.c **** }
1203:../Drivers/STM32L4xx_HAL_Driver/Src/stm32l4xx_hal_flash_ex.c **** 
1204:../Drivers/STM32L4xx_HAL_Driver/Src/stm32l4xx_hal_flash_ex.c **** /**
1205:../Drivers/STM32L4xx_HAL_Driver/Src/stm32l4xx_hal_flash_ex.c ****   * @brief  Return the FLASH Write Protection Option Bytes value.
1206:../Drivers/STM32L4xx_HAL_Driver/Src/stm32l4xx_hal_flash_ex.c ****   *
1207:../Drivers/STM32L4xx_HAL_Driver/Src/stm32l4xx_hal_flash_ex.c ****   * @param PCROPConfig [inout]: specifies the configuration (Bank to be configured and PCROP_RDP op
1208:../Drivers/STM32L4xx_HAL_Driver/Src/stm32l4xx_hal_flash_ex.c ****   *          This parameter must be a combination of FLASH_BANK_1 or FLASH_BANK_2
1209:../Drivers/STM32L4xx_HAL_Driver/Src/stm32l4xx_hal_flash_ex.c ****   *          with OB_PCROP_RDP_NOT_ERASE or OB_PCROP_RDP_ERASE
1210:../Drivers/STM32L4xx_HAL_Driver/Src/stm32l4xx_hal_flash_ex.c ****   *
1211:../Drivers/STM32L4xx_HAL_Driver/Src/stm32l4xx_hal_flash_ex.c ****   * @param PCROPStartAddr [out]: specifies the address where to copied the start address
1212:../Drivers/STM32L4xx_HAL_Driver/Src/stm32l4xx_hal_flash_ex.c ****   *                         of the Proprietary code readout protection
1213:../Drivers/STM32L4xx_HAL_Driver/Src/stm32l4xx_hal_flash_ex.c ****   *
1214:../Drivers/STM32L4xx_HAL_Driver/Src/stm32l4xx_hal_flash_ex.c ****   * @param PCROPEndAddr [out]: specifies the address where to copied the end address of
1215:../Drivers/STM32L4xx_HAL_Driver/Src/stm32l4xx_hal_flash_ex.c ****   *                       the Proprietary code readout protection
1216:../Drivers/STM32L4xx_HAL_Driver/Src/stm32l4xx_hal_flash_ex.c ****   *
1217:../Drivers/STM32L4xx_HAL_Driver/Src/stm32l4xx_hal_flash_ex.c ****   * @retval None
1218:../Drivers/STM32L4xx_HAL_Driver/Src/stm32l4xx_hal_flash_ex.c ****   */
1219:../Drivers/STM32L4xx_HAL_Driver/Src/stm32l4xx_hal_flash_ex.c **** static void FLASH_OB_GetPCROP(uint32_t * PCROPConfig, uint32_t * PCROPStartAddr, uint32_t * PCROPEn
 864              		.loc 1 1219 13 view .LVU322
 865              	.LBB39:
1220:../Drivers/STM32L4xx_HAL_Driver/Src/stm32l4xx_hal_flash_ex.c **** {
1221:../Drivers/STM32L4xx_HAL_Driver/Src/stm32l4xx_hal_flash_ex.c ****   uint32_t reg_value;
 866              		.loc 1 1221 3 view .LVU323
1222:../Drivers/STM32L4xx_HAL_Driver/Src/stm32l4xx_hal_flash_ex.c ****   uint32_t bank1_addr;
 867              		.loc 1 1222 3 view .LVU324
1223:../Drivers/STM32L4xx_HAL_Driver/Src/stm32l4xx_hal_flash_ex.c **** #if defined (STM32L471xx) || defined (STM32L475xx) || defined (STM32L476xx) || defined (STM32L485xx
1224:../Drivers/STM32L4xx_HAL_Driver/Src/stm32l4xx_hal_flash_ex.c ****     defined (STM32L496xx) || defined (STM32L4A6xx) || \
1225:../Drivers/STM32L4xx_HAL_Driver/Src/stm32l4xx_hal_flash_ex.c ****     defined (STM32L4P5xx) || defined (STM32L4Q5xx) || \
1226:../Drivers/STM32L4xx_HAL_Driver/Src/stm32l4xx_hal_flash_ex.c ****     defined (STM32L4R5xx) || defined (STM32L4R7xx) || defined (STM32L4R9xx) || defined (STM32L4S5xx
1227:../Drivers/STM32L4xx_HAL_Driver/Src/stm32l4xx_hal_flash_ex.c ****   uint32_t bank2_addr;
1228:../Drivers/STM32L4xx_HAL_Driver/Src/stm32l4xx_hal_flash_ex.c **** #endif
1229:../Drivers/STM32L4xx_HAL_Driver/Src/stm32l4xx_hal_flash_ex.c **** 
1230:../Drivers/STM32L4xx_HAL_Driver/Src/stm32l4xx_hal_flash_ex.c **** #if defined (STM32L471xx) || defined (STM32L475xx) || defined (STM32L476xx) || defined (STM32L485xx
1231:../Drivers/STM32L4xx_HAL_Driver/Src/stm32l4xx_hal_flash_ex.c ****     defined (STM32L496xx) || defined (STM32L4A6xx) || \
1232:../Drivers/STM32L4xx_HAL_Driver/Src/stm32l4xx_hal_flash_ex.c ****     defined (STM32L4P5xx) || defined (STM32L4Q5xx) || \
1233:../Drivers/STM32L4xx_HAL_Driver/Src/stm32l4xx_hal_flash_ex.c ****     defined (STM32L4R5xx) || defined (STM32L4R7xx) || defined (STM32L4R9xx) || defined (STM32L4S5xx
1234:../Drivers/STM32L4xx_HAL_Driver/Src/stm32l4xx_hal_flash_ex.c ****   /* Get the information about the bank swapping */
1235:../Drivers/STM32L4xx_HAL_Driver/Src/stm32l4xx_hal_flash_ex.c ****   if (READ_BIT(SYSCFG->MEMRMP, SYSCFG_MEMRMP_FB_MODE) == 0U)
1236:../Drivers/STM32L4xx_HAL_Driver/Src/stm32l4xx_hal_flash_ex.c ****   {
1237:../Drivers/STM32L4xx_HAL_Driver/Src/stm32l4xx_hal_flash_ex.c ****     bank1_addr = FLASH_BASE;
1238:../Drivers/STM32L4xx_HAL_Driver/Src/stm32l4xx_hal_flash_ex.c ****     bank2_addr = FLASH_BASE + FLASH_BANK_SIZE;
1239:../Drivers/STM32L4xx_HAL_Driver/Src/stm32l4xx_hal_flash_ex.c ****   }
1240:../Drivers/STM32L4xx_HAL_Driver/Src/stm32l4xx_hal_flash_ex.c ****   else
1241:../Drivers/STM32L4xx_HAL_Driver/Src/stm32l4xx_hal_flash_ex.c ****   {
1242:../Drivers/STM32L4xx_HAL_Driver/Src/stm32l4xx_hal_flash_ex.c ****     bank1_addr = FLASH_BASE + FLASH_BANK_SIZE;
1243:../Drivers/STM32L4xx_HAL_Driver/Src/stm32l4xx_hal_flash_ex.c ****     bank2_addr = FLASH_BASE;
1244:../Drivers/STM32L4xx_HAL_Driver/Src/stm32l4xx_hal_flash_ex.c ****   }
1245:../Drivers/STM32L4xx_HAL_Driver/Src/stm32l4xx_hal_flash_ex.c **** #else
1246:../Drivers/STM32L4xx_HAL_Driver/Src/stm32l4xx_hal_flash_ex.c ****   bank1_addr = FLASH_BASE;
 868              		.loc 1 1246 3 view .LVU325
1247:../Drivers/STM32L4xx_HAL_Driver/Src/stm32l4xx_hal_flash_ex.c **** #endif
1248:../Drivers/STM32L4xx_HAL_Driver/Src/stm32l4xx_hal_flash_ex.c **** 
1249:../Drivers/STM32L4xx_HAL_Driver/Src/stm32l4xx_hal_flash_ex.c **** #if defined (STM32L4P5xx) || defined (STM32L4Q5xx) || defined (STM32L4R5xx) || defined (STM32L4R7xx
1250:../Drivers/STM32L4xx_HAL_Driver/Src/stm32l4xx_hal_flash_ex.c ****   if (READ_BIT(FLASH->OPTR, FLASH_OPTR_DBANK) == 0U)
1251:../Drivers/STM32L4xx_HAL_Driver/Src/stm32l4xx_hal_flash_ex.c ****   {
1252:../Drivers/STM32L4xx_HAL_Driver/Src/stm32l4xx_hal_flash_ex.c ****     if(((*PCROPConfig) & FLASH_BANK_BOTH) == FLASH_BANK_1)
1253:../Drivers/STM32L4xx_HAL_Driver/Src/stm32l4xx_hal_flash_ex.c ****     {
ARM GAS  C:\Users\hoodc\AppData\Local\Temp\ccsNrQcU.s 			page 40


1254:../Drivers/STM32L4xx_HAL_Driver/Src/stm32l4xx_hal_flash_ex.c ****       reg_value       = (READ_REG(FLASH->PCROP1SR) & FLASH_PCROP1SR_PCROP1_STRT);
1255:../Drivers/STM32L4xx_HAL_Driver/Src/stm32l4xx_hal_flash_ex.c ****       *PCROPStartAddr = (reg_value << 4) + FLASH_BASE;
1256:../Drivers/STM32L4xx_HAL_Driver/Src/stm32l4xx_hal_flash_ex.c **** 
1257:../Drivers/STM32L4xx_HAL_Driver/Src/stm32l4xx_hal_flash_ex.c ****       reg_value     = (READ_REG(FLASH->PCROP1ER) & FLASH_PCROP1ER_PCROP1_END);
1258:../Drivers/STM32L4xx_HAL_Driver/Src/stm32l4xx_hal_flash_ex.c ****       *PCROPEndAddr = (reg_value << 4) + FLASH_BASE + 0xFU;
1259:../Drivers/STM32L4xx_HAL_Driver/Src/stm32l4xx_hal_flash_ex.c ****     }
1260:../Drivers/STM32L4xx_HAL_Driver/Src/stm32l4xx_hal_flash_ex.c ****     else if(((*PCROPConfig) & FLASH_BANK_BOTH) == FLASH_BANK_2)
1261:../Drivers/STM32L4xx_HAL_Driver/Src/stm32l4xx_hal_flash_ex.c ****     {
1262:../Drivers/STM32L4xx_HAL_Driver/Src/stm32l4xx_hal_flash_ex.c ****       reg_value       = (READ_REG(FLASH->PCROP2SR) & FLASH_PCROP2SR_PCROP2_STRT);
1263:../Drivers/STM32L4xx_HAL_Driver/Src/stm32l4xx_hal_flash_ex.c ****       *PCROPStartAddr = (reg_value << 4) + FLASH_BASE;
1264:../Drivers/STM32L4xx_HAL_Driver/Src/stm32l4xx_hal_flash_ex.c **** 
1265:../Drivers/STM32L4xx_HAL_Driver/Src/stm32l4xx_hal_flash_ex.c ****       reg_value     = (READ_REG(FLASH->PCROP2ER) & FLASH_PCROP2ER_PCROP2_END);
1266:../Drivers/STM32L4xx_HAL_Driver/Src/stm32l4xx_hal_flash_ex.c ****       *PCROPEndAddr = (reg_value << 4) + FLASH_BASE + 0xFU;;
1267:../Drivers/STM32L4xx_HAL_Driver/Src/stm32l4xx_hal_flash_ex.c ****     }
1268:../Drivers/STM32L4xx_HAL_Driver/Src/stm32l4xx_hal_flash_ex.c ****     else
1269:../Drivers/STM32L4xx_HAL_Driver/Src/stm32l4xx_hal_flash_ex.c ****     {
1270:../Drivers/STM32L4xx_HAL_Driver/Src/stm32l4xx_hal_flash_ex.c ****       /* Nothing to do */
1271:../Drivers/STM32L4xx_HAL_Driver/Src/stm32l4xx_hal_flash_ex.c ****     }
1272:../Drivers/STM32L4xx_HAL_Driver/Src/stm32l4xx_hal_flash_ex.c ****   }
1273:../Drivers/STM32L4xx_HAL_Driver/Src/stm32l4xx_hal_flash_ex.c ****   else
1274:../Drivers/STM32L4xx_HAL_Driver/Src/stm32l4xx_hal_flash_ex.c **** #endif
1275:../Drivers/STM32L4xx_HAL_Driver/Src/stm32l4xx_hal_flash_ex.c ****   {
1276:../Drivers/STM32L4xx_HAL_Driver/Src/stm32l4xx_hal_flash_ex.c ****     if(((*PCROPConfig) & FLASH_BANK_BOTH) == FLASH_BANK_1)
 869              		.loc 1 1276 5 view .LVU326
1277:../Drivers/STM32L4xx_HAL_Driver/Src/stm32l4xx_hal_flash_ex.c ****     {
1278:../Drivers/STM32L4xx_HAL_Driver/Src/stm32l4xx_hal_flash_ex.c ****       reg_value       = (READ_REG(FLASH->PCROP1SR) & FLASH_PCROP1SR_PCROP1_STRT);
 870              		.loc 1 1278 7 view .LVU327
 871              		.loc 1 1278 26 is_stmt 0 view .LVU328
 872 0310 0A49     		ldr	r1, .L50
 873 0312 4A6A     		ldr	r2, [r1, #36]
 874              	.LVL96:
1279:../Drivers/STM32L4xx_HAL_Driver/Src/stm32l4xx_hal_flash_ex.c ****       *PCROPStartAddr = (reg_value << 3) + bank1_addr;
 875              		.loc 1 1279 7 is_stmt 1 view .LVU329
 876              		.loc 1 1279 36 is_stmt 0 view .LVU330
 877 0314 0A4B     		ldr	r3, .L50+4
 878 0316 03EAC202 		and	r2, r3, r2, lsl #3
 879              	.LVL97:
 880              		.loc 1 1279 42 view .LVU331
 881 031a 02F10062 		add	r2, r2, #134217728
 882              		.loc 1 1279 23 view .LVU332
 883 031e 0262     		str	r2, [r0, #32]
1280:../Drivers/STM32L4xx_HAL_Driver/Src/stm32l4xx_hal_flash_ex.c **** 
1281:../Drivers/STM32L4xx_HAL_Driver/Src/stm32l4xx_hal_flash_ex.c ****       reg_value     = (READ_REG(FLASH->PCROP1ER) & FLASH_PCROP1ER_PCROP1_END);
 884              		.loc 1 1281 7 is_stmt 1 view .LVU333
 885              		.loc 1 1281 24 is_stmt 0 view .LVU334
 886 0320 8A6A     		ldr	r2, [r1, #40]
 887              	.LVL98:
1282:../Drivers/STM32L4xx_HAL_Driver/Src/stm32l4xx_hal_flash_ex.c ****       *PCROPEndAddr = (reg_value << 3) + bank1_addr + 0x7U;
 888              		.loc 1 1282 7 is_stmt 1 view .LVU335
 889              		.loc 1 1282 34 is_stmt 0 view .LVU336
 890 0322 03EAC203 		and	r3, r3, r2, lsl #3
 891              		.loc 1 1282 53 view .LVU337
 892 0326 03F10063 		add	r3, r3, #134217728
 893 032a 0733     		adds	r3, r3, #7
 894              		.loc 1 1282 21 view .LVU338
 895 032c 4362     		str	r3, [r0, #36]
1283:../Drivers/STM32L4xx_HAL_Driver/Src/stm32l4xx_hal_flash_ex.c ****     }
ARM GAS  C:\Users\hoodc\AppData\Local\Temp\ccsNrQcU.s 			page 41


1284:../Drivers/STM32L4xx_HAL_Driver/Src/stm32l4xx_hal_flash_ex.c **** #if defined (STM32L471xx) || defined (STM32L475xx) || defined (STM32L476xx) || defined (STM32L485xx
1285:../Drivers/STM32L4xx_HAL_Driver/Src/stm32l4xx_hal_flash_ex.c ****     defined (STM32L496xx) || defined (STM32L4A6xx) || \
1286:../Drivers/STM32L4xx_HAL_Driver/Src/stm32l4xx_hal_flash_ex.c ****     defined (STM32L4P5xx) || defined (STM32L4Q5xx) || \
1287:../Drivers/STM32L4xx_HAL_Driver/Src/stm32l4xx_hal_flash_ex.c ****     defined (STM32L4R5xx) || defined (STM32L4R7xx) || defined (STM32L4R9xx) || defined (STM32L4S5xx
1288:../Drivers/STM32L4xx_HAL_Driver/Src/stm32l4xx_hal_flash_ex.c ****     else if(((*PCROPConfig) & FLASH_BANK_BOTH) == FLASH_BANK_2)
1289:../Drivers/STM32L4xx_HAL_Driver/Src/stm32l4xx_hal_flash_ex.c ****     {
1290:../Drivers/STM32L4xx_HAL_Driver/Src/stm32l4xx_hal_flash_ex.c ****       reg_value       = (READ_REG(FLASH->PCROP2SR) & FLASH_PCROP2SR_PCROP2_STRT);
1291:../Drivers/STM32L4xx_HAL_Driver/Src/stm32l4xx_hal_flash_ex.c ****       *PCROPStartAddr = (reg_value << 3) + bank2_addr;
1292:../Drivers/STM32L4xx_HAL_Driver/Src/stm32l4xx_hal_flash_ex.c **** 
1293:../Drivers/STM32L4xx_HAL_Driver/Src/stm32l4xx_hal_flash_ex.c ****       reg_value     = (READ_REG(FLASH->PCROP2ER) & FLASH_PCROP2ER_PCROP2_END);
1294:../Drivers/STM32L4xx_HAL_Driver/Src/stm32l4xx_hal_flash_ex.c ****       *PCROPEndAddr = (reg_value << 3) + bank2_addr + 0x7U;
1295:../Drivers/STM32L4xx_HAL_Driver/Src/stm32l4xx_hal_flash_ex.c ****     }
1296:../Drivers/STM32L4xx_HAL_Driver/Src/stm32l4xx_hal_flash_ex.c **** #endif
1297:../Drivers/STM32L4xx_HAL_Driver/Src/stm32l4xx_hal_flash_ex.c ****     else
1298:../Drivers/STM32L4xx_HAL_Driver/Src/stm32l4xx_hal_flash_ex.c ****     {
1299:../Drivers/STM32L4xx_HAL_Driver/Src/stm32l4xx_hal_flash_ex.c ****       /* Nothing to do */
1300:../Drivers/STM32L4xx_HAL_Driver/Src/stm32l4xx_hal_flash_ex.c ****     }
 896              		.loc 1 1300 5 is_stmt 1 view .LVU339
1301:../Drivers/STM32L4xx_HAL_Driver/Src/stm32l4xx_hal_flash_ex.c ****   }
1302:../Drivers/STM32L4xx_HAL_Driver/Src/stm32l4xx_hal_flash_ex.c **** 
1303:../Drivers/STM32L4xx_HAL_Driver/Src/stm32l4xx_hal_flash_ex.c ****   *PCROPConfig |= (READ_REG(FLASH->PCROP1ER) & FLASH_PCROP1ER_PCROP_RDP);
 897              		.loc 1 1303 3 view .LVU340
 898              		.loc 1 1303 20 is_stmt 0 view .LVU341
 899 032e 8B6A     		ldr	r3, [r1, #40]
 900              		.loc 1 1303 46 view .LVU342
 901 0330 03F00043 		and	r3, r3, #-2147483648
 902              		.loc 1 1303 16 view .LVU343
 903 0334 43F00103 		orr	r3, r3, #1
 904 0338 C361     		str	r3, [r0, #28]
 905              	.LVL99:
 906              		.loc 1 1303 16 view .LVU344
 907              	.LBE39:
 908              	.LBE38:
 414:../Drivers/STM32L4xx_HAL_Driver/Src/stm32l4xx_hal_flash_ex.c **** 
 909              		.loc 1 414 1 view .LVU345
 910 033a E4E7     		b	.L41
 911              	.L51:
 912              		.align	2
 913              	.L50:
 914 033c 00200240 		.word	1073881088
 915 0340 F8FF0100 		.word	131064
 916              		.cfi_endproc
 917              	.LFE136:
 918              		.size	HAL_FLASHEx_OBGetConfig, .-HAL_FLASHEx_OBGetConfig
 919              		.align	1
 920              		.global	FLASH_PageErase
 921              		.syntax unified
 922              		.thumb
 923              		.thumb_func
 924              		.fpu softvfp
 925              		.type	FLASH_PageErase, %function
 926              	FLASH_PageErase:
 927              	.LVL100:
 928              	.LFB138:
 560:../Drivers/STM32L4xx_HAL_Driver/Src/stm32l4xx_hal_flash_ex.c ****   /* Check the parameters */
 929              		.loc 1 560 1 is_stmt 1 view -0
 930              		.cfi_startproc
ARM GAS  C:\Users\hoodc\AppData\Local\Temp\ccsNrQcU.s 			page 42


 931              		@ args = 0, pretend = 0, frame = 0
 932              		@ frame_needed = 0, uses_anonymous_args = 0
 933              		@ link register save eliminated.
 562:../Drivers/STM32L4xx_HAL_Driver/Src/stm32l4xx_hal_flash_ex.c **** 
 934              		.loc 1 562 3 view .LVU347
 589:../Drivers/STM32L4xx_HAL_Driver/Src/stm32l4xx_hal_flash_ex.c **** #endif
 935              		.loc 1 589 3 view .LVU348
 593:../Drivers/STM32L4xx_HAL_Driver/Src/stm32l4xx_hal_flash_ex.c ****   SET_BIT(FLASH->CR, FLASH_CR_PER);
 936              		.loc 1 593 3 view .LVU349
 937 0344 084B     		ldr	r3, .L53
 938 0346 5A69     		ldr	r2, [r3, #20]
 939 0348 C000     		lsls	r0, r0, #3
 940              	.LVL101:
 593:../Drivers/STM32L4xx_HAL_Driver/Src/stm32l4xx_hal_flash_ex.c ****   SET_BIT(FLASH->CR, FLASH_CR_PER);
 941              		.loc 1 593 3 is_stmt 0 view .LVU350
 942 034a 00F4FF60 		and	r0, r0, #2040
 943 034e 22F4FC72 		bic	r2, r2, #504
 944 0352 1043     		orrs	r0, r0, r2
 945 0354 5861     		str	r0, [r3, #20]
 594:../Drivers/STM32L4xx_HAL_Driver/Src/stm32l4xx_hal_flash_ex.c ****   SET_BIT(FLASH->CR, FLASH_CR_STRT);
 946              		.loc 1 594 3 is_stmt 1 view .LVU351
 947 0356 5A69     		ldr	r2, [r3, #20]
 948 0358 42F00202 		orr	r2, r2, #2
 949 035c 5A61     		str	r2, [r3, #20]
 595:../Drivers/STM32L4xx_HAL_Driver/Src/stm32l4xx_hal_flash_ex.c **** }
 950              		.loc 1 595 3 view .LVU352
 951 035e 5A69     		ldr	r2, [r3, #20]
 952 0360 42F48032 		orr	r2, r2, #65536
 953 0364 5A61     		str	r2, [r3, #20]
 596:../Drivers/STM32L4xx_HAL_Driver/Src/stm32l4xx_hal_flash_ex.c **** 
 954              		.loc 1 596 1 is_stmt 0 view .LVU353
 955 0366 7047     		bx	lr
 956              	.L54:
 957              		.align	2
 958              	.L53:
 959 0368 00200240 		.word	1073881088
 960              		.cfi_endproc
 961              	.LFE138:
 962              		.size	FLASH_PageErase, .-FLASH_PageErase
 963              		.align	1
 964              		.global	HAL_FLASHEx_Erase_IT
 965              		.syntax unified
 966              		.thumb
 967              		.thumb_func
 968              		.fpu softvfp
 969              		.type	HAL_FLASHEx_Erase_IT, %function
 970              	HAL_FLASHEx_Erase_IT:
 971              	.LVL102:
 972              	.LFB134:
 234:../Drivers/STM32L4xx_HAL_Driver/Src/stm32l4xx_hal_flash_ex.c ****   HAL_StatusTypeDef status = HAL_OK;
 973              		.loc 1 234 1 is_stmt 1 view -0
 974              		.cfi_startproc
 975              		@ args = 0, pretend = 0, frame = 0
 976              		@ frame_needed = 0, uses_anonymous_args = 0
 234:../Drivers/STM32L4xx_HAL_Driver/Src/stm32l4xx_hal_flash_ex.c ****   HAL_StatusTypeDef status = HAL_OK;
 977              		.loc 1 234 1 is_stmt 0 view .LVU355
 978 036c 08B5     		push	{r3, lr}
ARM GAS  C:\Users\hoodc\AppData\Local\Temp\ccsNrQcU.s 			page 43


 979              	.LCFI1:
 980              		.cfi_def_cfa_offset 8
 981              		.cfi_offset 3, -8
 982              		.cfi_offset 14, -4
 983 036e 0346     		mov	r3, r0
 235:../Drivers/STM32L4xx_HAL_Driver/Src/stm32l4xx_hal_flash_ex.c **** 
 984              		.loc 1 235 3 is_stmt 1 view .LVU356
 985              	.LVL103:
 238:../Drivers/STM32L4xx_HAL_Driver/Src/stm32l4xx_hal_flash_ex.c **** 
 986              		.loc 1 238 3 view .LVU357
 238:../Drivers/STM32L4xx_HAL_Driver/Src/stm32l4xx_hal_flash_ex.c **** 
 987              		.loc 1 238 3 view .LVU358
 988 0370 2A4A     		ldr	r2, .L64
 989 0372 1278     		ldrb	r2, [r2]	@ zero_extendqisi2
 990 0374 012A     		cmp	r2, #1
 991 0376 4FD0     		beq	.L62
 238:../Drivers/STM32L4xx_HAL_Driver/Src/stm32l4xx_hal_flash_ex.c **** 
 992              		.loc 1 238 3 discriminator 2 view .LVU359
 993 0378 284A     		ldr	r2, .L64
 994 037a 0121     		movs	r1, #1
 995 037c 1170     		strb	r1, [r2]
 238:../Drivers/STM32L4xx_HAL_Driver/Src/stm32l4xx_hal_flash_ex.c **** 
 996              		.loc 1 238 3 discriminator 2 view .LVU360
 241:../Drivers/STM32L4xx_HAL_Driver/Src/stm32l4xx_hal_flash_ex.c **** 
 997              		.loc 1 241 3 discriminator 2 view .LVU361
 243:../Drivers/STM32L4xx_HAL_Driver/Src/stm32l4xx_hal_flash_ex.c **** 
 998              		.loc 1 243 3 discriminator 2 view .LVU362
 243:../Drivers/STM32L4xx_HAL_Driver/Src/stm32l4xx_hal_flash_ex.c **** 
 999              		.loc 1 243 20 is_stmt 0 discriminator 2 view .LVU363
 1000 037e 0021     		movs	r1, #0
 1001 0380 5160     		str	r1, [r2, #4]
 246:../Drivers/STM32L4xx_HAL_Driver/Src/stm32l4xx_hal_flash_ex.c ****   {
 1002              		.loc 1 246 3 is_stmt 1 discriminator 2 view .LVU364
 246:../Drivers/STM32L4xx_HAL_Driver/Src/stm32l4xx_hal_flash_ex.c ****   {
 1003              		.loc 1 246 6 is_stmt 0 discriminator 2 view .LVU365
 1004 0382 274A     		ldr	r2, .L64+4
 1005 0384 1268     		ldr	r2, [r2]
 246:../Drivers/STM32L4xx_HAL_Driver/Src/stm32l4xx_hal_flash_ex.c ****   {
 1006              		.loc 1 246 5 discriminator 2 view .LVU366
 1007 0386 12F4007F 		tst	r2, #512
 1008 038a 2BD0     		beq	.L57
 249:../Drivers/STM32L4xx_HAL_Driver/Src/stm32l4xx_hal_flash_ex.c **** 
 1009              		.loc 1 249 5 is_stmt 1 view .LVU367
 1010 038c 244A     		ldr	r2, .L64+4
 1011 038e 1168     		ldr	r1, [r2]
 1012 0390 21F40071 		bic	r1, r1, #512
 1013 0394 1160     		str	r1, [r2]
 251:../Drivers/STM32L4xx_HAL_Driver/Src/stm32l4xx_hal_flash_ex.c ****     {
 1014              		.loc 1 251 5 view .LVU368
 251:../Drivers/STM32L4xx_HAL_Driver/Src/stm32l4xx_hal_flash_ex.c ****     {
 1015              		.loc 1 251 8 is_stmt 0 view .LVU369
 1016 0396 1268     		ldr	r2, [r2]
 251:../Drivers/STM32L4xx_HAL_Driver/Src/stm32l4xx_hal_flash_ex.c ****     {
 1017              		.loc 1 251 7 view .LVU370
 1018 0398 12F4806F 		tst	r2, #1024
 1019 039c 1ED0     		beq	.L58
 254:../Drivers/STM32L4xx_HAL_Driver/Src/stm32l4xx_hal_flash_ex.c ****       pFlash.CacheToReactivate = FLASH_CACHE_ICACHE_DCACHE_ENABLED;
ARM GAS  C:\Users\hoodc\AppData\Local\Temp\ccsNrQcU.s 			page 44


 1020              		.loc 1 254 7 is_stmt 1 view .LVU371
 1021 039e 2049     		ldr	r1, .L64+4
 1022 03a0 0A68     		ldr	r2, [r1]
 1023 03a2 22F48062 		bic	r2, r2, #1024
 1024 03a6 0A60     		str	r2, [r1]
 255:../Drivers/STM32L4xx_HAL_Driver/Src/stm32l4xx_hal_flash_ex.c ****     }
 1025              		.loc 1 255 7 view .LVU372
 255:../Drivers/STM32L4xx_HAL_Driver/Src/stm32l4xx_hal_flash_ex.c ****     }
 1026              		.loc 1 255 32 is_stmt 0 view .LVU373
 1027 03a8 1C4A     		ldr	r2, .L64
 1028 03aa 0321     		movs	r1, #3
 1029 03ac 1177     		strb	r1, [r2, #28]
 1030              	.L59:
 274:../Drivers/STM32L4xx_HAL_Driver/Src/stm32l4xx_hal_flash_ex.c **** 
 1031              		.loc 1 274 3 is_stmt 1 discriminator 4 view .LVU374
 274:../Drivers/STM32L4xx_HAL_Driver/Src/stm32l4xx_hal_flash_ex.c **** 
 1032              		.loc 1 274 3 discriminator 4 view .LVU375
 274:../Drivers/STM32L4xx_HAL_Driver/Src/stm32l4xx_hal_flash_ex.c **** 
 1033              		.loc 1 274 3 discriminator 4 view .LVU376
 274:../Drivers/STM32L4xx_HAL_Driver/Src/stm32l4xx_hal_flash_ex.c **** 
 1034              		.loc 1 274 3 discriminator 4 view .LVU377
 1035 03ae 1C49     		ldr	r1, .L64+4
 1036 03b0 4A69     		ldr	r2, [r1, #20]
 1037 03b2 42F04072 		orr	r2, r2, #50331648
 1038 03b6 4A61     		str	r2, [r1, #20]
 274:../Drivers/STM32L4xx_HAL_Driver/Src/stm32l4xx_hal_flash_ex.c **** 
 1039              		.loc 1 274 3 discriminator 4 view .LVU378
 276:../Drivers/STM32L4xx_HAL_Driver/Src/stm32l4xx_hal_flash_ex.c **** 
 1040              		.loc 1 276 3 discriminator 4 view .LVU379
 276:../Drivers/STM32L4xx_HAL_Driver/Src/stm32l4xx_hal_flash_ex.c **** 
 1041              		.loc 1 276 27 is_stmt 0 discriminator 4 view .LVU380
 1042 03b8 5968     		ldr	r1, [r3, #4]
 276:../Drivers/STM32L4xx_HAL_Driver/Src/stm32l4xx_hal_flash_ex.c **** 
 1043              		.loc 1 276 15 discriminator 4 view .LVU381
 1044 03ba 184A     		ldr	r2, .L64
 1045 03bc 1161     		str	r1, [r2, #16]
 278:../Drivers/STM32L4xx_HAL_Driver/Src/stm32l4xx_hal_flash_ex.c ****   {
 1046              		.loc 1 278 3 is_stmt 1 discriminator 4 view .LVU382
 278:../Drivers/STM32L4xx_HAL_Driver/Src/stm32l4xx_hal_flash_ex.c ****   {
 1047              		.loc 1 278 6 is_stmt 0 discriminator 4 view .LVU383
 1048 03be 1A68     		ldr	r2, [r3]
 1049 03c0 012A     		cmp	r2, #1
 1050 03c2 21D0     		beq	.L63
 287:../Drivers/STM32L4xx_HAL_Driver/Src/stm32l4xx_hal_flash_ex.c ****     pFlash.NbPagesToErase = pEraseInit->NbPages;
 1051              		.loc 1 287 5 is_stmt 1 view .LVU384
 287:../Drivers/STM32L4xx_HAL_Driver/Src/stm32l4xx_hal_flash_ex.c ****     pFlash.NbPagesToErase = pEraseInit->NbPages;
 1052              		.loc 1 287 29 is_stmt 0 view .LVU385
 1053 03c4 154A     		ldr	r2, .L64
 1054 03c6 0121     		movs	r1, #1
 1055 03c8 1172     		strb	r1, [r2, #8]
 288:../Drivers/STM32L4xx_HAL_Driver/Src/stm32l4xx_hal_flash_ex.c ****     pFlash.Page = pEraseInit->Page;
 1056              		.loc 1 288 5 is_stmt 1 view .LVU386
 288:../Drivers/STM32L4xx_HAL_Driver/Src/stm32l4xx_hal_flash_ex.c ****     pFlash.Page = pEraseInit->Page;
 1057              		.loc 1 288 39 is_stmt 0 view .LVU387
 1058 03ca D968     		ldr	r1, [r3, #12]
 288:../Drivers/STM32L4xx_HAL_Driver/Src/stm32l4xx_hal_flash_ex.c ****     pFlash.Page = pEraseInit->Page;
 1059              		.loc 1 288 27 view .LVU388
ARM GAS  C:\Users\hoodc\AppData\Local\Temp\ccsNrQcU.s 			page 45


 1060 03cc 9161     		str	r1, [r2, #24]
 289:../Drivers/STM32L4xx_HAL_Driver/Src/stm32l4xx_hal_flash_ex.c **** 
 1061              		.loc 1 289 5 is_stmt 1 view .LVU389
 289:../Drivers/STM32L4xx_HAL_Driver/Src/stm32l4xx_hal_flash_ex.c **** 
 1062              		.loc 1 289 29 is_stmt 0 view .LVU390
 1063 03ce 9868     		ldr	r0, [r3, #8]
 1064              	.LVL104:
 289:../Drivers/STM32L4xx_HAL_Driver/Src/stm32l4xx_hal_flash_ex.c **** 
 1065              		.loc 1 289 17 view .LVU391
 1066 03d0 5061     		str	r0, [r2, #20]
 292:../Drivers/STM32L4xx_HAL_Driver/Src/stm32l4xx_hal_flash_ex.c ****   }
 1067              		.loc 1 292 5 is_stmt 1 view .LVU392
 1068 03d2 5968     		ldr	r1, [r3, #4]
 1069 03d4 FFF7FEFF 		bl	FLASH_PageErase
 1070              	.LVL105:
 295:../Drivers/STM32L4xx_HAL_Driver/Src/stm32l4xx_hal_flash_ex.c **** }
 1071              		.loc 1 295 10 is_stmt 0 view .LVU393
 1072 03d8 0020     		movs	r0, #0
 1073              	.L56:
 296:../Drivers/STM32L4xx_HAL_Driver/Src/stm32l4xx_hal_flash_ex.c **** 
 1074              		.loc 1 296 1 view .LVU394
 1075 03da 08BD     		pop	{r3, pc}
 1076              	.LVL106:
 1077              	.L58:
 259:../Drivers/STM32L4xx_HAL_Driver/Src/stm32l4xx_hal_flash_ex.c ****     }
 1078              		.loc 1 259 7 is_stmt 1 view .LVU395
 259:../Drivers/STM32L4xx_HAL_Driver/Src/stm32l4xx_hal_flash_ex.c ****     }
 1079              		.loc 1 259 32 is_stmt 0 view .LVU396
 1080 03dc 0F4A     		ldr	r2, .L64
 1081 03de 0121     		movs	r1, #1
 1082 03e0 1177     		strb	r1, [r2, #28]
 1083 03e2 E4E7     		b	.L59
 1084              	.L57:
 262:../Drivers/STM32L4xx_HAL_Driver/Src/stm32l4xx_hal_flash_ex.c ****   {
 1085              		.loc 1 262 8 is_stmt 1 view .LVU397
 262:../Drivers/STM32L4xx_HAL_Driver/Src/stm32l4xx_hal_flash_ex.c ****   {
 1086              		.loc 1 262 11 is_stmt 0 view .LVU398
 1087 03e4 0E4A     		ldr	r2, .L64+4
 1088 03e6 1268     		ldr	r2, [r2]
 262:../Drivers/STM32L4xx_HAL_Driver/Src/stm32l4xx_hal_flash_ex.c ****   {
 1089              		.loc 1 262 10 view .LVU399
 1090 03e8 12F4806F 		tst	r2, #1024
 1091 03ec 08D0     		beq	.L60
 265:../Drivers/STM32L4xx_HAL_Driver/Src/stm32l4xx_hal_flash_ex.c ****     pFlash.CacheToReactivate = FLASH_CACHE_DCACHE_ENABLED;
 1092              		.loc 1 265 5 is_stmt 1 view .LVU400
 1093 03ee 0C49     		ldr	r1, .L64+4
 1094 03f0 0A68     		ldr	r2, [r1]
 1095 03f2 22F48062 		bic	r2, r2, #1024
 1096 03f6 0A60     		str	r2, [r1]
 266:../Drivers/STM32L4xx_HAL_Driver/Src/stm32l4xx_hal_flash_ex.c ****   }
 1097              		.loc 1 266 5 view .LVU401
 266:../Drivers/STM32L4xx_HAL_Driver/Src/stm32l4xx_hal_flash_ex.c ****   }
 1098              		.loc 1 266 30 is_stmt 0 view .LVU402
 1099 03f8 084A     		ldr	r2, .L64
 1100 03fa 0221     		movs	r1, #2
 1101 03fc 1177     		strb	r1, [r2, #28]
 1102 03fe D6E7     		b	.L59
ARM GAS  C:\Users\hoodc\AppData\Local\Temp\ccsNrQcU.s 			page 46


 1103              	.L60:
 270:../Drivers/STM32L4xx_HAL_Driver/Src/stm32l4xx_hal_flash_ex.c ****   }
 1104              		.loc 1 270 5 is_stmt 1 view .LVU403
 270:../Drivers/STM32L4xx_HAL_Driver/Src/stm32l4xx_hal_flash_ex.c ****   }
 1105              		.loc 1 270 30 is_stmt 0 view .LVU404
 1106 0400 064A     		ldr	r2, .L64
 1107 0402 0021     		movs	r1, #0
 1108 0404 1177     		strb	r1, [r2, #28]
 1109 0406 D2E7     		b	.L59
 1110              	.L63:
 281:../Drivers/STM32L4xx_HAL_Driver/Src/stm32l4xx_hal_flash_ex.c ****     FLASH_MassErase(pEraseInit->Banks);
 1111              		.loc 1 281 5 is_stmt 1 view .LVU405
 281:../Drivers/STM32L4xx_HAL_Driver/Src/stm32l4xx_hal_flash_ex.c ****     FLASH_MassErase(pEraseInit->Banks);
 1112              		.loc 1 281 29 is_stmt 0 view .LVU406
 1113 0408 044A     		ldr	r2, .L64
 1114 040a 0221     		movs	r1, #2
 1115 040c 1172     		strb	r1, [r2, #8]
 282:../Drivers/STM32L4xx_HAL_Driver/Src/stm32l4xx_hal_flash_ex.c ****   }
 1116              		.loc 1 282 5 is_stmt 1 view .LVU407
 1117 040e 5868     		ldr	r0, [r3, #4]
 1118              	.LVL107:
 282:../Drivers/STM32L4xx_HAL_Driver/Src/stm32l4xx_hal_flash_ex.c ****   }
 1119              		.loc 1 282 5 is_stmt 0 view .LVU408
 1120 0410 FFF7F6FD 		bl	FLASH_MassErase
 1121              	.LVL108:
 295:../Drivers/STM32L4xx_HAL_Driver/Src/stm32l4xx_hal_flash_ex.c **** }
 1122              		.loc 1 295 10 view .LVU409
 1123 0414 0020     		movs	r0, #0
 1124 0416 E0E7     		b	.L56
 1125              	.LVL109:
 1126              	.L62:
 238:../Drivers/STM32L4xx_HAL_Driver/Src/stm32l4xx_hal_flash_ex.c **** 
 1127              		.loc 1 238 3 view .LVU410
 1128 0418 0220     		movs	r0, #2
 1129              	.LVL110:
 238:../Drivers/STM32L4xx_HAL_Driver/Src/stm32l4xx_hal_flash_ex.c **** 
 1130              		.loc 1 238 3 view .LVU411
 1131 041a DEE7     		b	.L56
 1132              	.L65:
 1133              		.align	2
 1134              	.L64:
 1135 041c 00000000 		.word	pFlash
 1136 0420 00200240 		.word	1073881088
 1137              		.cfi_endproc
 1138              	.LFE134:
 1139              		.size	HAL_FLASHEx_Erase_IT, .-HAL_FLASHEx_Erase_IT
 1140              		.align	1
 1141              		.global	FLASH_FlushCaches
 1142              		.syntax unified
 1143              		.thumb
 1144              		.thumb_func
 1145              		.fpu softvfp
 1146              		.type	FLASH_FlushCaches, %function
 1147              	FLASH_FlushCaches:
 1148              	.LFB139:
 603:../Drivers/STM32L4xx_HAL_Driver/Src/stm32l4xx_hal_flash_ex.c ****   FLASH_CacheTypeDef cache = pFlash.CacheToReactivate;
 1149              		.loc 1 603 1 is_stmt 1 view -0
ARM GAS  C:\Users\hoodc\AppData\Local\Temp\ccsNrQcU.s 			page 47


 1150              		.cfi_startproc
 1151              		@ args = 0, pretend = 0, frame = 0
 1152              		@ frame_needed = 0, uses_anonymous_args = 0
 1153              		@ link register save eliminated.
 604:../Drivers/STM32L4xx_HAL_Driver/Src/stm32l4xx_hal_flash_ex.c **** 
 1154              		.loc 1 604 3 view .LVU413
 604:../Drivers/STM32L4xx_HAL_Driver/Src/stm32l4xx_hal_flash_ex.c **** 
 1155              		.loc 1 604 22 is_stmt 0 view .LVU414
 1156 0424 154B     		ldr	r3, .L71
 1157 0426 1A7F     		ldrb	r2, [r3, #28]	@ zero_extendqisi2
 1158 0428 D3B2     		uxtb	r3, r2
 1159              	.LVL111:
 607:../Drivers/STM32L4xx_HAL_Driver/Src/stm32l4xx_hal_flash_ex.c ****      (cache == FLASH_CACHE_ICACHE_DCACHE_ENABLED))
 1160              		.loc 1 607 3 is_stmt 1 view .LVU415
 607:../Drivers/STM32L4xx_HAL_Driver/Src/stm32l4xx_hal_flash_ex.c ****      (cache == FLASH_CACHE_ICACHE_DCACHE_ENABLED))
 1161              		.loc 1 607 5 is_stmt 0 view .LVU416
 1162 042a 02F0FD02 		and	r2, r2, #253
 1163 042e 012A     		cmp	r2, #1
 1164 0430 07D0     		beq	.L69
 1165              	.L67:
 617:../Drivers/STM32L4xx_HAL_Driver/Src/stm32l4xx_hal_flash_ex.c ****      (cache == FLASH_CACHE_ICACHE_DCACHE_ENABLED))
 1166              		.loc 1 617 3 is_stmt 1 view .LVU417
 617:../Drivers/STM32L4xx_HAL_Driver/Src/stm32l4xx_hal_flash_ex.c ****      (cache == FLASH_CACHE_ICACHE_DCACHE_ENABLED))
 1167              		.loc 1 617 44 is_stmt 0 view .LVU418
 1168 0432 023B     		subs	r3, r3, #2
 1169              	.LVL112:
 617:../Drivers/STM32L4xx_HAL_Driver/Src/stm32l4xx_hal_flash_ex.c ****      (cache == FLASH_CACHE_ICACHE_DCACHE_ENABLED))
 1170              		.loc 1 617 5 view .LVU419
 1171 0434 DBB2     		uxtb	r3, r3
 1172              	.LVL113:
 617:../Drivers/STM32L4xx_HAL_Driver/Src/stm32l4xx_hal_flash_ex.c ****      (cache == FLASH_CACHE_ICACHE_DCACHE_ENABLED))
 1173              		.loc 1 617 5 view .LVU420
 1174 0436 012B     		cmp	r3, #1
 1175 0438 11D9     		bls	.L70
 1176              	.L68:
 627:../Drivers/STM32L4xx_HAL_Driver/Src/stm32l4xx_hal_flash_ex.c **** }
 1177              		.loc 1 627 3 is_stmt 1 view .LVU421
 627:../Drivers/STM32L4xx_HAL_Driver/Src/stm32l4xx_hal_flash_ex.c **** }
 1178              		.loc 1 627 28 is_stmt 0 view .LVU422
 1179 043a 104B     		ldr	r3, .L71
 1180 043c 0022     		movs	r2, #0
 1181 043e 1A77     		strb	r2, [r3, #28]
 628:../Drivers/STM32L4xx_HAL_Driver/Src/stm32l4xx_hal_flash_ex.c **** 
 1182              		.loc 1 628 1 view .LVU423
 1183 0440 7047     		bx	lr
 1184              	.LVL114:
 1185              	.L69:
 611:../Drivers/STM32L4xx_HAL_Driver/Src/stm32l4xx_hal_flash_ex.c ****     /* Enable instruction cache */
 1186              		.loc 1 611 5 is_stmt 1 view .LVU424
 611:../Drivers/STM32L4xx_HAL_Driver/Src/stm32l4xx_hal_flash_ex.c ****     /* Enable instruction cache */
 1187              		.loc 1 611 5 view .LVU425
 1188 0442 0F4A     		ldr	r2, .L71+4
 1189 0444 1168     		ldr	r1, [r2]
 1190 0446 41F40061 		orr	r1, r1, #2048
 1191 044a 1160     		str	r1, [r2]
 611:../Drivers/STM32L4xx_HAL_Driver/Src/stm32l4xx_hal_flash_ex.c ****     /* Enable instruction cache */
 1192              		.loc 1 611 5 view .LVU426
ARM GAS  C:\Users\hoodc\AppData\Local\Temp\ccsNrQcU.s 			page 48


 1193 044c 1168     		ldr	r1, [r2]
 1194 044e 21F40061 		bic	r1, r1, #2048
 1195 0452 1160     		str	r1, [r2]
 611:../Drivers/STM32L4xx_HAL_Driver/Src/stm32l4xx_hal_flash_ex.c ****     /* Enable instruction cache */
 1196              		.loc 1 611 5 view .LVU427
 613:../Drivers/STM32L4xx_HAL_Driver/Src/stm32l4xx_hal_flash_ex.c ****   }
 1197              		.loc 1 613 5 view .LVU428
 1198 0454 1168     		ldr	r1, [r2]
 1199 0456 41F40071 		orr	r1, r1, #512
 1200 045a 1160     		str	r1, [r2]
 1201 045c E9E7     		b	.L67
 1202              	.LVL115:
 1203              	.L70:
 621:../Drivers/STM32L4xx_HAL_Driver/Src/stm32l4xx_hal_flash_ex.c ****     /* Enable data cache */
 1204              		.loc 1 621 5 view .LVU429
 621:../Drivers/STM32L4xx_HAL_Driver/Src/stm32l4xx_hal_flash_ex.c ****     /* Enable data cache */
 1205              		.loc 1 621 5 view .LVU430
 1206 045e 084B     		ldr	r3, .L71+4
 1207 0460 1A68     		ldr	r2, [r3]
 1208 0462 42F48052 		orr	r2, r2, #4096
 1209 0466 1A60     		str	r2, [r3]
 621:../Drivers/STM32L4xx_HAL_Driver/Src/stm32l4xx_hal_flash_ex.c ****     /* Enable data cache */
 1210              		.loc 1 621 5 view .LVU431
 1211 0468 1A68     		ldr	r2, [r3]
 1212 046a 22F48052 		bic	r2, r2, #4096
 1213 046e 1A60     		str	r2, [r3]
 621:../Drivers/STM32L4xx_HAL_Driver/Src/stm32l4xx_hal_flash_ex.c ****     /* Enable data cache */
 1214              		.loc 1 621 5 view .LVU432
 623:../Drivers/STM32L4xx_HAL_Driver/Src/stm32l4xx_hal_flash_ex.c ****   }
 1215              		.loc 1 623 5 view .LVU433
 1216 0470 1A68     		ldr	r2, [r3]
 1217 0472 42F48062 		orr	r2, r2, #1024
 1218 0476 1A60     		str	r2, [r3]
 1219 0478 DFE7     		b	.L68
 1220              	.L72:
 1221 047a 00BF     		.align	2
 1222              	.L71:
 1223 047c 00000000 		.word	pFlash
 1224 0480 00200240 		.word	1073881088
 1225              		.cfi_endproc
 1226              	.LFE139:
 1227              		.size	FLASH_FlushCaches, .-FLASH_FlushCaches
 1228              		.align	1
 1229              		.global	HAL_FLASHEx_Erase
 1230              		.syntax unified
 1231              		.thumb
 1232              		.thumb_func
 1233              		.fpu softvfp
 1234              		.type	HAL_FLASHEx_Erase, %function
 1235              	HAL_FLASHEx_Erase:
 1236              	.LVL116:
 1237              	.LFB133:
 128:../Drivers/STM32L4xx_HAL_Driver/Src/stm32l4xx_hal_flash_ex.c ****   HAL_StatusTypeDef status;
 1238              		.loc 1 128 1 view -0
 1239              		.cfi_startproc
 1240              		@ args = 0, pretend = 0, frame = 0
 1241              		@ frame_needed = 0, uses_anonymous_args = 0
ARM GAS  C:\Users\hoodc\AppData\Local\Temp\ccsNrQcU.s 			page 49


 128:../Drivers/STM32L4xx_HAL_Driver/Src/stm32l4xx_hal_flash_ex.c ****   HAL_StatusTypeDef status;
 1242              		.loc 1 128 1 is_stmt 0 view .LVU435
 1243 0484 2DE9F843 		push	{r3, r4, r5, r6, r7, r8, r9, lr}
 1244              	.LCFI2:
 1245              		.cfi_def_cfa_offset 32
 1246              		.cfi_offset 3, -32
 1247              		.cfi_offset 4, -28
 1248              		.cfi_offset 5, -24
 1249              		.cfi_offset 6, -20
 1250              		.cfi_offset 7, -16
 1251              		.cfi_offset 8, -12
 1252              		.cfi_offset 9, -8
 1253              		.cfi_offset 14, -4
 1254 0488 0446     		mov	r4, r0
 1255 048a 0F46     		mov	r7, r1
 129:../Drivers/STM32L4xx_HAL_Driver/Src/stm32l4xx_hal_flash_ex.c ****   uint32_t page_index;
 1256              		.loc 1 129 3 is_stmt 1 view .LVU436
 130:../Drivers/STM32L4xx_HAL_Driver/Src/stm32l4xx_hal_flash_ex.c **** 
 1257              		.loc 1 130 3 view .LVU437
 133:../Drivers/STM32L4xx_HAL_Driver/Src/stm32l4xx_hal_flash_ex.c **** 
 1258              		.loc 1 133 3 view .LVU438
 133:../Drivers/STM32L4xx_HAL_Driver/Src/stm32l4xx_hal_flash_ex.c **** 
 1259              		.loc 1 133 3 view .LVU439
 1260 048c 3C4B     		ldr	r3, .L88
 1261 048e 1B78     		ldrb	r3, [r3]	@ zero_extendqisi2
 1262 0490 012B     		cmp	r3, #1
 1263 0492 71D0     		beq	.L84
 133:../Drivers/STM32L4xx_HAL_Driver/Src/stm32l4xx_hal_flash_ex.c **** 
 1264              		.loc 1 133 3 discriminator 2 view .LVU440
 1265 0494 3A4B     		ldr	r3, .L88
 1266 0496 0122     		movs	r2, #1
 1267 0498 1A70     		strb	r2, [r3]
 133:../Drivers/STM32L4xx_HAL_Driver/Src/stm32l4xx_hal_flash_ex.c **** 
 1268              		.loc 1 133 3 discriminator 2 view .LVU441
 136:../Drivers/STM32L4xx_HAL_Driver/Src/stm32l4xx_hal_flash_ex.c **** 
 1269              		.loc 1 136 3 discriminator 2 view .LVU442
 139:../Drivers/STM32L4xx_HAL_Driver/Src/stm32l4xx_hal_flash_ex.c **** 
 1270              		.loc 1 139 3 discriminator 2 view .LVU443
 139:../Drivers/STM32L4xx_HAL_Driver/Src/stm32l4xx_hal_flash_ex.c **** 
 1271              		.loc 1 139 12 is_stmt 0 discriminator 2 view .LVU444
 1272 049a 4CF25030 		movw	r0, #50000
 1273              	.LVL117:
 139:../Drivers/STM32L4xx_HAL_Driver/Src/stm32l4xx_hal_flash_ex.c **** 
 1274              		.loc 1 139 12 discriminator 2 view .LVU445
 1275 049e FFF7FEFF 		bl	FLASH_WaitForLastOperation
 1276              	.LVL118:
 141:../Drivers/STM32L4xx_HAL_Driver/Src/stm32l4xx_hal_flash_ex.c ****   {
 1277              		.loc 1 141 3 is_stmt 1 discriminator 2 view .LVU446
 141:../Drivers/STM32L4xx_HAL_Driver/Src/stm32l4xx_hal_flash_ex.c ****   {
 1278              		.loc 1 141 6 is_stmt 0 discriminator 2 view .LVU447
 1279 04a2 8146     		mov	r9, r0
 1280 04a4 0028     		cmp	r0, #0
 1281 04a6 61D1     		bne	.L75
 143:../Drivers/STM32L4xx_HAL_Driver/Src/stm32l4xx_hal_flash_ex.c **** 
 1282              		.loc 1 143 5 is_stmt 1 view .LVU448
 143:../Drivers/STM32L4xx_HAL_Driver/Src/stm32l4xx_hal_flash_ex.c **** 
 1283              		.loc 1 143 22 is_stmt 0 view .LVU449
ARM GAS  C:\Users\hoodc\AppData\Local\Temp\ccsNrQcU.s 			page 50


 1284 04a8 354B     		ldr	r3, .L88
 1285 04aa 0022     		movs	r2, #0
 1286 04ac 5A60     		str	r2, [r3, #4]
 146:../Drivers/STM32L4xx_HAL_Driver/Src/stm32l4xx_hal_flash_ex.c ****     {
 1287              		.loc 1 146 5 is_stmt 1 view .LVU450
 146:../Drivers/STM32L4xx_HAL_Driver/Src/stm32l4xx_hal_flash_ex.c ****     {
 1288              		.loc 1 146 8 is_stmt 0 view .LVU451
 1289 04ae 354B     		ldr	r3, .L88+4
 1290 04b0 1B68     		ldr	r3, [r3]
 146:../Drivers/STM32L4xx_HAL_Driver/Src/stm32l4xx_hal_flash_ex.c ****     {
 1291              		.loc 1 146 7 view .LVU452
 1292 04b2 13F4007F 		tst	r3, #512
 1293 04b6 36D0     		beq	.L76
 149:../Drivers/STM32L4xx_HAL_Driver/Src/stm32l4xx_hal_flash_ex.c **** 
 1294              		.loc 1 149 7 is_stmt 1 view .LVU453
 1295 04b8 324B     		ldr	r3, .L88+4
 1296 04ba 1A68     		ldr	r2, [r3]
 1297 04bc 22F40072 		bic	r2, r2, #512
 1298 04c0 1A60     		str	r2, [r3]
 151:../Drivers/STM32L4xx_HAL_Driver/Src/stm32l4xx_hal_flash_ex.c ****       {
 1299              		.loc 1 151 7 view .LVU454
 151:../Drivers/STM32L4xx_HAL_Driver/Src/stm32l4xx_hal_flash_ex.c ****       {
 1300              		.loc 1 151 10 is_stmt 0 view .LVU455
 1301 04c2 1B68     		ldr	r3, [r3]
 151:../Drivers/STM32L4xx_HAL_Driver/Src/stm32l4xx_hal_flash_ex.c ****       {
 1302              		.loc 1 151 9 view .LVU456
 1303 04c4 13F4806F 		tst	r3, #1024
 1304 04c8 29D0     		beq	.L77
 154:../Drivers/STM32L4xx_HAL_Driver/Src/stm32l4xx_hal_flash_ex.c ****         pFlash.CacheToReactivate = FLASH_CACHE_ICACHE_DCACHE_ENABLED;
 1305              		.loc 1 154 9 is_stmt 1 view .LVU457
 1306 04ca 2E4A     		ldr	r2, .L88+4
 1307 04cc 1368     		ldr	r3, [r2]
 1308 04ce 23F48063 		bic	r3, r3, #1024
 1309 04d2 1360     		str	r3, [r2]
 155:../Drivers/STM32L4xx_HAL_Driver/Src/stm32l4xx_hal_flash_ex.c ****       }
 1310              		.loc 1 155 9 view .LVU458
 155:../Drivers/STM32L4xx_HAL_Driver/Src/stm32l4xx_hal_flash_ex.c ****       }
 1311              		.loc 1 155 34 is_stmt 0 view .LVU459
 1312 04d4 2A4B     		ldr	r3, .L88
 1313 04d6 0322     		movs	r2, #3
 1314 04d8 1A77     		strb	r2, [r3, #28]
 1315              	.L78:
 173:../Drivers/STM32L4xx_HAL_Driver/Src/stm32l4xx_hal_flash_ex.c ****     {
 1316              		.loc 1 173 5 is_stmt 1 view .LVU460
 173:../Drivers/STM32L4xx_HAL_Driver/Src/stm32l4xx_hal_flash_ex.c ****     {
 1317              		.loc 1 173 8 is_stmt 0 view .LVU461
 1318 04da 2368     		ldr	r3, [r4]
 1319 04dc 012B     		cmp	r3, #1
 1320 04de 34D0     		beq	.L86
 195:../Drivers/STM32L4xx_HAL_Driver/Src/stm32l4xx_hal_flash_ex.c **** 
 1321              		.loc 1 195 7 is_stmt 1 view .LVU462
 195:../Drivers/STM32L4xx_HAL_Driver/Src/stm32l4xx_hal_flash_ex.c **** 
 1322              		.loc 1 195 18 is_stmt 0 view .LVU463
 1323 04e0 4FF0FF33 		mov	r3, #-1
 1324 04e4 3B60     		str	r3, [r7]
 197:../Drivers/STM32L4xx_HAL_Driver/Src/stm32l4xx_hal_flash_ex.c ****       {
 1325              		.loc 1 197 7 is_stmt 1 view .LVU464
ARM GAS  C:\Users\hoodc\AppData\Local\Temp\ccsNrQcU.s 			page 51


 197:../Drivers/STM32L4xx_HAL_Driver/Src/stm32l4xx_hal_flash_ex.c ****       {
 1326              		.loc 1 197 22 is_stmt 0 view .LVU465
 1327 04e6 A568     		ldr	r5, [r4, #8]
 1328              	.LVL119:
 197:../Drivers/STM32L4xx_HAL_Driver/Src/stm32l4xx_hal_flash_ex.c ****       {
 1329              		.loc 1 197 42 is_stmt 1 view .LVU466
 197:../Drivers/STM32L4xx_HAL_Driver/Src/stm32l4xx_hal_flash_ex.c ****       {
 1330              		.loc 1 197 73 is_stmt 0 view .LVU467
 1331 04e8 E368     		ldr	r3, [r4, #12]
 1332 04ea 2B44     		add	r3, r3, r5
 197:../Drivers/STM32L4xx_HAL_Driver/Src/stm32l4xx_hal_flash_ex.c ****       {
 1333              		.loc 1 197 7 view .LVU468
 1334 04ec 9D42     		cmp	r5, r3
 1335 04ee 3BD2     		bcs	.L81
 202:../Drivers/STM32L4xx_HAL_Driver/Src/stm32l4xx_hal_flash_ex.c **** 
 1336              		.loc 1 202 18 view .LVU469
 1337 04f0 4CF25038 		movw	r8, #50000
 205:../Drivers/STM32L4xx_HAL_Driver/Src/stm32l4xx_hal_flash_ex.c **** 
 1338              		.loc 1 205 9 view .LVU470
 1339 04f4 234E     		ldr	r6, .L88+4
 1340              	.L83:
 199:../Drivers/STM32L4xx_HAL_Driver/Src/stm32l4xx_hal_flash_ex.c **** 
 1341              		.loc 1 199 9 is_stmt 1 view .LVU471
 1342 04f6 6168     		ldr	r1, [r4, #4]
 1343 04f8 2846     		mov	r0, r5
 1344 04fa FFF7FEFF 		bl	FLASH_PageErase
 1345              	.LVL120:
 202:../Drivers/STM32L4xx_HAL_Driver/Src/stm32l4xx_hal_flash_ex.c **** 
 1346              		.loc 1 202 9 view .LVU472
 202:../Drivers/STM32L4xx_HAL_Driver/Src/stm32l4xx_hal_flash_ex.c **** 
 1347              		.loc 1 202 18 is_stmt 0 view .LVU473
 1348 04fe 4046     		mov	r0, r8
 1349 0500 FFF7FEFF 		bl	FLASH_WaitForLastOperation
 1350              	.LVL121:
 205:../Drivers/STM32L4xx_HAL_Driver/Src/stm32l4xx_hal_flash_ex.c **** 
 1351              		.loc 1 205 9 is_stmt 1 view .LVU474
 1352 0504 7369     		ldr	r3, [r6, #20]
 1353 0506 23F4FD73 		bic	r3, r3, #506
 1354 050a 7361     		str	r3, [r6, #20]
 207:../Drivers/STM32L4xx_HAL_Driver/Src/stm32l4xx_hal_flash_ex.c ****         {
 1355              		.loc 1 207 9 view .LVU475
 207:../Drivers/STM32L4xx_HAL_Driver/Src/stm32l4xx_hal_flash_ex.c ****         {
 1356              		.loc 1 207 12 is_stmt 0 view .LVU476
 1357 050c 8146     		mov	r9, r0
 1358 050e 50BB     		cbnz	r0, .L87
 197:../Drivers/STM32L4xx_HAL_Driver/Src/stm32l4xx_hal_flash_ex.c ****       {
 1359              		.loc 1 197 97 is_stmt 1 discriminator 2 view .LVU477
 197:../Drivers/STM32L4xx_HAL_Driver/Src/stm32l4xx_hal_flash_ex.c ****       {
 1360              		.loc 1 197 107 is_stmt 0 discriminator 2 view .LVU478
 1361 0510 0135     		adds	r5, r5, #1
 1362              	.LVL122:
 197:../Drivers/STM32L4xx_HAL_Driver/Src/stm32l4xx_hal_flash_ex.c ****       {
 1363              		.loc 1 197 42 is_stmt 1 discriminator 2 view .LVU479
 197:../Drivers/STM32L4xx_HAL_Driver/Src/stm32l4xx_hal_flash_ex.c ****       {
 1364              		.loc 1 197 73 is_stmt 0 discriminator 2 view .LVU480
 1365 0512 A368     		ldr	r3, [r4, #8]
 1366 0514 E268     		ldr	r2, [r4, #12]
ARM GAS  C:\Users\hoodc\AppData\Local\Temp\ccsNrQcU.s 			page 52


 1367 0516 1344     		add	r3, r3, r2
 197:../Drivers/STM32L4xx_HAL_Driver/Src/stm32l4xx_hal_flash_ex.c ****       {
 1368              		.loc 1 197 7 discriminator 2 view .LVU481
 1369 0518 AB42     		cmp	r3, r5
 1370 051a ECD8     		bhi	.L83
 1371 051c 24E0     		b	.L81
 1372              	.LVL123:
 1373              	.L77:
 159:../Drivers/STM32L4xx_HAL_Driver/Src/stm32l4xx_hal_flash_ex.c ****       }
 1374              		.loc 1 159 9 is_stmt 1 view .LVU482
 159:../Drivers/STM32L4xx_HAL_Driver/Src/stm32l4xx_hal_flash_ex.c ****       }
 1375              		.loc 1 159 34 is_stmt 0 view .LVU483
 1376 051e 184B     		ldr	r3, .L88
 1377 0520 0122     		movs	r2, #1
 1378 0522 1A77     		strb	r2, [r3, #28]
 1379 0524 D9E7     		b	.L78
 1380              	.L76:
 162:../Drivers/STM32L4xx_HAL_Driver/Src/stm32l4xx_hal_flash_ex.c ****     {
 1381              		.loc 1 162 10 is_stmt 1 view .LVU484
 162:../Drivers/STM32L4xx_HAL_Driver/Src/stm32l4xx_hal_flash_ex.c ****     {
 1382              		.loc 1 162 13 is_stmt 0 view .LVU485
 1383 0526 174B     		ldr	r3, .L88+4
 1384 0528 1B68     		ldr	r3, [r3]
 162:../Drivers/STM32L4xx_HAL_Driver/Src/stm32l4xx_hal_flash_ex.c ****     {
 1385              		.loc 1 162 12 view .LVU486
 1386 052a 13F4806F 		tst	r3, #1024
 1387 052e 08D0     		beq	.L79
 165:../Drivers/STM32L4xx_HAL_Driver/Src/stm32l4xx_hal_flash_ex.c ****       pFlash.CacheToReactivate = FLASH_CACHE_DCACHE_ENABLED;
 1388              		.loc 1 165 7 is_stmt 1 view .LVU487
 1389 0530 144A     		ldr	r2, .L88+4
 1390 0532 1368     		ldr	r3, [r2]
 1391 0534 23F48063 		bic	r3, r3, #1024
 1392 0538 1360     		str	r3, [r2]
 166:../Drivers/STM32L4xx_HAL_Driver/Src/stm32l4xx_hal_flash_ex.c ****     }
 1393              		.loc 1 166 7 view .LVU488
 166:../Drivers/STM32L4xx_HAL_Driver/Src/stm32l4xx_hal_flash_ex.c ****     }
 1394              		.loc 1 166 32 is_stmt 0 view .LVU489
 1395 053a 114B     		ldr	r3, .L88
 1396 053c 0222     		movs	r2, #2
 1397 053e 1A77     		strb	r2, [r3, #28]
 1398 0540 CBE7     		b	.L78
 1399              	.L79:
 170:../Drivers/STM32L4xx_HAL_Driver/Src/stm32l4xx_hal_flash_ex.c ****     }
 1400              		.loc 1 170 7 is_stmt 1 view .LVU490
 170:../Drivers/STM32L4xx_HAL_Driver/Src/stm32l4xx_hal_flash_ex.c ****     }
 1401              		.loc 1 170 32 is_stmt 0 view .LVU491
 1402 0542 0F4B     		ldr	r3, .L88
 1403 0544 0022     		movs	r2, #0
 1404 0546 1A77     		strb	r2, [r3, #28]
 1405 0548 C7E7     		b	.L78
 1406              	.L86:
 176:../Drivers/STM32L4xx_HAL_Driver/Src/stm32l4xx_hal_flash_ex.c **** 
 1407              		.loc 1 176 7 is_stmt 1 view .LVU492
 1408 054a 6068     		ldr	r0, [r4, #4]
 1409              	.LVL124:
 176:../Drivers/STM32L4xx_HAL_Driver/Src/stm32l4xx_hal_flash_ex.c **** 
 1410              		.loc 1 176 7 is_stmt 0 view .LVU493
ARM GAS  C:\Users\hoodc\AppData\Local\Temp\ccsNrQcU.s 			page 53


 1411 054c FFF758FD 		bl	FLASH_MassErase
 1412              	.LVL125:
 179:../Drivers/STM32L4xx_HAL_Driver/Src/stm32l4xx_hal_flash_ex.c **** 
 1413              		.loc 1 179 7 is_stmt 1 view .LVU494
 179:../Drivers/STM32L4xx_HAL_Driver/Src/stm32l4xx_hal_flash_ex.c **** 
 1414              		.loc 1 179 16 is_stmt 0 view .LVU495
 1415 0550 4CF25030 		movw	r0, #50000
 1416 0554 FFF7FEFF 		bl	FLASH_WaitForLastOperation
 1417              	.LVL126:
 1418 0558 8146     		mov	r9, r0
 1419              	.LVL127:
 189:../Drivers/STM32L4xx_HAL_Driver/Src/stm32l4xx_hal_flash_ex.c **** #endif
 1420              		.loc 1 189 7 is_stmt 1 view .LVU496
 1421 055a 0A4A     		ldr	r2, .L88+4
 1422 055c 5369     		ldr	r3, [r2, #20]
 1423 055e 23F00403 		bic	r3, r3, #4
 1424 0562 5361     		str	r3, [r2, #20]
 1425 0564 00E0     		b	.L81
 1426              	.LVL128:
 1427              	.L87:
 210:../Drivers/STM32L4xx_HAL_Driver/Src/stm32l4xx_hal_flash_ex.c ****           break;
 1428              		.loc 1 210 11 view .LVU497
 210:../Drivers/STM32L4xx_HAL_Driver/Src/stm32l4xx_hal_flash_ex.c ****           break;
 1429              		.loc 1 210 22 is_stmt 0 view .LVU498
 1430 0566 3D60     		str	r5, [r7]
 211:../Drivers/STM32L4xx_HAL_Driver/Src/stm32l4xx_hal_flash_ex.c ****         }
 1431              		.loc 1 211 11 is_stmt 1 view .LVU499
 1432              	.LVL129:
 1433              	.L81:
 217:../Drivers/STM32L4xx_HAL_Driver/Src/stm32l4xx_hal_flash_ex.c ****   }
 1434              		.loc 1 217 5 view .LVU500
 1435 0568 FFF7FEFF 		bl	FLASH_FlushCaches
 1436              	.LVL130:
 1437              	.L75:
 221:../Drivers/STM32L4xx_HAL_Driver/Src/stm32l4xx_hal_flash_ex.c **** 
 1438              		.loc 1 221 3 view .LVU501
 221:../Drivers/STM32L4xx_HAL_Driver/Src/stm32l4xx_hal_flash_ex.c **** 
 1439              		.loc 1 221 3 view .LVU502
 1440 056c 044B     		ldr	r3, .L88
 1441 056e 0022     		movs	r2, #0
 1442 0570 1A70     		strb	r2, [r3]
 221:../Drivers/STM32L4xx_HAL_Driver/Src/stm32l4xx_hal_flash_ex.c **** 
 1443              		.loc 1 221 3 view .LVU503
 223:../Drivers/STM32L4xx_HAL_Driver/Src/stm32l4xx_hal_flash_ex.c **** }
 1444              		.loc 1 223 3 view .LVU504
 1445              	.LVL131:
 1446              	.L74:
 224:../Drivers/STM32L4xx_HAL_Driver/Src/stm32l4xx_hal_flash_ex.c **** 
 1447              		.loc 1 224 1 is_stmt 0 view .LVU505
 1448 0572 4846     		mov	r0, r9
 1449 0574 BDE8F883 		pop	{r3, r4, r5, r6, r7, r8, r9, pc}
 1450              	.LVL132:
 1451              	.L84:
 133:../Drivers/STM32L4xx_HAL_Driver/Src/stm32l4xx_hal_flash_ex.c **** 
 1452              		.loc 1 133 3 view .LVU506
 1453 0578 4FF00209 		mov	r9, #2
 1454 057c F9E7     		b	.L74
ARM GAS  C:\Users\hoodc\AppData\Local\Temp\ccsNrQcU.s 			page 54


 1455              	.L89:
 1456 057e 00BF     		.align	2
 1457              	.L88:
 1458 0580 00000000 		.word	pFlash
 1459 0584 00200240 		.word	1073881088
 1460              		.cfi_endproc
 1461              	.LFE133:
 1462              		.size	HAL_FLASHEx_Erase, .-HAL_FLASHEx_Erase
 1463              	.Letext0:
 1464              		.file 2 "c:\\program files (x86)\\gnu arm embedded toolchain\\10 2020-q4-major\\arm-none-eabi\\inc
 1465              		.file 3 "c:\\program files (x86)\\gnu arm embedded toolchain\\10 2020-q4-major\\arm-none-eabi\\inc
 1466              		.file 4 "C:/Users/hoodc/AppData/Local/Arm/Packs/Keil/STM32L4xx_DFP/2.5.0/Drivers/CMSIS/Device/ST/S
 1467              		.file 5 "../Drivers/STM32L4xx_HAL_Driver/Inc/stm32l4xx_hal_def.h"
 1468              		.file 6 "../Drivers/STM32L4xx_HAL_Driver/Inc/stm32l4xx_hal_flash.h"
 1469              		.section	.debug_info,"",%progbits
 1470              	.Ldebug_info0:
 1471 0000 F60A0000 		.4byte	0xaf6
 1472 0004 0200     		.2byte	0x2
 1473 0006 00000000 		.4byte	.Ldebug_abbrev0
 1474 000a 04       		.byte	0x4
 1475 000b 01       		.uleb128 0x1
 1476 000c 69000000 		.4byte	.LASF96
 1477 0010 0C       		.byte	0xc
 1478 0011 67020000 		.4byte	.LASF97
 1479 0015 BD030000 		.4byte	.LASF98
 1480 0019 00000000 		.4byte	.Ltext0
 1481 001d 88050000 		.4byte	.Letext0
 1482 0021 00000000 		.4byte	.Ldebug_line0
 1483 0025 02       		.uleb128 0x2
 1484 0026 01       		.byte	0x1
 1485 0027 06       		.byte	0x6
 1486 0028 64030000 		.4byte	.LASF0
 1487 002c 02       		.uleb128 0x2
 1488 002d 01       		.byte	0x1
 1489 002e 08       		.byte	0x8
 1490 002f 21030000 		.4byte	.LASF1
 1491 0033 02       		.uleb128 0x2
 1492 0034 02       		.byte	0x2
 1493 0035 05       		.byte	0x5
 1494 0036 5F000000 		.4byte	.LASF2
 1495 003a 02       		.uleb128 0x2
 1496 003b 02       		.byte	0x2
 1497 003c 07       		.byte	0x7
 1498 003d 35040000 		.4byte	.LASF3
 1499 0041 02       		.uleb128 0x2
 1500 0042 04       		.byte	0x4
 1501 0043 05       		.byte	0x5
 1502 0044 48020000 		.4byte	.LASF4
 1503 0048 03       		.uleb128 0x3
 1504 0049 5D010000 		.4byte	.LASF9
 1505 004d 02       		.byte	0x2
 1506 004e 4F       		.byte	0x4f
 1507 004f 19       		.byte	0x19
 1508 0050 54000000 		.4byte	0x54
 1509 0054 02       		.uleb128 0x2
 1510 0055 04       		.byte	0x4
 1511 0056 07       		.byte	0x7
ARM GAS  C:\Users\hoodc\AppData\Local\Temp\ccsNrQcU.s 			page 55


 1512 0057 B5040000 		.4byte	.LASF5
 1513 005b 02       		.uleb128 0x2
 1514 005c 08       		.byte	0x8
 1515 005d 05       		.byte	0x5
 1516 005e 11020000 		.4byte	.LASF6
 1517 0062 02       		.uleb128 0x2
 1518 0063 08       		.byte	0x8
 1519 0064 07       		.byte	0x7
 1520 0065 70030000 		.4byte	.LASF7
 1521 0069 04       		.uleb128 0x4
 1522 006a 04       		.byte	0x4
 1523 006b 05       		.byte	0x5
 1524 006c 696E7400 		.ascii	"int\000"
 1525 0070 02       		.uleb128 0x2
 1526 0071 04       		.byte	0x4
 1527 0072 07       		.byte	0x7
 1528 0073 A2030000 		.4byte	.LASF8
 1529 0077 03       		.uleb128 0x3
 1530 0078 99030000 		.4byte	.LASF10
 1531 007c 03       		.byte	0x3
 1532 007d 30       		.byte	0x30
 1533 007e 14       		.byte	0x14
 1534 007f 48000000 		.4byte	0x48
 1535 0083 05       		.uleb128 0x5
 1536 0084 77000000 		.4byte	0x77
 1537 0088 06       		.uleb128 0x6
 1538 0089 34       		.byte	0x34
 1539 008a 04       		.byte	0x4
 1540 008b 5001     		.2byte	0x150
 1541 008d 09       		.byte	0x9
 1542 008e 61010000 		.4byte	0x161
 1543 0092 07       		.uleb128 0x7
 1544 0093 41435200 		.ascii	"ACR\000"
 1545 0097 04       		.byte	0x4
 1546 0098 5201     		.2byte	0x152
 1547 009a 11       		.byte	0x11
 1548 009b 83000000 		.4byte	0x83
 1549 009f 02       		.byte	0x2
 1550 00a0 23       		.byte	0x23
 1551 00a1 00       		.uleb128 0
 1552 00a2 08       		.uleb128 0x8
 1553 00a3 56010000 		.4byte	.LASF11
 1554 00a7 04       		.byte	0x4
 1555 00a8 5301     		.2byte	0x153
 1556 00aa 11       		.byte	0x11
 1557 00ab 83000000 		.4byte	0x83
 1558 00af 02       		.byte	0x2
 1559 00b0 23       		.byte	0x23
 1560 00b1 04       		.uleb128 0x4
 1561 00b2 08       		.uleb128 0x8
 1562 00b3 F5020000 		.4byte	.LASF12
 1563 00b7 04       		.byte	0x4
 1564 00b8 5401     		.2byte	0x154
 1565 00ba 11       		.byte	0x11
 1566 00bb 83000000 		.4byte	0x83
 1567 00bf 02       		.byte	0x2
 1568 00c0 23       		.byte	0x23
ARM GAS  C:\Users\hoodc\AppData\Local\Temp\ccsNrQcU.s 			page 56


 1569 00c1 08       		.uleb128 0x8
 1570 00c2 08       		.uleb128 0x8
 1571 00c3 09020000 		.4byte	.LASF13
 1572 00c7 04       		.byte	0x4
 1573 00c8 5501     		.2byte	0x155
 1574 00ca 11       		.byte	0x11
 1575 00cb 83000000 		.4byte	0x83
 1576 00cf 02       		.byte	0x2
 1577 00d0 23       		.byte	0x23
 1578 00d1 0C       		.uleb128 0xc
 1579 00d2 07       		.uleb128 0x7
 1580 00d3 535200   		.ascii	"SR\000"
 1581 00d6 04       		.byte	0x4
 1582 00d7 5601     		.2byte	0x156
 1583 00d9 11       		.byte	0x11
 1584 00da 83000000 		.4byte	0x83
 1585 00de 02       		.byte	0x2
 1586 00df 23       		.byte	0x23
 1587 00e0 10       		.uleb128 0x10
 1588 00e1 07       		.uleb128 0x7
 1589 00e2 435200   		.ascii	"CR\000"
 1590 00e5 04       		.byte	0x4
 1591 00e6 5701     		.2byte	0x157
 1592 00e8 11       		.byte	0x11
 1593 00e9 83000000 		.4byte	0x83
 1594 00ed 02       		.byte	0x2
 1595 00ee 23       		.byte	0x23
 1596 00ef 14       		.uleb128 0x14
 1597 00f0 08       		.uleb128 0x8
 1598 00f1 0A000000 		.4byte	.LASF14
 1599 00f5 04       		.byte	0x4
 1600 00f6 5801     		.2byte	0x158
 1601 00f8 11       		.byte	0x11
 1602 00f9 83000000 		.4byte	0x83
 1603 00fd 02       		.byte	0x2
 1604 00fe 23       		.byte	0x23
 1605 00ff 18       		.uleb128 0x18
 1606 0100 08       		.uleb128 0x8
 1607 0101 AB040000 		.4byte	.LASF15
 1608 0105 04       		.byte	0x4
 1609 0106 5901     		.2byte	0x159
 1610 0108 11       		.byte	0x11
 1611 0109 83000000 		.4byte	0x83
 1612 010d 02       		.byte	0x2
 1613 010e 23       		.byte	0x23
 1614 010f 1C       		.uleb128 0x1c
 1615 0110 08       		.uleb128 0x8
 1616 0111 05010000 		.4byte	.LASF16
 1617 0115 04       		.byte	0x4
 1618 0116 5A01     		.2byte	0x15a
 1619 0118 11       		.byte	0x11
 1620 0119 83000000 		.4byte	0x83
 1621 011d 02       		.byte	0x2
 1622 011e 23       		.byte	0x23
 1623 011f 20       		.uleb128 0x20
 1624 0120 08       		.uleb128 0x8
 1625 0121 9B040000 		.4byte	.LASF17
ARM GAS  C:\Users\hoodc\AppData\Local\Temp\ccsNrQcU.s 			page 57


 1626 0125 04       		.byte	0x4
 1627 0126 5B01     		.2byte	0x15b
 1628 0128 11       		.byte	0x11
 1629 0129 83000000 		.4byte	0x83
 1630 012d 02       		.byte	0x2
 1631 012e 23       		.byte	0x23
 1632 012f 24       		.uleb128 0x24
 1633 0130 08       		.uleb128 0x8
 1634 0131 3C060000 		.4byte	.LASF18
 1635 0135 04       		.byte	0x4
 1636 0136 5C01     		.2byte	0x15c
 1637 0138 11       		.byte	0x11
 1638 0139 83000000 		.4byte	0x83
 1639 013d 02       		.byte	0x2
 1640 013e 23       		.byte	0x23
 1641 013f 28       		.uleb128 0x28
 1642 0140 08       		.uleb128 0x8
 1643 0141 A4040000 		.4byte	.LASF19
 1644 0145 04       		.byte	0x4
 1645 0146 5D01     		.2byte	0x15d
 1646 0148 11       		.byte	0x11
 1647 0149 83000000 		.4byte	0x83
 1648 014d 02       		.byte	0x2
 1649 014e 23       		.byte	0x23
 1650 014f 2C       		.uleb128 0x2c
 1651 0150 08       		.uleb128 0x8
 1652 0151 30010000 		.4byte	.LASF20
 1653 0155 04       		.byte	0x4
 1654 0156 5E01     		.2byte	0x15e
 1655 0158 11       		.byte	0x11
 1656 0159 83000000 		.4byte	0x83
 1657 015d 02       		.byte	0x2
 1658 015e 23       		.byte	0x23
 1659 015f 30       		.uleb128 0x30
 1660 0160 00       		.byte	0
 1661 0161 09       		.uleb128 0x9
 1662 0162 A9050000 		.4byte	.LASF21
 1663 0166 04       		.byte	0x4
 1664 0167 5F01     		.2byte	0x15f
 1665 0169 03       		.byte	0x3
 1666 016a 88000000 		.4byte	0x88
 1667 016e 02       		.uleb128 0x2
 1668 016f 08       		.byte	0x8
 1669 0170 04       		.byte	0x4
 1670 0171 0B030000 		.4byte	.LASF22
 1671 0175 0A       		.uleb128 0xa
 1672 0176 07       		.byte	0x7
 1673 0177 01       		.byte	0x1
 1674 0178 2C000000 		.4byte	0x2c
 1675 017c 05       		.byte	0x5
 1676 017d 28       		.byte	0x28
 1677 017e 01       		.byte	0x1
 1678 017f 9C010000 		.4byte	0x19c
 1679 0183 0B       		.uleb128 0xb
 1680 0184 99010000 		.4byte	.LASF23
 1681 0188 00       		.byte	0
 1682 0189 0B       		.uleb128 0xb
ARM GAS  C:\Users\hoodc\AppData\Local\Temp\ccsNrQcU.s 			page 58


 1683 018a 00000000 		.4byte	.LASF24
 1684 018e 01       		.byte	0x1
 1685 018f 0B       		.uleb128 0xb
 1686 0190 C6010000 		.4byte	.LASF25
 1687 0194 02       		.byte	0x2
 1688 0195 0B       		.uleb128 0xb
 1689 0196 33000000 		.4byte	.LASF26
 1690 019a 03       		.byte	0x3
 1691 019b 00       		.byte	0
 1692 019c 03       		.uleb128 0x3
 1693 019d C2020000 		.4byte	.LASF27
 1694 01a1 05       		.byte	0x5
 1695 01a2 2D       		.byte	0x2d
 1696 01a3 03       		.byte	0x3
 1697 01a4 75010000 		.4byte	0x175
 1698 01a8 0A       		.uleb128 0xa
 1699 01a9 07       		.byte	0x7
 1700 01aa 01       		.byte	0x1
 1701 01ab 2C000000 		.4byte	0x2c
 1702 01af 05       		.byte	0x5
 1703 01b0 33       		.byte	0x33
 1704 01b1 01       		.byte	0x1
 1705 01b2 C3010000 		.4byte	0x1c3
 1706 01b6 0B       		.uleb128 0xb
 1707 01b7 0F000000 		.4byte	.LASF28
 1708 01bb 00       		.byte	0
 1709 01bc 0B       		.uleb128 0xb
 1710 01bd 24040000 		.4byte	.LASF29
 1711 01c1 01       		.byte	0x1
 1712 01c2 00       		.byte	0
 1713 01c3 03       		.uleb128 0x3
 1714 01c4 2C060000 		.4byte	.LASF30
 1715 01c8 05       		.byte	0x5
 1716 01c9 36       		.byte	0x36
 1717 01ca 03       		.byte	0x3
 1718 01cb A8010000 		.4byte	0x1a8
 1719 01cf 0C       		.uleb128 0xc
 1720 01d0 10       		.byte	0x10
 1721 01d1 06       		.byte	0x6
 1722 01d2 2F       		.byte	0x2f
 1723 01d3 09       		.byte	0x9
 1724 01d4 15020000 		.4byte	0x215
 1725 01d8 0D       		.uleb128 0xd
 1726 01d9 B8020000 		.4byte	.LASF31
 1727 01dd 06       		.byte	0x6
 1728 01de 31       		.byte	0x31
 1729 01df 0C       		.byte	0xc
 1730 01e0 77000000 		.4byte	0x77
 1731 01e4 02       		.byte	0x2
 1732 01e5 23       		.byte	0x23
 1733 01e6 00       		.uleb128 0
 1734 01e7 0D       		.uleb128 0xd
 1735 01e8 4F040000 		.4byte	.LASF32
 1736 01ec 06       		.byte	0x6
 1737 01ed 33       		.byte	0x33
 1738 01ee 0C       		.byte	0xc
 1739 01ef 77000000 		.4byte	0x77
ARM GAS  C:\Users\hoodc\AppData\Local\Temp\ccsNrQcU.s 			page 59


 1740 01f3 02       		.byte	0x2
 1741 01f4 23       		.byte	0x23
 1742 01f5 04       		.uleb128 0x4
 1743 01f6 0D       		.uleb128 0xd
 1744 01f7 5A000000 		.4byte	.LASF33
 1745 01fb 06       		.byte	0x6
 1746 01fc 36       		.byte	0x36
 1747 01fd 0C       		.byte	0xc
 1748 01fe 77000000 		.4byte	0x77
 1749 0202 02       		.byte	0x2
 1750 0203 23       		.byte	0x23
 1751 0204 08       		.uleb128 0x8
 1752 0205 0D       		.uleb128 0xd
 1753 0206 6D050000 		.4byte	.LASF34
 1754 020a 06       		.byte	0x6
 1755 020b 39       		.byte	0x39
 1756 020c 0C       		.byte	0xc
 1757 020d 77000000 		.4byte	0x77
 1758 0211 02       		.byte	0x2
 1759 0212 23       		.byte	0x23
 1760 0213 0C       		.uleb128 0xc
 1761 0214 00       		.byte	0
 1762 0215 03       		.uleb128 0x3
 1763 0216 FF050000 		.4byte	.LASF35
 1764 021a 06       		.byte	0x6
 1765 021b 3B       		.byte	0x3b
 1766 021c 03       		.byte	0x3
 1767 021d CF010000 		.4byte	0x1cf
 1768 0221 0C       		.uleb128 0xc
 1769 0222 28       		.byte	0x28
 1770 0223 06       		.byte	0x6
 1771 0224 40       		.byte	0x40
 1772 0225 09       		.byte	0x9
 1773 0226 C1020000 		.4byte	0x2c1
 1774 022a 0D       		.uleb128 0xd
 1775 022b A0010000 		.4byte	.LASF36
 1776 022f 06       		.byte	0x6
 1777 0230 42       		.byte	0x42
 1778 0231 0C       		.byte	0xc
 1779 0232 77000000 		.4byte	0x77
 1780 0236 02       		.byte	0x2
 1781 0237 23       		.byte	0x23
 1782 0238 00       		.uleb128 0
 1783 0239 0D       		.uleb128 0xd
 1784 023a AB010000 		.4byte	.LASF37
 1785 023e 06       		.byte	0x6
 1786 023f 44       		.byte	0x44
 1787 0240 0C       		.byte	0xc
 1788 0241 77000000 		.4byte	0x77
 1789 0245 02       		.byte	0x2
 1790 0246 23       		.byte	0x23
 1791 0247 04       		.uleb128 0x4
 1792 0248 0D       		.uleb128 0xd
 1793 0249 2F030000 		.4byte	.LASF38
 1794 024d 06       		.byte	0x6
 1795 024e 47       		.byte	0x47
 1796 024f 0C       		.byte	0xc
ARM GAS  C:\Users\hoodc\AppData\Local\Temp\ccsNrQcU.s 			page 60


 1797 0250 77000000 		.4byte	0x77
 1798 0254 02       		.byte	0x2
 1799 0255 23       		.byte	0x23
 1800 0256 08       		.uleb128 0x8
 1801 0257 0D       		.uleb128 0xd
 1802 0258 7C040000 		.4byte	.LASF39
 1803 025c 06       		.byte	0x6
 1804 025d 4A       		.byte	0x4a
 1805 025e 0C       		.byte	0xc
 1806 025f 77000000 		.4byte	0x77
 1807 0263 02       		.byte	0x2
 1808 0264 23       		.byte	0x23
 1809 0265 0C       		.uleb128 0xc
 1810 0266 0D       		.uleb128 0xd
 1811 0267 D2040000 		.4byte	.LASF40
 1812 026b 06       		.byte	0x6
 1813 026c 4C       		.byte	0x4c
 1814 026d 0C       		.byte	0xc
 1815 026e 77000000 		.4byte	0x77
 1816 0272 02       		.byte	0x2
 1817 0273 23       		.byte	0x23
 1818 0274 10       		.uleb128 0x10
 1819 0275 0D       		.uleb128 0xd
 1820 0276 55040000 		.4byte	.LASF41
 1821 027a 06       		.byte	0x6
 1822 027b 4E       		.byte	0x4e
 1823 027c 0C       		.byte	0xc
 1824 027d 77000000 		.4byte	0x77
 1825 0281 02       		.byte	0x2
 1826 0282 23       		.byte	0x23
 1827 0283 14       		.uleb128 0x14
 1828 0284 0D       		.uleb128 0xd
 1829 0285 71040000 		.4byte	.LASF42
 1830 0289 06       		.byte	0x6
 1831 028a 50       		.byte	0x50
 1832 028b 0C       		.byte	0xc
 1833 028c 77000000 		.4byte	0x77
 1834 0290 02       		.byte	0x2
 1835 0291 23       		.byte	0x23
 1836 0292 18       		.uleb128 0x18
 1837 0293 0D       		.uleb128 0xd
 1838 0294 D4020000 		.4byte	.LASF43
 1839 0298 06       		.byte	0x6
 1840 0299 58       		.byte	0x58
 1841 029a 0C       		.byte	0xc
 1842 029b 77000000 		.4byte	0x77
 1843 029f 02       		.byte	0x2
 1844 02a0 23       		.byte	0x23
 1845 02a1 1C       		.uleb128 0x1c
 1846 02a2 0D       		.uleb128 0xd
 1847 02a3 A9020000 		.4byte	.LASF44
 1848 02a7 06       		.byte	0x6
 1849 02a8 5B       		.byte	0x5b
 1850 02a9 0C       		.byte	0xc
 1851 02aa 77000000 		.4byte	0x77
 1852 02ae 02       		.byte	0x2
 1853 02af 23       		.byte	0x23
ARM GAS  C:\Users\hoodc\AppData\Local\Temp\ccsNrQcU.s 			page 61


 1854 02b0 20       		.uleb128 0x20
 1855 02b1 0D       		.uleb128 0xd
 1856 02b2 17040000 		.4byte	.LASF45
 1857 02b6 06       		.byte	0x6
 1858 02b7 5E       		.byte	0x5e
 1859 02b8 0C       		.byte	0xc
 1860 02b9 77000000 		.4byte	0x77
 1861 02bd 02       		.byte	0x2
 1862 02be 23       		.byte	0x23
 1863 02bf 24       		.uleb128 0x24
 1864 02c0 00       		.byte	0
 1865 02c1 03       		.uleb128 0x3
 1866 02c2 3F000000 		.4byte	.LASF46
 1867 02c6 06       		.byte	0x6
 1868 02c7 60       		.byte	0x60
 1869 02c8 03       		.byte	0x3
 1870 02c9 21020000 		.4byte	0x221
 1871 02cd 0A       		.uleb128 0xa
 1872 02ce 07       		.byte	0x7
 1873 02cf 01       		.byte	0x1
 1874 02d0 2C000000 		.4byte	0x2c
 1875 02d4 06       		.byte	0x6
 1876 02d5 66       		.byte	0x66
 1877 02d6 01       		.byte	0x1
 1878 02d7 FA020000 		.4byte	0x2fa
 1879 02db 0B       		.uleb128 0xb
 1880 02dc 87050000 		.4byte	.LASF47
 1881 02e0 00       		.byte	0
 1882 02e1 0B       		.uleb128 0xb
 1883 02e2 51020000 		.4byte	.LASF48
 1884 02e6 01       		.byte	0x1
 1885 02e7 0B       		.uleb128 0xb
 1886 02e8 16060000 		.4byte	.LASF49
 1887 02ec 02       		.byte	0x2
 1888 02ed 0B       		.uleb128 0xb
 1889 02ee B3010000 		.4byte	.LASF50
 1890 02f2 03       		.byte	0x3
 1891 02f3 0B       		.uleb128 0xb
 1892 02f4 D2050000 		.4byte	.LASF51
 1893 02f8 04       		.byte	0x4
 1894 02f9 00       		.byte	0
 1895 02fa 03       		.uleb128 0x3
 1896 02fb 1C000000 		.4byte	.LASF52
 1897 02ff 06       		.byte	0x6
 1898 0300 6C       		.byte	0x6c
 1899 0301 03       		.byte	0x3
 1900 0302 CD020000 		.4byte	0x2cd
 1901 0306 05       		.uleb128 0x5
 1902 0307 FA020000 		.4byte	0x2fa
 1903 030b 0A       		.uleb128 0xa
 1904 030c 07       		.byte	0x7
 1905 030d 01       		.byte	0x1
 1906 030e 2C000000 		.4byte	0x2c
 1907 0312 06       		.byte	0x6
 1908 0313 72       		.byte	0x72
 1909 0314 01       		.byte	0x1
 1910 0315 32030000 		.4byte	0x332
ARM GAS  C:\Users\hoodc\AppData\Local\Temp\ccsNrQcU.s 			page 62


 1911 0319 0B       		.uleb128 0xb
 1912 031a 25050000 		.4byte	.LASF53
 1913 031e 00       		.byte	0
 1914 031f 0B       		.uleb128 0xb
 1915 0320 0A010000 		.4byte	.LASF54
 1916 0324 01       		.byte	0x1
 1917 0325 0B       		.uleb128 0xb
 1918 0326 3E030000 		.4byte	.LASF55
 1919 032a 02       		.byte	0x2
 1920 032b 0B       		.uleb128 0xb
 1921 032c E7010000 		.4byte	.LASF56
 1922 0330 03       		.byte	0x3
 1923 0331 00       		.byte	0
 1924 0332 03       		.uleb128 0x3
 1925 0333 35020000 		.4byte	.LASF57
 1926 0337 06       		.byte	0x6
 1927 0338 77       		.byte	0x77
 1928 0339 03       		.byte	0x3
 1929 033a 0B030000 		.4byte	0x30b
 1930 033e 05       		.uleb128 0x5
 1931 033f 32030000 		.4byte	0x332
 1932 0343 0C       		.uleb128 0xc
 1933 0344 20       		.byte	0x20
 1934 0345 06       		.byte	0x6
 1935 0346 7C       		.byte	0x7c
 1936 0347 09       		.byte	0x9
 1937 0348 C5030000 		.4byte	0x3c5
 1938 034c 0D       		.uleb128 0xd
 1939 034d A4020000 		.4byte	.LASF58
 1940 0351 06       		.byte	0x6
 1941 0352 7E       		.byte	0x7e
 1942 0353 1F       		.byte	0x1f
 1943 0354 C3010000 		.4byte	0x1c3
 1944 0358 02       		.byte	0x2
 1945 0359 23       		.byte	0x23
 1946 035a 00       		.uleb128 0
 1947 035b 0D       		.uleb128 0xd
 1948 035c F5050000 		.4byte	.LASF59
 1949 0360 06       		.byte	0x6
 1950 0361 7F       		.byte	0x7f
 1951 0362 1F       		.byte	0x1f
 1952 0363 83000000 		.4byte	0x83
 1953 0367 02       		.byte	0x2
 1954 0368 23       		.byte	0x23
 1955 0369 04       		.uleb128 0x4
 1956 036a 0D       		.uleb128 0xd
 1957 036b 1F020000 		.4byte	.LASF60
 1958 036f 06       		.byte	0x6
 1959 0370 80       		.byte	0x80
 1960 0371 1F       		.byte	0x1f
 1961 0372 06030000 		.4byte	0x306
 1962 0376 02       		.byte	0x2
 1963 0377 23       		.byte	0x23
 1964 0378 08       		.uleb128 0x8
 1965 0379 0D       		.uleb128 0xd
 1966 037a 68010000 		.4byte	.LASF61
 1967 037e 06       		.byte	0x6
ARM GAS  C:\Users\hoodc\AppData\Local\Temp\ccsNrQcU.s 			page 63


 1968 037f 81       		.byte	0x81
 1969 0380 1F       		.byte	0x1f
 1970 0381 83000000 		.4byte	0x83
 1971 0385 02       		.byte	0x2
 1972 0386 23       		.byte	0x23
 1973 0387 0C       		.uleb128 0xc
 1974 0388 0D       		.uleb128 0xd
 1975 0389 30020000 		.4byte	.LASF62
 1976 038d 06       		.byte	0x6
 1977 038e 82       		.byte	0x82
 1978 038f 1F       		.byte	0x1f
 1979 0390 83000000 		.4byte	0x83
 1980 0394 02       		.byte	0x2
 1981 0395 23       		.byte	0x23
 1982 0396 10       		.uleb128 0x10
 1983 0397 0D       		.uleb128 0xd
 1984 0398 5A000000 		.4byte	.LASF33
 1985 039c 06       		.byte	0x6
 1986 039d 83       		.byte	0x83
 1987 039e 1F       		.byte	0x1f
 1988 039f 83000000 		.4byte	0x83
 1989 03a3 02       		.byte	0x2
 1990 03a4 23       		.byte	0x23
 1991 03a5 14       		.uleb128 0x14
 1992 03a6 0D       		.uleb128 0xd
 1993 03a7 47010000 		.4byte	.LASF63
 1994 03ab 06       		.byte	0x6
 1995 03ac 84       		.byte	0x84
 1996 03ad 1F       		.byte	0x1f
 1997 03ae 83000000 		.4byte	0x83
 1998 03b2 02       		.byte	0x2
 1999 03b3 23       		.byte	0x23
 2000 03b4 18       		.uleb128 0x18
 2001 03b5 0D       		.uleb128 0xd
 2002 03b6 75050000 		.4byte	.LASF64
 2003 03ba 06       		.byte	0x6
 2004 03bb 85       		.byte	0x85
 2005 03bc 1F       		.byte	0x1f
 2006 03bd 3E030000 		.4byte	0x33e
 2007 03c1 02       		.byte	0x2
 2008 03c2 23       		.byte	0x23
 2009 03c3 1C       		.uleb128 0x1c
 2010 03c4 00       		.byte	0
 2011 03c5 03       		.uleb128 0x3
 2012 03c6 E0020000 		.4byte	.LASF65
 2013 03ca 06       		.byte	0x6
 2014 03cb 86       		.byte	0x86
 2015 03cc 02       		.byte	0x2
 2016 03cd 43030000 		.4byte	0x343
 2017 03d1 0E       		.uleb128 0xe
 2018 03d2 55060000 		.4byte	.LASF84
 2019 03d6 06       		.byte	0x6
 2020 03d7 3A03     		.2byte	0x33a
 2021 03d9 1D       		.byte	0x1d
 2022 03da C5030000 		.4byte	0x3c5
 2023 03de 01       		.byte	0x1
 2024 03df 01       		.byte	0x1
ARM GAS  C:\Users\hoodc\AppData\Local\Temp\ccsNrQcU.s 			page 64


 2025 03e0 0F       		.uleb128 0xf
 2026 03e1 87030000 		.4byte	.LASF72
 2027 03e5 01       		.byte	0x1
 2028 03e6 C304     		.2byte	0x4c3
 2029 03e8 0D       		.byte	0xd
 2030 03e9 01       		.byte	0x1
 2031 03ea 01       		.byte	0x1
 2032 03eb 31040000 		.4byte	0x431
 2033 03ef 10       		.uleb128 0x10
 2034 03f0 D4020000 		.4byte	.LASF43
 2035 03f4 01       		.byte	0x1
 2036 03f5 C304     		.2byte	0x4c3
 2037 03f7 2A       		.byte	0x2a
 2038 03f8 31040000 		.4byte	0x431
 2039 03fc 10       		.uleb128 0x10
 2040 03fd A9020000 		.4byte	.LASF44
 2041 0401 01       		.byte	0x1
 2042 0402 C304     		.2byte	0x4c3
 2043 0404 42       		.byte	0x42
 2044 0405 31040000 		.4byte	0x431
 2045 0409 10       		.uleb128 0x10
 2046 040a 17040000 		.4byte	.LASF45
 2047 040e 01       		.byte	0x1
 2048 040f C304     		.2byte	0x4c3
 2049 0411 5D       		.byte	0x5d
 2050 0412 31040000 		.4byte	0x431
 2051 0416 11       		.uleb128 0x11
 2052 0417 1B050000 		.4byte	.LASF66
 2053 041b 01       		.byte	0x1
 2054 041c C504     		.2byte	0x4c5
 2055 041e 0C       		.byte	0xc
 2056 041f 77000000 		.4byte	0x77
 2057 0423 11       		.uleb128 0x11
 2058 0424 25010000 		.4byte	.LASF67
 2059 0428 01       		.byte	0x1
 2060 0429 C604     		.2byte	0x4c6
 2061 042b 0C       		.byte	0xc
 2062 042c 77000000 		.4byte	0x77
 2063 0430 00       		.byte	0
 2064 0431 12       		.uleb128 0x12
 2065 0432 04       		.byte	0x4
 2066 0433 77000000 		.4byte	0x77
 2067 0437 13       		.uleb128 0x13
 2068 0438 FA020000 		.4byte	.LASF69
 2069 043c 01       		.byte	0x1
 2070 043d AC04     		.2byte	0x4ac
 2071 043f 11       		.byte	0x11
 2072 0440 01       		.byte	0x1
 2073 0441 77000000 		.4byte	0x77
 2074 0445 01       		.byte	0x1
 2075 0446 58040000 		.4byte	0x458
 2076 044a 11       		.uleb128 0x11
 2077 044b DB040000 		.4byte	.LASF68
 2078 044f 01       		.byte	0x1
 2079 0450 AE04     		.2byte	0x4ae
 2080 0452 0C       		.byte	0xc
 2081 0453 77000000 		.4byte	0x77
ARM GAS  C:\Users\hoodc\AppData\Local\Temp\ccsNrQcU.s 			page 65


 2082 0457 00       		.byte	0
 2083 0458 13       		.uleb128 0x13
 2084 0459 5C060000 		.4byte	.LASF70
 2085 045d 01       		.byte	0x1
 2086 045e 9204     		.2byte	0x492
 2087 0460 11       		.byte	0x11
 2088 0461 01       		.byte	0x1
 2089 0462 77000000 		.4byte	0x77
 2090 0466 01       		.byte	0x1
 2091 0467 79040000 		.4byte	0x479
 2092 046b 11       		.uleb128 0x11
 2093 046c 17030000 		.4byte	.LASF71
 2094 0470 01       		.byte	0x1
 2095 0471 9404     		.2byte	0x494
 2096 0473 0C       		.byte	0xc
 2097 0474 77000000 		.4byte	0x77
 2098 0478 00       		.byte	0
 2099 0479 0F       		.uleb128 0xf
 2100 047a 37010000 		.4byte	.LASF73
 2101 047e 01       		.byte	0x1
 2102 047f 6804     		.2byte	0x468
 2103 0481 0D       		.byte	0xd
 2104 0482 01       		.byte	0x1
 2105 0483 01       		.byte	0x1
 2106 0484 B0040000 		.4byte	0x4b0
 2107 0488 10       		.uleb128 0x10
 2108 0489 AB010000 		.4byte	.LASF37
 2109 048d 01       		.byte	0x1
 2110 048e 6804     		.2byte	0x468
 2111 0490 26       		.byte	0x26
 2112 0491 77000000 		.4byte	0x77
 2113 0495 10       		.uleb128 0x10
 2114 0496 2F030000 		.4byte	.LASF38
 2115 049a 01       		.byte	0x1
 2116 049b 6804     		.2byte	0x468
 2117 049d 3A       		.byte	0x3a
 2118 049e 31040000 		.4byte	0x431
 2119 04a2 10       		.uleb128 0x10
 2120 04a3 AF030000 		.4byte	.LASF74
 2121 04a7 01       		.byte	0x1
 2122 04a8 6804     		.2byte	0x468
 2123 04aa 55       		.byte	0x55
 2124 04ab 31040000 		.4byte	0x431
 2125 04af 00       		.byte	0
 2126 04b0 13       		.uleb128 0x13
 2127 04b1 84010000 		.4byte	.LASF75
 2128 04b5 01       		.byte	0x1
 2129 04b6 E503     		.2byte	0x3e5
 2130 04b8 1A       		.byte	0x1a
 2131 04b9 01       		.byte	0x1
 2132 04ba 9C010000 		.4byte	0x19c
 2133 04be 01       		.byte	0x1
 2134 04bf 12050000 		.4byte	0x512
 2135 04c3 10       		.uleb128 0x10
 2136 04c4 D4020000 		.4byte	.LASF43
 2137 04c8 01       		.byte	0x1
 2138 04c9 E503     		.2byte	0x3e5
ARM GAS  C:\Users\hoodc\AppData\Local\Temp\ccsNrQcU.s 			page 66


 2139 04cb 38       		.byte	0x38
 2140 04cc 77000000 		.4byte	0x77
 2141 04d0 10       		.uleb128 0x10
 2142 04d1 A9020000 		.4byte	.LASF44
 2143 04d5 01       		.byte	0x1
 2144 04d6 E503     		.2byte	0x3e5
 2145 04d8 4E       		.byte	0x4e
 2146 04d9 77000000 		.4byte	0x77
 2147 04dd 10       		.uleb128 0x10
 2148 04de 17040000 		.4byte	.LASF45
 2149 04e2 01       		.byte	0x1
 2150 04e3 E503     		.2byte	0x3e5
 2151 04e5 67       		.byte	0x67
 2152 04e6 77000000 		.4byte	0x77
 2153 04ea 11       		.uleb128 0x11
 2154 04eb 48040000 		.4byte	.LASF76
 2155 04ef 01       		.byte	0x1
 2156 04f0 E703     		.2byte	0x3e7
 2157 04f2 15       		.byte	0x15
 2158 04f3 9C010000 		.4byte	0x19c
 2159 04f7 11       		.uleb128 0x11
 2160 04f8 1B050000 		.4byte	.LASF66
 2161 04fc 01       		.byte	0x1
 2162 04fd E803     		.2byte	0x3e8
 2163 04ff 0C       		.byte	0xc
 2164 0500 77000000 		.4byte	0x77
 2165 0504 11       		.uleb128 0x11
 2166 0505 25010000 		.4byte	.LASF67
 2167 0509 01       		.byte	0x1
 2168 050a E903     		.2byte	0x3e9
 2169 050c 0C       		.byte	0xc
 2170 050d 77000000 		.4byte	0x77
 2171 0511 00       		.byte	0
 2172 0512 13       		.uleb128 0x13
 2173 0513 70010000 		.4byte	.LASF77
 2174 0517 01       		.byte	0x1
 2175 0518 0903     		.2byte	0x309
 2176 051a 1A       		.byte	0x1a
 2177 051b 01       		.byte	0x1
 2178 051c 9C010000 		.4byte	0x19c
 2179 0520 01       		.byte	0x1
 2180 0521 67050000 		.4byte	0x567
 2181 0525 10       		.uleb128 0x10
 2182 0526 5E040000 		.4byte	.LASF78
 2183 052a 01       		.byte	0x1
 2184 052b 0903     		.2byte	0x309
 2185 052d 37       		.byte	0x37
 2186 052e 77000000 		.4byte	0x77
 2187 0532 10       		.uleb128 0x10
 2188 0533 EA050000 		.4byte	.LASF79
 2189 0537 01       		.byte	0x1
 2190 0538 0903     		.2byte	0x309
 2191 053a 4A       		.byte	0x4a
 2192 053b 77000000 		.4byte	0x77
 2193 053f 11       		.uleb128 0x11
 2194 0540 60050000 		.4byte	.LASF80
 2195 0544 01       		.byte	0x1
ARM GAS  C:\Users\hoodc\AppData\Local\Temp\ccsNrQcU.s 			page 67


 2196 0545 0B03     		.2byte	0x30b
 2197 0547 0C       		.byte	0xc
 2198 0548 77000000 		.4byte	0x77
 2199 054c 11       		.uleb128 0x11
 2200 054d 0D050000 		.4byte	.LASF81
 2201 0551 01       		.byte	0x1
 2202 0552 0C03     		.2byte	0x30c
 2203 0554 0C       		.byte	0xc
 2204 0555 77000000 		.4byte	0x77
 2205 0559 11       		.uleb128 0x11
 2206 055a 48040000 		.4byte	.LASF76
 2207 055e 01       		.byte	0x1
 2208 055f 0D03     		.2byte	0x30d
 2209 0561 15       		.byte	0x15
 2210 0562 9C010000 		.4byte	0x19c
 2211 0566 00       		.byte	0
 2212 0567 13       		.uleb128 0x13
 2213 0568 4D050000 		.4byte	.LASF82
 2214 056c 01       		.byte	0x1
 2215 056d DD02     		.2byte	0x2dd
 2216 056f 1A       		.byte	0x1a
 2217 0570 01       		.byte	0x1
 2218 0571 9C010000 		.4byte	0x19c
 2219 0575 01       		.byte	0x1
 2220 0576 95050000 		.4byte	0x595
 2221 057a 10       		.uleb128 0x10
 2222 057b D2040000 		.4byte	.LASF40
 2223 057f 01       		.byte	0x1
 2224 0580 DD02     		.2byte	0x2dd
 2225 0582 36       		.byte	0x36
 2226 0583 77000000 		.4byte	0x77
 2227 0587 11       		.uleb128 0x11
 2228 0588 48040000 		.4byte	.LASF76
 2229 058c 01       		.byte	0x1
 2230 058d DF02     		.2byte	0x2df
 2231 058f 15       		.byte	0x15
 2232 0590 9C010000 		.4byte	0x19c
 2233 0594 00       		.byte	0
 2234 0595 13       		.uleb128 0x13
 2235 0596 3A050000 		.4byte	.LASF83
 2236 059a 01       		.byte	0x1
 2237 059b 9102     		.2byte	0x291
 2238 059d 1A       		.byte	0x1a
 2239 059e 01       		.byte	0x1
 2240 059f 9C010000 		.4byte	0x19c
 2241 05a3 01       		.byte	0x1
 2242 05a4 DD050000 		.4byte	0x5dd
 2243 05a8 10       		.uleb128 0x10
 2244 05a9 AB010000 		.4byte	.LASF37
 2245 05ad 01       		.byte	0x1
 2246 05ae 9102     		.2byte	0x291
 2247 05b0 36       		.byte	0x36
 2248 05b1 77000000 		.4byte	0x77
 2249 05b5 10       		.uleb128 0x10
 2250 05b6 2F030000 		.4byte	.LASF38
 2251 05ba 01       		.byte	0x1
 2252 05bb 9102     		.2byte	0x291
ARM GAS  C:\Users\hoodc\AppData\Local\Temp\ccsNrQcU.s 			page 68


 2253 05bd 48       		.byte	0x48
 2254 05be 77000000 		.4byte	0x77
 2255 05c2 10       		.uleb128 0x10
 2256 05c3 AF030000 		.4byte	.LASF74
 2257 05c7 01       		.byte	0x1
 2258 05c8 9102     		.2byte	0x291
 2259 05ca 61       		.byte	0x61
 2260 05cb 77000000 		.4byte	0x77
 2261 05cf 11       		.uleb128 0x11
 2262 05d0 48040000 		.4byte	.LASF76
 2263 05d4 01       		.byte	0x1
 2264 05d5 9302     		.2byte	0x293
 2265 05d7 15       		.byte	0x15
 2266 05d8 9C010000 		.4byte	0x19c
 2267 05dc 00       		.byte	0
 2268 05dd 14       		.uleb128 0x14
 2269 05de 01       		.byte	0x1
 2270 05df 89040000 		.4byte	.LASF86
 2271 05e3 01       		.byte	0x1
 2272 05e4 5A02     		.2byte	0x25a
 2273 05e6 06       		.byte	0x6
 2274 05e7 01       		.byte	0x1
 2275 05e8 24040000 		.4byte	.LFB139
 2276 05ec 84040000 		.4byte	.LFE139
 2277 05f0 02       		.byte	0x2
 2278 05f1 7D       		.byte	0x7d
 2279 05f2 00       		.sleb128 0
 2280 05f3 01       		.byte	0x1
 2281 05f4 0E060000 		.4byte	0x60e
 2282 05f8 15       		.uleb128 0x15
 2283 05f9 2F040000 		.4byte	.LASF85
 2284 05fd 01       		.byte	0x1
 2285 05fe 5C02     		.2byte	0x25c
 2286 0600 16       		.byte	0x16
 2287 0601 32030000 		.4byte	0x332
 2288 0605 06000000 		.4byte	.LLST32
 2289 0609 00000000 		.4byte	.LVUS32
 2290 060d 00       		.byte	0
 2291 060e 14       		.uleb128 0x14
 2292 060f 01       		.byte	0x1
 2293 0610 45060000 		.4byte	.LASF87
 2294 0614 01       		.byte	0x1
 2295 0615 2F02     		.2byte	0x22f
 2296 0617 06       		.byte	0x6
 2297 0618 01       		.byte	0x1
 2298 0619 44030000 		.4byte	.LFB138
 2299 061d 6C030000 		.4byte	.LFE138
 2300 0621 02       		.byte	0x2
 2301 0622 7D       		.byte	0x7d
 2302 0623 00       		.sleb128 0
 2303 0624 01       		.byte	0x1
 2304 0625 4E060000 		.4byte	0x64e
 2305 0629 16       		.uleb128 0x16
 2306 062a 5A000000 		.4byte	.LASF33
 2307 062e 01       		.byte	0x1
 2308 062f 2F02     		.2byte	0x22f
 2309 0631 1F       		.byte	0x1f
ARM GAS  C:\Users\hoodc\AppData\Local\Temp\ccsNrQcU.s 			page 69


 2310 0632 77000000 		.4byte	0x77
 2311 0636 35000000 		.4byte	.LLST29
 2312 063a 31000000 		.4byte	.LVUS29
 2313 063e 17       		.uleb128 0x17
 2314 063f 4F040000 		.4byte	.LASF32
 2315 0643 01       		.byte	0x1
 2316 0644 2F02     		.2byte	0x22f
 2317 0646 2E       		.byte	0x2e
 2318 0647 77000000 		.4byte	0x77
 2319 064b 01       		.byte	0x1
 2320 064c 51       		.byte	0x51
 2321 064d 00       		.byte	0
 2322 064e 18       		.uleb128 0x18
 2323 064f E7040000 		.4byte	.LASF99
 2324 0653 01       		.byte	0x1
 2325 0654 0002     		.2byte	0x200
 2326 0656 0D       		.byte	0xd
 2327 0657 01       		.byte	0x1
 2328 0658 00000000 		.4byte	.LFB137
 2329 065c 20000000 		.4byte	.LFE137
 2330 0660 02       		.byte	0x2
 2331 0661 7D       		.byte	0x7d
 2332 0662 00       		.sleb128 0
 2333 0663 01       		.byte	0x1
 2334 0664 78060000 		.4byte	0x678
 2335 0668 17       		.uleb128 0x17
 2336 0669 4F040000 		.4byte	.LASF32
 2337 066d 01       		.byte	0x1
 2338 066e 0002     		.2byte	0x200
 2339 0670 26       		.byte	0x26
 2340 0671 77000000 		.4byte	0x77
 2341 0675 01       		.byte	0x1
 2342 0676 50       		.byte	0x50
 2343 0677 00       		.byte	0
 2344 0678 14       		.uleb128 0x14
 2345 0679 01       		.byte	0x1
 2346 067a CF010000 		.4byte	.LASF88
 2347 067e 01       		.byte	0x1
 2348 067f 7801     		.2byte	0x178
 2349 0681 06       		.byte	0x6
 2350 0682 01       		.byte	0x1
 2351 0683 A4020000 		.4byte	.LFB136
 2352 0687 44030000 		.4byte	.LFE136
 2353 068b 02       		.byte	0x2
 2354 068c 7D       		.byte	0x7d
 2355 068d 00       		.sleb128 0
 2356 068e 01       		.byte	0x1
 2357 068f 8B070000 		.4byte	0x78b
 2358 0693 17       		.uleb128 0x17
 2359 0694 0F040000 		.4byte	.LASF89
 2360 0698 01       		.byte	0x1
 2361 0699 7801     		.2byte	0x178
 2362 069b 3A       		.byte	0x3a
 2363 069c 8B070000 		.4byte	0x78b
 2364 06a0 01       		.byte	0x1
 2365 06a1 50       		.byte	0x50
 2366 06a2 19       		.uleb128 0x19
ARM GAS  C:\Users\hoodc\AppData\Local\Temp\ccsNrQcU.s 			page 70


 2367 06a3 58040000 		.4byte	0x458
 2368 06a7 AE020000 		.4byte	.LBI30
 2369 06ab 01       		.byte	.LVU269
 2370 06ac 30000000 		.4byte	.Ldebug_ranges0+0x30
 2371 06b0 01       		.byte	0x1
 2372 06b1 8C01     		.2byte	0x18c
 2373 06b3 17       		.byte	0x17
 2374 06b4 CC060000 		.4byte	0x6cc
 2375 06b8 1A       		.uleb128 0x1a
 2376 06b9 30000000 		.4byte	.Ldebug_ranges0+0x30
 2377 06bd 1B       		.uleb128 0x1b
 2378 06be 6B040000 		.4byte	0x46b
 2379 06c2 5A000000 		.4byte	.LLST20
 2380 06c6 56000000 		.4byte	.LVUS20
 2381 06ca 00       		.byte	0
 2382 06cb 00       		.byte	0
 2383 06cc 1C       		.uleb128 0x1c
 2384 06cd 79040000 		.4byte	0x479
 2385 06d1 C4020000 		.4byte	.LBI33
 2386 06d5 01       		.byte	.LVU282
 2387 06d6 C4020000 		.4byte	.LBB33
 2388 06da EE020000 		.4byte	.LBE33
 2389 06de 01       		.byte	0x1
 2390 06df 8801     		.2byte	0x188
 2391 06e1 05       		.byte	0x5
 2392 06e2 0E070000 		.4byte	0x70e
 2393 06e6 1D       		.uleb128 0x1d
 2394 06e7 A2040000 		.4byte	0x4a2
 2395 06eb 7A000000 		.4byte	.LLST21
 2396 06ef 78000000 		.4byte	.LVUS21
 2397 06f3 1D       		.uleb128 0x1d
 2398 06f4 95040000 		.4byte	0x495
 2399 06f8 91000000 		.4byte	.LLST22
 2400 06fc 8F000000 		.4byte	.LVUS22
 2401 0700 1D       		.uleb128 0x1d
 2402 0701 88040000 		.4byte	0x488
 2403 0705 AE000000 		.4byte	.LLST23
 2404 0709 A6000000 		.4byte	.LVUS23
 2405 070d 00       		.byte	0
 2406 070e 1C       		.uleb128 0x1c
 2407 070f 37040000 		.4byte	0x437
 2408 0713 F6020000 		.4byte	.LBI36
 2409 0717 01       		.byte	.LVU309
 2410 0718 F6020000 		.4byte	.LBB36
 2411 071c FE020000 		.4byte	.LBE36
 2412 0720 01       		.byte	0x1
 2413 0721 8F01     		.2byte	0x18f
 2414 0723 19       		.byte	0x19
 2415 0724 36070000 		.4byte	0x736
 2416 0728 1B       		.uleb128 0x1b
 2417 0729 4A040000 		.4byte	0x44a
 2418 072d E8000000 		.4byte	.LLST24
 2419 0731 E4000000 		.4byte	.LVUS24
 2420 0735 00       		.byte	0
 2421 0736 1E       		.uleb128 0x1e
 2422 0737 E0030000 		.4byte	0x3e0
 2423 073b 10030000 		.4byte	.LBI38
ARM GAS  C:\Users\hoodc\AppData\Local\Temp\ccsNrQcU.s 			page 71


 2424 073f 01       		.byte	.LVU322
 2425 0740 10030000 		.4byte	.LBB38
 2426 0744 3A030000 		.4byte	.LBE38
 2427 0748 01       		.byte	0x1
 2428 0749 9C01     		.2byte	0x19c
 2429 074b 05       		.byte	0x5
 2430 074c 1D       		.uleb128 0x1d
 2431 074d 09040000 		.4byte	0x409
 2432 0751 0E010000 		.4byte	.LLST25
 2433 0755 0C010000 		.4byte	.LVUS25
 2434 0759 1D       		.uleb128 0x1d
 2435 075a FC030000 		.4byte	0x3fc
 2436 075e 25010000 		.4byte	.LLST26
 2437 0762 23010000 		.4byte	.LVUS26
 2438 0766 1D       		.uleb128 0x1d
 2439 0767 EF030000 		.4byte	0x3ef
 2440 076b 3C010000 		.4byte	.LLST27
 2441 076f 3A010000 		.4byte	.LVUS27
 2442 0773 1B       		.uleb128 0x1b
 2443 0774 16040000 		.4byte	0x416
 2444 0778 55010000 		.4byte	.LLST28
 2445 077c 51010000 		.4byte	.LVUS28
 2446 0780 1F       		.uleb128 0x1f
 2447 0781 23040000 		.4byte	0x423
 2448 0785 00000008 		.4byte	0x8000000
 2449 0789 00       		.byte	0
 2450 078a 00       		.byte	0
 2451 078b 12       		.uleb128 0x12
 2452 078c 04       		.byte	0x4
 2453 078d C1020000 		.4byte	0x2c1
 2454 0791 20       		.uleb128 0x20
 2455 0792 01       		.byte	0x1
 2456 0793 F7040000 		.4byte	.LASF90
 2457 0797 01       		.byte	0x1
 2458 0798 3101     		.2byte	0x131
 2459 079a 13       		.byte	0x13
 2460 079b 01       		.byte	0x1
 2461 079c 9C010000 		.4byte	0x19c
 2462 07a0 20000000 		.4byte	.LFB135
 2463 07a4 A4020000 		.4byte	.LFE135
 2464 07a8 7F010000 		.4byte	.LLST0
 2465 07ac 01       		.byte	0x1
 2466 07ad BD090000 		.4byte	0x9bd
 2467 07b1 16       		.uleb128 0x16
 2468 07b2 0F040000 		.4byte	.LASF89
 2469 07b6 01       		.byte	0x1
 2470 07b7 3101     		.2byte	0x131
 2471 07b9 45       		.byte	0x45
 2472 07ba 8B070000 		.4byte	0x78b
 2473 07be AF010000 		.4byte	.LLST1
 2474 07c2 9F010000 		.4byte	.LVUS1
 2475 07c6 15       		.uleb128 0x15
 2476 07c7 48040000 		.4byte	.LASF76
 2477 07cb 01       		.byte	0x1
 2478 07cc 3301     		.2byte	0x133
 2479 07ce 15       		.byte	0x15
 2480 07cf 9C010000 		.4byte	0x19c
ARM GAS  C:\Users\hoodc\AppData\Local\Temp\ccsNrQcU.s 			page 72


 2481 07d3 29020000 		.4byte	.LLST2
 2482 07d7 15020000 		.4byte	.LVUS2
 2483 07db 19       		.uleb128 0x19
 2484 07dc 95050000 		.4byte	0x595
 2485 07e0 7A000000 		.4byte	.LBI10
 2486 07e4 00       		.byte	.LVU41
 2487 07e5 00000000 		.4byte	.Ldebug_ranges0+0
 2488 07e9 01       		.byte	0x1
 2489 07ea 4101     		.2byte	0x141
 2490 07ec 08       		.byte	0x8
 2491 07ed 52080000 		.4byte	0x852
 2492 07f1 1D       		.uleb128 0x1d
 2493 07f2 C2050000 		.4byte	0x5c2
 2494 07f6 A6020000 		.4byte	.LLST3
 2495 07fa A2020000 		.4byte	.LVUS3
 2496 07fe 1D       		.uleb128 0x1d
 2497 07ff B5050000 		.4byte	0x5b5
 2498 0803 C8020000 		.4byte	.LLST4
 2499 0807 C4020000 		.4byte	.LVUS4
 2500 080b 1D       		.uleb128 0x1d
 2501 080c A8050000 		.4byte	0x5a8
 2502 0810 EA020000 		.4byte	.LLST5
 2503 0814 E6020000 		.4byte	.LVUS5
 2504 0818 1A       		.uleb128 0x1a
 2505 0819 00000000 		.4byte	.Ldebug_ranges0+0
 2506 081d 1B       		.uleb128 0x1b
 2507 081e CF050000 		.4byte	0x5cf
 2508 0822 0E030000 		.4byte	.LLST6
 2509 0826 08030000 		.4byte	.LVUS6
 2510 082a 21       		.uleb128 0x21
 2511 082b 82000000 		.4byte	.LVL11
 2512 082f EA0A0000 		.4byte	0xaea
 2513 0833 3F080000 		.4byte	0x83f
 2514 0837 22       		.uleb128 0x22
 2515 0838 01       		.byte	0x1
 2516 0839 50       		.byte	0x50
 2517 083a 03       		.byte	0x3
 2518 083b 0A       		.byte	0xa
 2519 083c 50C3     		.2byte	0xc350
 2520 083e 00       		.byte	0
 2521 083f 23       		.uleb128 0x23
 2522 0840 AC000000 		.4byte	.LVL14
 2523 0844 EA0A0000 		.4byte	0xaea
 2524 0848 22       		.uleb128 0x22
 2525 0849 01       		.byte	0x1
 2526 084a 50       		.byte	0x50
 2527 084b 03       		.byte	0x3
 2528 084c 0A       		.byte	0xa
 2529 084d 50C3     		.2byte	0xc350
 2530 084f 00       		.byte	0
 2531 0850 00       		.byte	0
 2532 0851 00       		.byte	0
 2533 0852 19       		.uleb128 0x19
 2534 0853 67050000 		.4byte	0x567
 2535 0857 D8000000 		.4byte	.LBI14
 2536 085b 00       		.byte	.LVU70
 2537 085c 18000000 		.4byte	.Ldebug_ranges0+0x18
ARM GAS  C:\Users\hoodc\AppData\Local\Temp\ccsNrQcU.s 			page 73


 2538 0860 01       		.byte	0x1
 2539 0861 4C01     		.2byte	0x14c
 2540 0863 08       		.byte	0x8
 2541 0864 AF080000 		.4byte	0x8af
 2542 0868 1D       		.uleb128 0x1d
 2543 0869 7A050000 		.4byte	0x57a
 2544 086d 39030000 		.4byte	.LLST7
 2545 0871 37030000 		.4byte	.LVUS7
 2546 0875 1A       		.uleb128 0x1a
 2547 0876 18000000 		.4byte	.Ldebug_ranges0+0x18
 2548 087a 1B       		.uleb128 0x1b
 2549 087b 87050000 		.4byte	0x587
 2550 087f 50030000 		.4byte	.LLST8
 2551 0883 4C030000 		.4byte	.LVUS8
 2552 0887 21       		.uleb128 0x21
 2553 0888 E0000000 		.4byte	.LVL20
 2554 088c EA0A0000 		.4byte	0xaea
 2555 0890 9C080000 		.4byte	0x89c
 2556 0894 22       		.uleb128 0x22
 2557 0895 01       		.byte	0x1
 2558 0896 50       		.byte	0x50
 2559 0897 03       		.byte	0x3
 2560 0898 0A       		.byte	0xa
 2561 0899 50C3     		.2byte	0xc350
 2562 089b 00       		.byte	0
 2563 089c 23       		.uleb128 0x23
 2564 089d 02010000 		.4byte	.LVL24
 2565 08a1 EA0A0000 		.4byte	0xaea
 2566 08a5 22       		.uleb128 0x22
 2567 08a6 01       		.byte	0x1
 2568 08a7 50       		.byte	0x50
 2569 08a8 03       		.byte	0x3
 2570 08a9 0A       		.byte	0xa
 2571 08aa 50C3     		.2byte	0xc350
 2572 08ac 00       		.byte	0
 2573 08ad 00       		.byte	0
 2574 08ae 00       		.byte	0
 2575 08af 1C       		.uleb128 0x1c
 2576 08b0 12050000 		.4byte	0x512
 2577 08b4 16010000 		.4byte	.LBI18
 2578 08b8 00       		.byte	.LVU91
 2579 08b9 16010000 		.4byte	.LBB18
 2580 08bd 16020000 		.4byte	.LBE18
 2581 08c1 01       		.byte	0x1
 2582 08c2 5601     		.2byte	0x156
 2583 08c4 08       		.byte	0x8
 2584 08c5 31090000 		.4byte	0x931
 2585 08c9 1D       		.uleb128 0x1d
 2586 08ca 32050000 		.4byte	0x532
 2587 08ce 72030000 		.4byte	.LLST9
 2588 08d2 6E030000 		.4byte	.LVUS9
 2589 08d6 1D       		.uleb128 0x1d
 2590 08d7 25050000 		.4byte	0x525
 2591 08db 94030000 		.4byte	.LLST10
 2592 08df 90030000 		.4byte	.LVUS10
 2593 08e3 1B       		.uleb128 0x1b
 2594 08e4 3F050000 		.4byte	0x53f
ARM GAS  C:\Users\hoodc\AppData\Local\Temp\ccsNrQcU.s 			page 74


 2595 08e8 B8030000 		.4byte	.LLST11
 2596 08ec B2030000 		.4byte	.LVUS11
 2597 08f0 1B       		.uleb128 0x1b
 2598 08f1 4C050000 		.4byte	0x54c
 2599 08f5 EB030000 		.4byte	.LLST12
 2600 08f9 E3030000 		.4byte	.LVUS12
 2601 08fd 1B       		.uleb128 0x1b
 2602 08fe 59050000 		.4byte	0x559
 2603 0902 2A040000 		.4byte	.LLST13
 2604 0906 24040000 		.4byte	.LVUS13
 2605 090a 21       		.uleb128 0x21
 2606 090b 1E010000 		.4byte	.LVL29
 2607 090f EA0A0000 		.4byte	0xaea
 2608 0913 1F090000 		.4byte	0x91f
 2609 0917 22       		.uleb128 0x22
 2610 0918 01       		.byte	0x1
 2611 0919 50       		.byte	0x50
 2612 091a 03       		.byte	0x3
 2613 091b 0A       		.byte	0xa
 2614 091c 50C3     		.2byte	0xc350
 2615 091e 00       		.byte	0
 2616 091f 23       		.uleb128 0x23
 2617 0920 0E020000 		.4byte	.LVL61
 2618 0924 EA0A0000 		.4byte	0xaea
 2619 0928 22       		.uleb128 0x22
 2620 0929 01       		.byte	0x1
 2621 092a 50       		.byte	0x50
 2622 092b 03       		.byte	0x3
 2623 092c 0A       		.byte	0xa
 2624 092d 50C3     		.2byte	0xc350
 2625 092f 00       		.byte	0
 2626 0930 00       		.byte	0
 2627 0931 1E       		.uleb128 0x1e
 2628 0932 B0040000 		.4byte	0x4b0
 2629 0936 26020000 		.4byte	.LBI20
 2630 093a 00       		.byte	.LVU221
 2631 093b 26020000 		.4byte	.LBB20
 2632 093f 8A020000 		.4byte	.LBE20
 2633 0943 01       		.byte	0x1
 2634 0944 6201     		.2byte	0x162
 2635 0946 0A       		.byte	0xa
 2636 0947 1D       		.uleb128 0x1d
 2637 0948 DD040000 		.4byte	0x4dd
 2638 094c 59040000 		.4byte	.LLST14
 2639 0950 53040000 		.4byte	.LVUS14
 2640 0954 1D       		.uleb128 0x1d
 2641 0955 D0040000 		.4byte	0x4d0
 2642 0959 8E040000 		.4byte	.LLST15
 2643 095d 88040000 		.4byte	.LVUS15
 2644 0961 1D       		.uleb128 0x1d
 2645 0962 C3040000 		.4byte	0x4c3
 2646 0966 C1040000 		.4byte	.LLST16
 2647 096a BD040000 		.4byte	.LVUS16
 2648 096e 1B       		.uleb128 0x1b
 2649 096f EA040000 		.4byte	0x4ea
 2650 0973 E5040000 		.4byte	.LLST17
 2651 0977 DF040000 		.4byte	.LVUS17
ARM GAS  C:\Users\hoodc\AppData\Local\Temp\ccsNrQcU.s 			page 75


 2652 097b 1B       		.uleb128 0x1b
 2653 097c F7040000 		.4byte	0x4f7
 2654 0980 16050000 		.4byte	.LLST18
 2655 0984 0E050000 		.4byte	.LVUS18
 2656 0988 1B       		.uleb128 0x1b
 2657 0989 04050000 		.4byte	0x504
 2658 098d 62050000 		.4byte	.LLST19
 2659 0991 60050000 		.4byte	.LVUS19
 2660 0995 21       		.uleb128 0x21
 2661 0996 2E020000 		.4byte	.LVL68
 2662 099a EA0A0000 		.4byte	0xaea
 2663 099e AA090000 		.4byte	0x9aa
 2664 09a2 22       		.uleb128 0x22
 2665 09a3 01       		.byte	0x1
 2666 09a4 50       		.byte	0x50
 2667 09a5 03       		.byte	0x3
 2668 09a6 0A       		.byte	0xa
 2669 09a7 50C3     		.2byte	0xc350
 2670 09a9 00       		.byte	0
 2671 09aa 23       		.uleb128 0x23
 2672 09ab 82020000 		.4byte	.LVL79
 2673 09af EA0A0000 		.4byte	0xaea
 2674 09b3 22       		.uleb128 0x22
 2675 09b4 01       		.byte	0x1
 2676 09b5 50       		.byte	0x50
 2677 09b6 03       		.byte	0x3
 2678 09b7 0A       		.byte	0xa
 2679 09b8 50C3     		.2byte	0xc350
 2680 09ba 00       		.byte	0
 2681 09bb 00       		.byte	0
 2682 09bc 00       		.byte	0
 2683 09bd 24       		.uleb128 0x24
 2684 09be 01       		.byte	0x1
 2685 09bf F0000000 		.4byte	.LASF91
 2686 09c3 01       		.byte	0x1
 2687 09c4 E9       		.byte	0xe9
 2688 09c5 13       		.byte	0x13
 2689 09c6 01       		.byte	0x1
 2690 09c7 9C010000 		.4byte	0x19c
 2691 09cb 6C030000 		.4byte	.LFB134
 2692 09cf 24040000 		.4byte	.LFE134
 2693 09d3 78050000 		.4byte	.LLST30
 2694 09d7 01       		.byte	0x1
 2695 09d8 100A0000 		.4byte	0xa10
 2696 09dc 25       		.uleb128 0x25
 2697 09dd 59030000 		.4byte	.LASF92
 2698 09e1 01       		.byte	0x1
 2699 09e2 E9       		.byte	0xe9
 2700 09e3 40       		.byte	0x40
 2701 09e4 100A0000 		.4byte	0xa10
 2702 09e8 A8050000 		.4byte	.LLST31
 2703 09ec 98050000 		.4byte	.LVUS31
 2704 09f0 26       		.uleb128 0x26
 2705 09f1 48040000 		.4byte	.LASF76
 2706 09f5 01       		.byte	0x1
 2707 09f6 EB       		.byte	0xeb
 2708 09f7 15       		.byte	0x15
ARM GAS  C:\Users\hoodc\AppData\Local\Temp\ccsNrQcU.s 			page 76


 2709 09f8 9C010000 		.4byte	0x19c
 2710 09fc 00       		.byte	0
 2711 09fd 27       		.uleb128 0x27
 2712 09fe D8030000 		.4byte	.LVL105
 2713 0a02 0E060000 		.4byte	0x60e
 2714 0a06 27       		.uleb128 0x27
 2715 0a07 14040000 		.4byte	.LVL108
 2716 0a0b 4E060000 		.4byte	0x64e
 2717 0a0f 00       		.byte	0
 2718 0a10 12       		.uleb128 0x12
 2719 0a11 04       		.byte	0x4
 2720 0a12 15020000 		.4byte	0x215
 2721 0a16 24       		.uleb128 0x24
 2722 0a17 01       		.byte	0x1
 2723 0a18 97050000 		.4byte	.LASF93
 2724 0a1c 01       		.byte	0x1
 2725 0a1d 7F       		.byte	0x7f
 2726 0a1e 13       		.byte	0x13
 2727 0a1f 01       		.byte	0x1
 2728 0a20 9C010000 		.4byte	0x19c
 2729 0a24 84040000 		.4byte	.LFB133
 2730 0a28 88050000 		.4byte	.LFE133
 2731 0a2c 0E060000 		.4byte	.LLST33
 2732 0a30 01       		.byte	0x1
 2733 0a31 EA0A0000 		.4byte	0xaea
 2734 0a35 25       		.uleb128 0x25
 2735 0a36 59030000 		.4byte	.LASF92
 2736 0a3a 01       		.byte	0x1
 2737 0a3b 7F       		.byte	0x7f
 2738 0a3c 3D       		.byte	0x3d
 2739 0a3d 100A0000 		.4byte	0xa10
 2740 0a41 34060000 		.4byte	.LLST34
 2741 0a45 2E060000 		.4byte	.LVUS34
 2742 0a49 25       		.uleb128 0x25
 2743 0a4a 67040000 		.4byte	.LASF94
 2744 0a4e 01       		.byte	0x1
 2745 0a4f 7F       		.byte	0x7f
 2746 0a50 53       		.byte	0x53
 2747 0a51 31040000 		.4byte	0x431
 2748 0a55 63060000 		.4byte	.LLST35
 2749 0a59 5D060000 		.4byte	.LVUS35
 2750 0a5d 28       		.uleb128 0x28
 2751 0a5e 48040000 		.4byte	.LASF76
 2752 0a62 01       		.byte	0x1
 2753 0a63 81       		.byte	0x81
 2754 0a64 15       		.byte	0x15
 2755 0a65 9C010000 		.4byte	0x19c
 2756 0a69 9C060000 		.4byte	.LLST36
 2757 0a6d 8C060000 		.4byte	.LVUS36
 2758 0a71 28       		.uleb128 0x28
 2759 0a72 C7040000 		.4byte	.LASF95
 2760 0a76 01       		.byte	0x1
 2761 0a77 82       		.byte	0x82
 2762 0a78 0C       		.byte	0xc
 2763 0a79 77000000 		.4byte	0x77
 2764 0a7d 02070000 		.4byte	.LLST37
 2765 0a81 FE060000 		.4byte	.LVUS37
ARM GAS  C:\Users\hoodc\AppData\Local\Temp\ccsNrQcU.s 			page 77


 2766 0a85 21       		.uleb128 0x21
 2767 0a86 A2040000 		.4byte	.LVL118
 2768 0a8a EA0A0000 		.4byte	0xaea
 2769 0a8e 9A0A0000 		.4byte	0xa9a
 2770 0a92 22       		.uleb128 0x22
 2771 0a93 01       		.byte	0x1
 2772 0a94 50       		.byte	0x50
 2773 0a95 03       		.byte	0x3
 2774 0a96 0A       		.byte	0xa
 2775 0a97 50C3     		.2byte	0xc350
 2776 0a99 00       		.byte	0
 2777 0a9a 21       		.uleb128 0x21
 2778 0a9b FE040000 		.4byte	.LVL120
 2779 0a9f 0E060000 		.4byte	0x60e
 2780 0aa3 AE0A0000 		.4byte	0xaae
 2781 0aa7 22       		.uleb128 0x22
 2782 0aa8 01       		.byte	0x1
 2783 0aa9 50       		.byte	0x50
 2784 0aaa 02       		.byte	0x2
 2785 0aab 75       		.byte	0x75
 2786 0aac 00       		.sleb128 0
 2787 0aad 00       		.byte	0
 2788 0aae 21       		.uleb128 0x21
 2789 0aaf 04050000 		.4byte	.LVL121
 2790 0ab3 EA0A0000 		.4byte	0xaea
 2791 0ab7 C20A0000 		.4byte	0xac2
 2792 0abb 22       		.uleb128 0x22
 2793 0abc 01       		.byte	0x1
 2794 0abd 50       		.byte	0x50
 2795 0abe 02       		.byte	0x2
 2796 0abf 78       		.byte	0x78
 2797 0ac0 00       		.sleb128 0
 2798 0ac1 00       		.byte	0
 2799 0ac2 27       		.uleb128 0x27
 2800 0ac3 50050000 		.4byte	.LVL125
 2801 0ac7 4E060000 		.4byte	0x64e
 2802 0acb 21       		.uleb128 0x21
 2803 0acc 58050000 		.4byte	.LVL126
 2804 0ad0 EA0A0000 		.4byte	0xaea
 2805 0ad4 E00A0000 		.4byte	0xae0
 2806 0ad8 22       		.uleb128 0x22
 2807 0ad9 01       		.byte	0x1
 2808 0ada 50       		.byte	0x50
 2809 0adb 03       		.byte	0x3
 2810 0adc 0A       		.byte	0xa
 2811 0add 50C3     		.2byte	0xc350
 2812 0adf 00       		.byte	0
 2813 0ae0 27       		.uleb128 0x27
 2814 0ae1 6C050000 		.4byte	.LVL130
 2815 0ae5 DD050000 		.4byte	0x5dd
 2816 0ae9 00       		.byte	0
 2817 0aea 29       		.uleb128 0x29
 2818 0aeb 01       		.byte	0x1
 2819 0aec 01       		.byte	0x1
 2820 0aed B7050000 		.4byte	.LASF100
 2821 0af1 B7050000 		.4byte	.LASF100
 2822 0af5 06       		.byte	0x6
ARM GAS  C:\Users\hoodc\AppData\Local\Temp\ccsNrQcU.s 			page 78


 2823 0af6 4303     		.2byte	0x343
 2824 0af8 13       		.byte	0x13
 2825 0af9 00       		.byte	0
 2826              		.section	.debug_abbrev,"",%progbits
 2827              	.Ldebug_abbrev0:
 2828 0000 01       		.uleb128 0x1
 2829 0001 11       		.uleb128 0x11
 2830 0002 01       		.byte	0x1
 2831 0003 25       		.uleb128 0x25
 2832 0004 0E       		.uleb128 0xe
 2833 0005 13       		.uleb128 0x13
 2834 0006 0B       		.uleb128 0xb
 2835 0007 03       		.uleb128 0x3
 2836 0008 0E       		.uleb128 0xe
 2837 0009 1B       		.uleb128 0x1b
 2838 000a 0E       		.uleb128 0xe
 2839 000b 11       		.uleb128 0x11
 2840 000c 01       		.uleb128 0x1
 2841 000d 12       		.uleb128 0x12
 2842 000e 01       		.uleb128 0x1
 2843 000f 10       		.uleb128 0x10
 2844 0010 06       		.uleb128 0x6
 2845 0011 00       		.byte	0
 2846 0012 00       		.byte	0
 2847 0013 02       		.uleb128 0x2
 2848 0014 24       		.uleb128 0x24
 2849 0015 00       		.byte	0
 2850 0016 0B       		.uleb128 0xb
 2851 0017 0B       		.uleb128 0xb
 2852 0018 3E       		.uleb128 0x3e
 2853 0019 0B       		.uleb128 0xb
 2854 001a 03       		.uleb128 0x3
 2855 001b 0E       		.uleb128 0xe
 2856 001c 00       		.byte	0
 2857 001d 00       		.byte	0
 2858 001e 03       		.uleb128 0x3
 2859 001f 16       		.uleb128 0x16
 2860 0020 00       		.byte	0
 2861 0021 03       		.uleb128 0x3
 2862 0022 0E       		.uleb128 0xe
 2863 0023 3A       		.uleb128 0x3a
 2864 0024 0B       		.uleb128 0xb
 2865 0025 3B       		.uleb128 0x3b
 2866 0026 0B       		.uleb128 0xb
 2867 0027 39       		.uleb128 0x39
 2868 0028 0B       		.uleb128 0xb
 2869 0029 49       		.uleb128 0x49
 2870 002a 13       		.uleb128 0x13
 2871 002b 00       		.byte	0
 2872 002c 00       		.byte	0
 2873 002d 04       		.uleb128 0x4
 2874 002e 24       		.uleb128 0x24
 2875 002f 00       		.byte	0
 2876 0030 0B       		.uleb128 0xb
 2877 0031 0B       		.uleb128 0xb
 2878 0032 3E       		.uleb128 0x3e
 2879 0033 0B       		.uleb128 0xb
ARM GAS  C:\Users\hoodc\AppData\Local\Temp\ccsNrQcU.s 			page 79


 2880 0034 03       		.uleb128 0x3
 2881 0035 08       		.uleb128 0x8
 2882 0036 00       		.byte	0
 2883 0037 00       		.byte	0
 2884 0038 05       		.uleb128 0x5
 2885 0039 35       		.uleb128 0x35
 2886 003a 00       		.byte	0
 2887 003b 49       		.uleb128 0x49
 2888 003c 13       		.uleb128 0x13
 2889 003d 00       		.byte	0
 2890 003e 00       		.byte	0
 2891 003f 06       		.uleb128 0x6
 2892 0040 13       		.uleb128 0x13
 2893 0041 01       		.byte	0x1
 2894 0042 0B       		.uleb128 0xb
 2895 0043 0B       		.uleb128 0xb
 2896 0044 3A       		.uleb128 0x3a
 2897 0045 0B       		.uleb128 0xb
 2898 0046 3B       		.uleb128 0x3b
 2899 0047 05       		.uleb128 0x5
 2900 0048 39       		.uleb128 0x39
 2901 0049 0B       		.uleb128 0xb
 2902 004a 01       		.uleb128 0x1
 2903 004b 13       		.uleb128 0x13
 2904 004c 00       		.byte	0
 2905 004d 00       		.byte	0
 2906 004e 07       		.uleb128 0x7
 2907 004f 0D       		.uleb128 0xd
 2908 0050 00       		.byte	0
 2909 0051 03       		.uleb128 0x3
 2910 0052 08       		.uleb128 0x8
 2911 0053 3A       		.uleb128 0x3a
 2912 0054 0B       		.uleb128 0xb
 2913 0055 3B       		.uleb128 0x3b
 2914 0056 05       		.uleb128 0x5
 2915 0057 39       		.uleb128 0x39
 2916 0058 0B       		.uleb128 0xb
 2917 0059 49       		.uleb128 0x49
 2918 005a 13       		.uleb128 0x13
 2919 005b 38       		.uleb128 0x38
 2920 005c 0A       		.uleb128 0xa
 2921 005d 00       		.byte	0
 2922 005e 00       		.byte	0
 2923 005f 08       		.uleb128 0x8
 2924 0060 0D       		.uleb128 0xd
 2925 0061 00       		.byte	0
 2926 0062 03       		.uleb128 0x3
 2927 0063 0E       		.uleb128 0xe
 2928 0064 3A       		.uleb128 0x3a
 2929 0065 0B       		.uleb128 0xb
 2930 0066 3B       		.uleb128 0x3b
 2931 0067 05       		.uleb128 0x5
 2932 0068 39       		.uleb128 0x39
 2933 0069 0B       		.uleb128 0xb
 2934 006a 49       		.uleb128 0x49
 2935 006b 13       		.uleb128 0x13
 2936 006c 38       		.uleb128 0x38
ARM GAS  C:\Users\hoodc\AppData\Local\Temp\ccsNrQcU.s 			page 80


 2937 006d 0A       		.uleb128 0xa
 2938 006e 00       		.byte	0
 2939 006f 00       		.byte	0
 2940 0070 09       		.uleb128 0x9
 2941 0071 16       		.uleb128 0x16
 2942 0072 00       		.byte	0
 2943 0073 03       		.uleb128 0x3
 2944 0074 0E       		.uleb128 0xe
 2945 0075 3A       		.uleb128 0x3a
 2946 0076 0B       		.uleb128 0xb
 2947 0077 3B       		.uleb128 0x3b
 2948 0078 05       		.uleb128 0x5
 2949 0079 39       		.uleb128 0x39
 2950 007a 0B       		.uleb128 0xb
 2951 007b 49       		.uleb128 0x49
 2952 007c 13       		.uleb128 0x13
 2953 007d 00       		.byte	0
 2954 007e 00       		.byte	0
 2955 007f 0A       		.uleb128 0xa
 2956 0080 04       		.uleb128 0x4
 2957 0081 01       		.byte	0x1
 2958 0082 3E       		.uleb128 0x3e
 2959 0083 0B       		.uleb128 0xb
 2960 0084 0B       		.uleb128 0xb
 2961 0085 0B       		.uleb128 0xb
 2962 0086 49       		.uleb128 0x49
 2963 0087 13       		.uleb128 0x13
 2964 0088 3A       		.uleb128 0x3a
 2965 0089 0B       		.uleb128 0xb
 2966 008a 3B       		.uleb128 0x3b
 2967 008b 0B       		.uleb128 0xb
 2968 008c 39       		.uleb128 0x39
 2969 008d 0B       		.uleb128 0xb
 2970 008e 01       		.uleb128 0x1
 2971 008f 13       		.uleb128 0x13
 2972 0090 00       		.byte	0
 2973 0091 00       		.byte	0
 2974 0092 0B       		.uleb128 0xb
 2975 0093 28       		.uleb128 0x28
 2976 0094 00       		.byte	0
 2977 0095 03       		.uleb128 0x3
 2978 0096 0E       		.uleb128 0xe
 2979 0097 1C       		.uleb128 0x1c
 2980 0098 0B       		.uleb128 0xb
 2981 0099 00       		.byte	0
 2982 009a 00       		.byte	0
 2983 009b 0C       		.uleb128 0xc
 2984 009c 13       		.uleb128 0x13
 2985 009d 01       		.byte	0x1
 2986 009e 0B       		.uleb128 0xb
 2987 009f 0B       		.uleb128 0xb
 2988 00a0 3A       		.uleb128 0x3a
 2989 00a1 0B       		.uleb128 0xb
 2990 00a2 3B       		.uleb128 0x3b
 2991 00a3 0B       		.uleb128 0xb
 2992 00a4 39       		.uleb128 0x39
 2993 00a5 0B       		.uleb128 0xb
ARM GAS  C:\Users\hoodc\AppData\Local\Temp\ccsNrQcU.s 			page 81


 2994 00a6 01       		.uleb128 0x1
 2995 00a7 13       		.uleb128 0x13
 2996 00a8 00       		.byte	0
 2997 00a9 00       		.byte	0
 2998 00aa 0D       		.uleb128 0xd
 2999 00ab 0D       		.uleb128 0xd
 3000 00ac 00       		.byte	0
 3001 00ad 03       		.uleb128 0x3
 3002 00ae 0E       		.uleb128 0xe
 3003 00af 3A       		.uleb128 0x3a
 3004 00b0 0B       		.uleb128 0xb
 3005 00b1 3B       		.uleb128 0x3b
 3006 00b2 0B       		.uleb128 0xb
 3007 00b3 39       		.uleb128 0x39
 3008 00b4 0B       		.uleb128 0xb
 3009 00b5 49       		.uleb128 0x49
 3010 00b6 13       		.uleb128 0x13
 3011 00b7 38       		.uleb128 0x38
 3012 00b8 0A       		.uleb128 0xa
 3013 00b9 00       		.byte	0
 3014 00ba 00       		.byte	0
 3015 00bb 0E       		.uleb128 0xe
 3016 00bc 34       		.uleb128 0x34
 3017 00bd 00       		.byte	0
 3018 00be 03       		.uleb128 0x3
 3019 00bf 0E       		.uleb128 0xe
 3020 00c0 3A       		.uleb128 0x3a
 3021 00c1 0B       		.uleb128 0xb
 3022 00c2 3B       		.uleb128 0x3b
 3023 00c3 05       		.uleb128 0x5
 3024 00c4 39       		.uleb128 0x39
 3025 00c5 0B       		.uleb128 0xb
 3026 00c6 49       		.uleb128 0x49
 3027 00c7 13       		.uleb128 0x13
 3028 00c8 3F       		.uleb128 0x3f
 3029 00c9 0C       		.uleb128 0xc
 3030 00ca 3C       		.uleb128 0x3c
 3031 00cb 0C       		.uleb128 0xc
 3032 00cc 00       		.byte	0
 3033 00cd 00       		.byte	0
 3034 00ce 0F       		.uleb128 0xf
 3035 00cf 2E       		.uleb128 0x2e
 3036 00d0 01       		.byte	0x1
 3037 00d1 03       		.uleb128 0x3
 3038 00d2 0E       		.uleb128 0xe
 3039 00d3 3A       		.uleb128 0x3a
 3040 00d4 0B       		.uleb128 0xb
 3041 00d5 3B       		.uleb128 0x3b
 3042 00d6 05       		.uleb128 0x5
 3043 00d7 39       		.uleb128 0x39
 3044 00d8 0B       		.uleb128 0xb
 3045 00d9 27       		.uleb128 0x27
 3046 00da 0C       		.uleb128 0xc
 3047 00db 20       		.uleb128 0x20
 3048 00dc 0B       		.uleb128 0xb
 3049 00dd 01       		.uleb128 0x1
 3050 00de 13       		.uleb128 0x13
ARM GAS  C:\Users\hoodc\AppData\Local\Temp\ccsNrQcU.s 			page 82


 3051 00df 00       		.byte	0
 3052 00e0 00       		.byte	0
 3053 00e1 10       		.uleb128 0x10
 3054 00e2 05       		.uleb128 0x5
 3055 00e3 00       		.byte	0
 3056 00e4 03       		.uleb128 0x3
 3057 00e5 0E       		.uleb128 0xe
 3058 00e6 3A       		.uleb128 0x3a
 3059 00e7 0B       		.uleb128 0xb
 3060 00e8 3B       		.uleb128 0x3b
 3061 00e9 05       		.uleb128 0x5
 3062 00ea 39       		.uleb128 0x39
 3063 00eb 0B       		.uleb128 0xb
 3064 00ec 49       		.uleb128 0x49
 3065 00ed 13       		.uleb128 0x13
 3066 00ee 00       		.byte	0
 3067 00ef 00       		.byte	0
 3068 00f0 11       		.uleb128 0x11
 3069 00f1 34       		.uleb128 0x34
 3070 00f2 00       		.byte	0
 3071 00f3 03       		.uleb128 0x3
 3072 00f4 0E       		.uleb128 0xe
 3073 00f5 3A       		.uleb128 0x3a
 3074 00f6 0B       		.uleb128 0xb
 3075 00f7 3B       		.uleb128 0x3b
 3076 00f8 05       		.uleb128 0x5
 3077 00f9 39       		.uleb128 0x39
 3078 00fa 0B       		.uleb128 0xb
 3079 00fb 49       		.uleb128 0x49
 3080 00fc 13       		.uleb128 0x13
 3081 00fd 00       		.byte	0
 3082 00fe 00       		.byte	0
 3083 00ff 12       		.uleb128 0x12
 3084 0100 0F       		.uleb128 0xf
 3085 0101 00       		.byte	0
 3086 0102 0B       		.uleb128 0xb
 3087 0103 0B       		.uleb128 0xb
 3088 0104 49       		.uleb128 0x49
 3089 0105 13       		.uleb128 0x13
 3090 0106 00       		.byte	0
 3091 0107 00       		.byte	0
 3092 0108 13       		.uleb128 0x13
 3093 0109 2E       		.uleb128 0x2e
 3094 010a 01       		.byte	0x1
 3095 010b 03       		.uleb128 0x3
 3096 010c 0E       		.uleb128 0xe
 3097 010d 3A       		.uleb128 0x3a
 3098 010e 0B       		.uleb128 0xb
 3099 010f 3B       		.uleb128 0x3b
 3100 0110 05       		.uleb128 0x5
 3101 0111 39       		.uleb128 0x39
 3102 0112 0B       		.uleb128 0xb
 3103 0113 27       		.uleb128 0x27
 3104 0114 0C       		.uleb128 0xc
 3105 0115 49       		.uleb128 0x49
 3106 0116 13       		.uleb128 0x13
 3107 0117 20       		.uleb128 0x20
ARM GAS  C:\Users\hoodc\AppData\Local\Temp\ccsNrQcU.s 			page 83


 3108 0118 0B       		.uleb128 0xb
 3109 0119 01       		.uleb128 0x1
 3110 011a 13       		.uleb128 0x13
 3111 011b 00       		.byte	0
 3112 011c 00       		.byte	0
 3113 011d 14       		.uleb128 0x14
 3114 011e 2E       		.uleb128 0x2e
 3115 011f 01       		.byte	0x1
 3116 0120 3F       		.uleb128 0x3f
 3117 0121 0C       		.uleb128 0xc
 3118 0122 03       		.uleb128 0x3
 3119 0123 0E       		.uleb128 0xe
 3120 0124 3A       		.uleb128 0x3a
 3121 0125 0B       		.uleb128 0xb
 3122 0126 3B       		.uleb128 0x3b
 3123 0127 05       		.uleb128 0x5
 3124 0128 39       		.uleb128 0x39
 3125 0129 0B       		.uleb128 0xb
 3126 012a 27       		.uleb128 0x27
 3127 012b 0C       		.uleb128 0xc
 3128 012c 11       		.uleb128 0x11
 3129 012d 01       		.uleb128 0x1
 3130 012e 12       		.uleb128 0x12
 3131 012f 01       		.uleb128 0x1
 3132 0130 40       		.uleb128 0x40
 3133 0131 0A       		.uleb128 0xa
 3134 0132 9742     		.uleb128 0x2117
 3135 0134 0C       		.uleb128 0xc
 3136 0135 01       		.uleb128 0x1
 3137 0136 13       		.uleb128 0x13
 3138 0137 00       		.byte	0
 3139 0138 00       		.byte	0
 3140 0139 15       		.uleb128 0x15
 3141 013a 34       		.uleb128 0x34
 3142 013b 00       		.byte	0
 3143 013c 03       		.uleb128 0x3
 3144 013d 0E       		.uleb128 0xe
 3145 013e 3A       		.uleb128 0x3a
 3146 013f 0B       		.uleb128 0xb
 3147 0140 3B       		.uleb128 0x3b
 3148 0141 05       		.uleb128 0x5
 3149 0142 39       		.uleb128 0x39
 3150 0143 0B       		.uleb128 0xb
 3151 0144 49       		.uleb128 0x49
 3152 0145 13       		.uleb128 0x13
 3153 0146 02       		.uleb128 0x2
 3154 0147 06       		.uleb128 0x6
 3155 0148 B742     		.uleb128 0x2137
 3156 014a 06       		.uleb128 0x6
 3157 014b 00       		.byte	0
 3158 014c 00       		.byte	0
 3159 014d 16       		.uleb128 0x16
 3160 014e 05       		.uleb128 0x5
 3161 014f 00       		.byte	0
 3162 0150 03       		.uleb128 0x3
 3163 0151 0E       		.uleb128 0xe
 3164 0152 3A       		.uleb128 0x3a
ARM GAS  C:\Users\hoodc\AppData\Local\Temp\ccsNrQcU.s 			page 84


 3165 0153 0B       		.uleb128 0xb
 3166 0154 3B       		.uleb128 0x3b
 3167 0155 05       		.uleb128 0x5
 3168 0156 39       		.uleb128 0x39
 3169 0157 0B       		.uleb128 0xb
 3170 0158 49       		.uleb128 0x49
 3171 0159 13       		.uleb128 0x13
 3172 015a 02       		.uleb128 0x2
 3173 015b 06       		.uleb128 0x6
 3174 015c B742     		.uleb128 0x2137
 3175 015e 06       		.uleb128 0x6
 3176 015f 00       		.byte	0
 3177 0160 00       		.byte	0
 3178 0161 17       		.uleb128 0x17
 3179 0162 05       		.uleb128 0x5
 3180 0163 00       		.byte	0
 3181 0164 03       		.uleb128 0x3
 3182 0165 0E       		.uleb128 0xe
 3183 0166 3A       		.uleb128 0x3a
 3184 0167 0B       		.uleb128 0xb
 3185 0168 3B       		.uleb128 0x3b
 3186 0169 05       		.uleb128 0x5
 3187 016a 39       		.uleb128 0x39
 3188 016b 0B       		.uleb128 0xb
 3189 016c 49       		.uleb128 0x49
 3190 016d 13       		.uleb128 0x13
 3191 016e 02       		.uleb128 0x2
 3192 016f 0A       		.uleb128 0xa
 3193 0170 00       		.byte	0
 3194 0171 00       		.byte	0
 3195 0172 18       		.uleb128 0x18
 3196 0173 2E       		.uleb128 0x2e
 3197 0174 01       		.byte	0x1
 3198 0175 03       		.uleb128 0x3
 3199 0176 0E       		.uleb128 0xe
 3200 0177 3A       		.uleb128 0x3a
 3201 0178 0B       		.uleb128 0xb
 3202 0179 3B       		.uleb128 0x3b
 3203 017a 05       		.uleb128 0x5
 3204 017b 39       		.uleb128 0x39
 3205 017c 0B       		.uleb128 0xb
 3206 017d 27       		.uleb128 0x27
 3207 017e 0C       		.uleb128 0xc
 3208 017f 11       		.uleb128 0x11
 3209 0180 01       		.uleb128 0x1
 3210 0181 12       		.uleb128 0x12
 3211 0182 01       		.uleb128 0x1
 3212 0183 40       		.uleb128 0x40
 3213 0184 0A       		.uleb128 0xa
 3214 0185 9742     		.uleb128 0x2117
 3215 0187 0C       		.uleb128 0xc
 3216 0188 01       		.uleb128 0x1
 3217 0189 13       		.uleb128 0x13
 3218 018a 00       		.byte	0
 3219 018b 00       		.byte	0
 3220 018c 19       		.uleb128 0x19
 3221 018d 1D       		.uleb128 0x1d
ARM GAS  C:\Users\hoodc\AppData\Local\Temp\ccsNrQcU.s 			page 85


 3222 018e 01       		.byte	0x1
 3223 018f 31       		.uleb128 0x31
 3224 0190 13       		.uleb128 0x13
 3225 0191 52       		.uleb128 0x52
 3226 0192 01       		.uleb128 0x1
 3227 0193 B842     		.uleb128 0x2138
 3228 0195 0B       		.uleb128 0xb
 3229 0196 55       		.uleb128 0x55
 3230 0197 06       		.uleb128 0x6
 3231 0198 58       		.uleb128 0x58
 3232 0199 0B       		.uleb128 0xb
 3233 019a 59       		.uleb128 0x59
 3234 019b 05       		.uleb128 0x5
 3235 019c 57       		.uleb128 0x57
 3236 019d 0B       		.uleb128 0xb
 3237 019e 01       		.uleb128 0x1
 3238 019f 13       		.uleb128 0x13
 3239 01a0 00       		.byte	0
 3240 01a1 00       		.byte	0
 3241 01a2 1A       		.uleb128 0x1a
 3242 01a3 0B       		.uleb128 0xb
 3243 01a4 01       		.byte	0x1
 3244 01a5 55       		.uleb128 0x55
 3245 01a6 06       		.uleb128 0x6
 3246 01a7 00       		.byte	0
 3247 01a8 00       		.byte	0
 3248 01a9 1B       		.uleb128 0x1b
 3249 01aa 34       		.uleb128 0x34
 3250 01ab 00       		.byte	0
 3251 01ac 31       		.uleb128 0x31
 3252 01ad 13       		.uleb128 0x13
 3253 01ae 02       		.uleb128 0x2
 3254 01af 06       		.uleb128 0x6
 3255 01b0 B742     		.uleb128 0x2137
 3256 01b2 06       		.uleb128 0x6
 3257 01b3 00       		.byte	0
 3258 01b4 00       		.byte	0
 3259 01b5 1C       		.uleb128 0x1c
 3260 01b6 1D       		.uleb128 0x1d
 3261 01b7 01       		.byte	0x1
 3262 01b8 31       		.uleb128 0x31
 3263 01b9 13       		.uleb128 0x13
 3264 01ba 52       		.uleb128 0x52
 3265 01bb 01       		.uleb128 0x1
 3266 01bc B842     		.uleb128 0x2138
 3267 01be 0B       		.uleb128 0xb
 3268 01bf 11       		.uleb128 0x11
 3269 01c0 01       		.uleb128 0x1
 3270 01c1 12       		.uleb128 0x12
 3271 01c2 01       		.uleb128 0x1
 3272 01c3 58       		.uleb128 0x58
 3273 01c4 0B       		.uleb128 0xb
 3274 01c5 59       		.uleb128 0x59
 3275 01c6 05       		.uleb128 0x5
 3276 01c7 57       		.uleb128 0x57
 3277 01c8 0B       		.uleb128 0xb
 3278 01c9 01       		.uleb128 0x1
ARM GAS  C:\Users\hoodc\AppData\Local\Temp\ccsNrQcU.s 			page 86


 3279 01ca 13       		.uleb128 0x13
 3280 01cb 00       		.byte	0
 3281 01cc 00       		.byte	0
 3282 01cd 1D       		.uleb128 0x1d
 3283 01ce 05       		.uleb128 0x5
 3284 01cf 00       		.byte	0
 3285 01d0 31       		.uleb128 0x31
 3286 01d1 13       		.uleb128 0x13
 3287 01d2 02       		.uleb128 0x2
 3288 01d3 06       		.uleb128 0x6
 3289 01d4 B742     		.uleb128 0x2137
 3290 01d6 06       		.uleb128 0x6
 3291 01d7 00       		.byte	0
 3292 01d8 00       		.byte	0
 3293 01d9 1E       		.uleb128 0x1e
 3294 01da 1D       		.uleb128 0x1d
 3295 01db 01       		.byte	0x1
 3296 01dc 31       		.uleb128 0x31
 3297 01dd 13       		.uleb128 0x13
 3298 01de 52       		.uleb128 0x52
 3299 01df 01       		.uleb128 0x1
 3300 01e0 B842     		.uleb128 0x2138
 3301 01e2 0B       		.uleb128 0xb
 3302 01e3 11       		.uleb128 0x11
 3303 01e4 01       		.uleb128 0x1
 3304 01e5 12       		.uleb128 0x12
 3305 01e6 01       		.uleb128 0x1
 3306 01e7 58       		.uleb128 0x58
 3307 01e8 0B       		.uleb128 0xb
 3308 01e9 59       		.uleb128 0x59
 3309 01ea 05       		.uleb128 0x5
 3310 01eb 57       		.uleb128 0x57
 3311 01ec 0B       		.uleb128 0xb
 3312 01ed 00       		.byte	0
 3313 01ee 00       		.byte	0
 3314 01ef 1F       		.uleb128 0x1f
 3315 01f0 34       		.uleb128 0x34
 3316 01f1 00       		.byte	0
 3317 01f2 31       		.uleb128 0x31
 3318 01f3 13       		.uleb128 0x13
 3319 01f4 1C       		.uleb128 0x1c
 3320 01f5 06       		.uleb128 0x6
 3321 01f6 00       		.byte	0
 3322 01f7 00       		.byte	0
 3323 01f8 20       		.uleb128 0x20
 3324 01f9 2E       		.uleb128 0x2e
 3325 01fa 01       		.byte	0x1
 3326 01fb 3F       		.uleb128 0x3f
 3327 01fc 0C       		.uleb128 0xc
 3328 01fd 03       		.uleb128 0x3
 3329 01fe 0E       		.uleb128 0xe
 3330 01ff 3A       		.uleb128 0x3a
 3331 0200 0B       		.uleb128 0xb
 3332 0201 3B       		.uleb128 0x3b
 3333 0202 05       		.uleb128 0x5
 3334 0203 39       		.uleb128 0x39
 3335 0204 0B       		.uleb128 0xb
ARM GAS  C:\Users\hoodc\AppData\Local\Temp\ccsNrQcU.s 			page 87


 3336 0205 27       		.uleb128 0x27
 3337 0206 0C       		.uleb128 0xc
 3338 0207 49       		.uleb128 0x49
 3339 0208 13       		.uleb128 0x13
 3340 0209 11       		.uleb128 0x11
 3341 020a 01       		.uleb128 0x1
 3342 020b 12       		.uleb128 0x12
 3343 020c 01       		.uleb128 0x1
 3344 020d 40       		.uleb128 0x40
 3345 020e 06       		.uleb128 0x6
 3346 020f 9742     		.uleb128 0x2117
 3347 0211 0C       		.uleb128 0xc
 3348 0212 01       		.uleb128 0x1
 3349 0213 13       		.uleb128 0x13
 3350 0214 00       		.byte	0
 3351 0215 00       		.byte	0
 3352 0216 21       		.uleb128 0x21
 3353 0217 898201   		.uleb128 0x4109
 3354 021a 01       		.byte	0x1
 3355 021b 11       		.uleb128 0x11
 3356 021c 01       		.uleb128 0x1
 3357 021d 31       		.uleb128 0x31
 3358 021e 13       		.uleb128 0x13
 3359 021f 01       		.uleb128 0x1
 3360 0220 13       		.uleb128 0x13
 3361 0221 00       		.byte	0
 3362 0222 00       		.byte	0
 3363 0223 22       		.uleb128 0x22
 3364 0224 8A8201   		.uleb128 0x410a
 3365 0227 00       		.byte	0
 3366 0228 02       		.uleb128 0x2
 3367 0229 0A       		.uleb128 0xa
 3368 022a 9142     		.uleb128 0x2111
 3369 022c 0A       		.uleb128 0xa
 3370 022d 00       		.byte	0
 3371 022e 00       		.byte	0
 3372 022f 23       		.uleb128 0x23
 3373 0230 898201   		.uleb128 0x4109
 3374 0233 01       		.byte	0x1
 3375 0234 11       		.uleb128 0x11
 3376 0235 01       		.uleb128 0x1
 3377 0236 31       		.uleb128 0x31
 3378 0237 13       		.uleb128 0x13
 3379 0238 00       		.byte	0
 3380 0239 00       		.byte	0
 3381 023a 24       		.uleb128 0x24
 3382 023b 2E       		.uleb128 0x2e
 3383 023c 01       		.byte	0x1
 3384 023d 3F       		.uleb128 0x3f
 3385 023e 0C       		.uleb128 0xc
 3386 023f 03       		.uleb128 0x3
 3387 0240 0E       		.uleb128 0xe
 3388 0241 3A       		.uleb128 0x3a
 3389 0242 0B       		.uleb128 0xb
 3390 0243 3B       		.uleb128 0x3b
 3391 0244 0B       		.uleb128 0xb
 3392 0245 39       		.uleb128 0x39
ARM GAS  C:\Users\hoodc\AppData\Local\Temp\ccsNrQcU.s 			page 88


 3393 0246 0B       		.uleb128 0xb
 3394 0247 27       		.uleb128 0x27
 3395 0248 0C       		.uleb128 0xc
 3396 0249 49       		.uleb128 0x49
 3397 024a 13       		.uleb128 0x13
 3398 024b 11       		.uleb128 0x11
 3399 024c 01       		.uleb128 0x1
 3400 024d 12       		.uleb128 0x12
 3401 024e 01       		.uleb128 0x1
 3402 024f 40       		.uleb128 0x40
 3403 0250 06       		.uleb128 0x6
 3404 0251 9742     		.uleb128 0x2117
 3405 0253 0C       		.uleb128 0xc
 3406 0254 01       		.uleb128 0x1
 3407 0255 13       		.uleb128 0x13
 3408 0256 00       		.byte	0
 3409 0257 00       		.byte	0
 3410 0258 25       		.uleb128 0x25
 3411 0259 05       		.uleb128 0x5
 3412 025a 00       		.byte	0
 3413 025b 03       		.uleb128 0x3
 3414 025c 0E       		.uleb128 0xe
 3415 025d 3A       		.uleb128 0x3a
 3416 025e 0B       		.uleb128 0xb
 3417 025f 3B       		.uleb128 0x3b
 3418 0260 0B       		.uleb128 0xb
 3419 0261 39       		.uleb128 0x39
 3420 0262 0B       		.uleb128 0xb
 3421 0263 49       		.uleb128 0x49
 3422 0264 13       		.uleb128 0x13
 3423 0265 02       		.uleb128 0x2
 3424 0266 06       		.uleb128 0x6
 3425 0267 B742     		.uleb128 0x2137
 3426 0269 06       		.uleb128 0x6
 3427 026a 00       		.byte	0
 3428 026b 00       		.byte	0
 3429 026c 26       		.uleb128 0x26
 3430 026d 34       		.uleb128 0x34
 3431 026e 00       		.byte	0
 3432 026f 03       		.uleb128 0x3
 3433 0270 0E       		.uleb128 0xe
 3434 0271 3A       		.uleb128 0x3a
 3435 0272 0B       		.uleb128 0xb
 3436 0273 3B       		.uleb128 0x3b
 3437 0274 0B       		.uleb128 0xb
 3438 0275 39       		.uleb128 0x39
 3439 0276 0B       		.uleb128 0xb
 3440 0277 49       		.uleb128 0x49
 3441 0278 13       		.uleb128 0x13
 3442 0279 1C       		.uleb128 0x1c
 3443 027a 0B       		.uleb128 0xb
 3444 027b 00       		.byte	0
 3445 027c 00       		.byte	0
 3446 027d 27       		.uleb128 0x27
 3447 027e 898201   		.uleb128 0x4109
 3448 0281 00       		.byte	0
 3449 0282 11       		.uleb128 0x11
ARM GAS  C:\Users\hoodc\AppData\Local\Temp\ccsNrQcU.s 			page 89


 3450 0283 01       		.uleb128 0x1
 3451 0284 31       		.uleb128 0x31
 3452 0285 13       		.uleb128 0x13
 3453 0286 00       		.byte	0
 3454 0287 00       		.byte	0
 3455 0288 28       		.uleb128 0x28
 3456 0289 34       		.uleb128 0x34
 3457 028a 00       		.byte	0
 3458 028b 03       		.uleb128 0x3
 3459 028c 0E       		.uleb128 0xe
 3460 028d 3A       		.uleb128 0x3a
 3461 028e 0B       		.uleb128 0xb
 3462 028f 3B       		.uleb128 0x3b
 3463 0290 0B       		.uleb128 0xb
 3464 0291 39       		.uleb128 0x39
 3465 0292 0B       		.uleb128 0xb
 3466 0293 49       		.uleb128 0x49
 3467 0294 13       		.uleb128 0x13
 3468 0295 02       		.uleb128 0x2
 3469 0296 06       		.uleb128 0x6
 3470 0297 B742     		.uleb128 0x2137
 3471 0299 06       		.uleb128 0x6
 3472 029a 00       		.byte	0
 3473 029b 00       		.byte	0
 3474 029c 29       		.uleb128 0x29
 3475 029d 2E       		.uleb128 0x2e
 3476 029e 00       		.byte	0
 3477 029f 3F       		.uleb128 0x3f
 3478 02a0 0C       		.uleb128 0xc
 3479 02a1 3C       		.uleb128 0x3c
 3480 02a2 0C       		.uleb128 0xc
 3481 02a3 8740     		.uleb128 0x2007
 3482 02a5 0E       		.uleb128 0xe
 3483 02a6 03       		.uleb128 0x3
 3484 02a7 0E       		.uleb128 0xe
 3485 02a8 3A       		.uleb128 0x3a
 3486 02a9 0B       		.uleb128 0xb
 3487 02aa 3B       		.uleb128 0x3b
 3488 02ab 05       		.uleb128 0x5
 3489 02ac 39       		.uleb128 0x39
 3490 02ad 0B       		.uleb128 0xb
 3491 02ae 00       		.byte	0
 3492 02af 00       		.byte	0
 3493 02b0 00       		.byte	0
 3494              		.section	.debug_loc,"",%progbits
 3495              	.Ldebug_loc0:
 3496              	.LVUS32:
 3497 0000 00       		.uleb128 .LVU415
 3498 0001 00       		.uleb128 .LVU419
 3499 0002 00       		.uleb128 .LVU419
 3500 0003 00       		.uleb128 .LVU420
 3501 0004 00       		.uleb128 .LVU424
 3502 0005 00       		.uleb128 .LVU429
 3503              	.LLST32:
 3504 0006 2A040000 		.4byte	.LVL111-.Ltext0
 3505 000a 34040000 		.4byte	.LVL112-.Ltext0
 3506 000e 0100     		.2byte	0x1
ARM GAS  C:\Users\hoodc\AppData\Local\Temp\ccsNrQcU.s 			page 90


 3507 0010 53       		.byte	0x53
 3508 0011 34040000 		.4byte	.LVL112-.Ltext0
 3509 0015 36040000 		.4byte	.LVL113-.Ltext0
 3510 0019 0300     		.2byte	0x3
 3511 001b 73       		.byte	0x73
 3512 001c 02       		.sleb128 2
 3513 001d 9F       		.byte	0x9f
 3514 001e 42040000 		.4byte	.LVL114-.Ltext0
 3515 0022 5E040000 		.4byte	.LVL115-.Ltext0
 3516 0026 0100     		.2byte	0x1
 3517 0028 53       		.byte	0x53
 3518 0029 00000000 		.4byte	0
 3519 002d 00000000 		.4byte	0
 3520              	.LVUS29:
 3521 0031 00       		.uleb128 0
 3522 0032 00       		.uleb128 .LVU350
 3523 0033 00       		.uleb128 .LVU350
 3524 0034 00       		.uleb128 0
 3525              	.LLST29:
 3526 0035 44030000 		.4byte	.LVL100-.Ltext0
 3527 0039 4A030000 		.4byte	.LVL101-.Ltext0
 3528 003d 0100     		.2byte	0x1
 3529 003f 50       		.byte	0x50
 3530 0040 4A030000 		.4byte	.LVL101-.Ltext0
 3531 0044 6C030000 		.4byte	.LFE138-.Ltext0
 3532 0048 0400     		.2byte	0x4
 3533 004a F3       		.byte	0xf3
 3534 004b 01       		.uleb128 0x1
 3535 004c 50       		.byte	0x50
 3536 004d 9F       		.byte	0x9f
 3537 004e 00000000 		.4byte	0
 3538 0052 00000000 		.4byte	0
 3539              	.LVUS20:
 3540 0056 00       		.uleb128 .LVU273
 3541 0057 00       		.uleb128 .LVU277
 3542 0058 00       		.uleb128 .LVU302
 3543 0059 00       		.uleb128 .LVU305
 3544              	.LLST20:
 3545 005a B4020000 		.4byte	.LVL86-.Ltext0
 3546 005e BE020000 		.4byte	.LVL87-.Ltext0
 3547 0062 0100     		.2byte	0x1
 3548 0064 53       		.byte	0x53
 3549 0065 EE020000 		.4byte	.LVL92-.Ltext0
 3550 0069 F0020000 		.4byte	.LVL93-.Ltext0
 3551 006d 0100     		.2byte	0x1
 3552 006f 53       		.byte	0x53
 3553 0070 00000000 		.4byte	0
 3554 0074 00000000 		.4byte	0
 3555              	.LVUS21:
 3556 0078 01       		.uleb128 .LVU282
 3557 0079 00       		.uleb128 .LVU302
 3558              	.LLST21:
 3559 007a C4020000 		.4byte	.LVL88-.Ltext0
 3560 007e EE020000 		.4byte	.LVL92-.Ltext0
 3561 0082 0300     		.2byte	0x3
 3562 0084 70       		.byte	0x70
 3563 0085 0C       		.sleb128 12
ARM GAS  C:\Users\hoodc\AppData\Local\Temp\ccsNrQcU.s 			page 91


 3564 0086 9F       		.byte	0x9f
 3565 0087 00000000 		.4byte	0
 3566 008b 00000000 		.4byte	0
 3567              	.LVUS22:
 3568 008f 01       		.uleb128 .LVU282
 3569 0090 00       		.uleb128 .LVU302
 3570              	.LLST22:
 3571 0091 C4020000 		.4byte	.LVL88-.Ltext0
 3572 0095 EE020000 		.4byte	.LVL92-.Ltext0
 3573 0099 0300     		.2byte	0x3
 3574 009b 70       		.byte	0x70
 3575 009c 08       		.sleb128 8
 3576 009d 9F       		.byte	0x9f
 3577 009e 00000000 		.4byte	0
 3578 00a2 00000000 		.4byte	0
 3579              	.LVUS23:
 3580 00a6 01       		.uleb128 .LVU282
 3581 00a7 00       		.uleb128 .LVU287
 3582 00a8 00       		.uleb128 .LVU287
 3583 00a9 00       		.uleb128 .LVU293
 3584 00aa 00       		.uleb128 .LVU293
 3585 00ab 00       		.uleb128 .LVU296
 3586 00ac 00       		.uleb128 .LVU296
 3587 00ad 00       		.uleb128 .LVU302
 3588              	.LLST23:
 3589 00ae C4020000 		.4byte	.LVL88-.Ltext0
 3590 00b2 CA020000 		.4byte	.LVL89-.Ltext0
 3591 00b6 0100     		.2byte	0x1
 3592 00b8 53       		.byte	0x53
 3593 00b9 CA020000 		.4byte	.LVL89-.Ltext0
 3594 00bd DA020000 		.4byte	.LVL90-.Ltext0
 3595 00c1 0200     		.2byte	0x2
 3596 00c3 70       		.byte	0x70
 3597 00c4 04       		.sleb128 4
 3598 00c5 DA020000 		.4byte	.LVL90-.Ltext0
 3599 00c9 DE020000 		.4byte	.LVL91-.Ltext0
 3600 00cd 0100     		.2byte	0x1
 3601 00cf 53       		.byte	0x53
 3602 00d0 DE020000 		.4byte	.LVL91-.Ltext0
 3603 00d4 EE020000 		.4byte	.LVL92-.Ltext0
 3604 00d8 0200     		.2byte	0x2
 3605 00da 70       		.byte	0x70
 3606 00db 04       		.sleb128 4
 3607 00dc 00000000 		.4byte	0
 3608 00e0 00000000 		.4byte	0
 3609              	.LVUS24:
 3610 00e4 00       		.uleb128 .LVU312
 3611 00e5 01       		.uleb128 .LVU313
 3612 00e6 01       		.uleb128 .LVU313
 3613 00e7 02       		.uleb128 .LVU314
 3614              	.LLST24:
 3615 00e8 FA020000 		.4byte	.LVL94-.Ltext0
 3616 00ec FA020000 		.4byte	.LVL94-.Ltext0
 3617 00f0 0100     		.2byte	0x1
 3618 00f2 53       		.byte	0x53
 3619 00f3 FA020000 		.4byte	.LVL94-.Ltext0
 3620 00f7 FA020000 		.4byte	.LVL94-.Ltext0
ARM GAS  C:\Users\hoodc\AppData\Local\Temp\ccsNrQcU.s 			page 92


 3621 00fb 0700     		.2byte	0x7
 3622 00fd 73       		.byte	0x73
 3623 00fe 00       		.sleb128 0
 3624 00ff 0B       		.byte	0xb
 3625 0100 00FF     		.2byte	0xff00
 3626 0102 1A       		.byte	0x1a
 3627 0103 9F       		.byte	0x9f
 3628 0104 00000000 		.4byte	0
 3629 0108 00000000 		.4byte	0
 3630              	.LVUS25:
 3631 010c 01       		.uleb128 .LVU322
 3632 010d 00       		.uleb128 .LVU344
 3633              	.LLST25:
 3634 010e 10030000 		.4byte	.LVL95-.Ltext0
 3635 0112 3A030000 		.4byte	.LVL99-.Ltext0
 3636 0116 0300     		.2byte	0x3
 3637 0118 70       		.byte	0x70
 3638 0119 24       		.sleb128 36
 3639 011a 9F       		.byte	0x9f
 3640 011b 00000000 		.4byte	0
 3641 011f 00000000 		.4byte	0
 3642              	.LVUS26:
 3643 0123 01       		.uleb128 .LVU322
 3644 0124 00       		.uleb128 .LVU344
 3645              	.LLST26:
 3646 0125 10030000 		.4byte	.LVL95-.Ltext0
 3647 0129 3A030000 		.4byte	.LVL99-.Ltext0
 3648 012d 0300     		.2byte	0x3
 3649 012f 70       		.byte	0x70
 3650 0130 20       		.sleb128 32
 3651 0131 9F       		.byte	0x9f
 3652 0132 00000000 		.4byte	0
 3653 0136 00000000 		.4byte	0
 3654              	.LVUS27:
 3655 013a 01       		.uleb128 .LVU322
 3656 013b 00       		.uleb128 .LVU344
 3657              	.LLST27:
 3658 013c 10030000 		.4byte	.LVL95-.Ltext0
 3659 0140 3A030000 		.4byte	.LVL99-.Ltext0
 3660 0144 0300     		.2byte	0x3
 3661 0146 70       		.byte	0x70
 3662 0147 1C       		.sleb128 28
 3663 0148 9F       		.byte	0x9f
 3664 0149 00000000 		.4byte	0
 3665 014d 00000000 		.4byte	0
 3666              	.LVUS28:
 3667 0151 00       		.uleb128 .LVU329
 3668 0152 00       		.uleb128 .LVU331
 3669 0153 00       		.uleb128 .LVU335
 3670 0154 00       		.uleb128 0
 3671              	.LLST28:
 3672 0155 14030000 		.4byte	.LVL96-.Ltext0
 3673 0159 1A030000 		.4byte	.LVL97-.Ltext0
 3674 015d 0700     		.2byte	0x7
 3675 015f 72       		.byte	0x72
 3676 0160 00       		.sleb128 0
 3677 0161 0A       		.byte	0xa
ARM GAS  C:\Users\hoodc\AppData\Local\Temp\ccsNrQcU.s 			page 93


 3678 0162 FF3F     		.2byte	0x3fff
 3679 0164 1A       		.byte	0x1a
 3680 0165 9F       		.byte	0x9f
 3681 0166 22030000 		.4byte	.LVL98-.Ltext0
 3682 016a 44030000 		.4byte	.LFE136-.Ltext0
 3683 016e 0700     		.2byte	0x7
 3684 0170 72       		.byte	0x72
 3685 0171 00       		.sleb128 0
 3686 0172 0A       		.byte	0xa
 3687 0173 FF3F     		.2byte	0x3fff
 3688 0175 1A       		.byte	0x1a
 3689 0176 9F       		.byte	0x9f
 3690 0177 00000000 		.4byte	0
 3691 017b 00000000 		.4byte	0
 3692              	.LLST0:
 3693 017f 20000000 		.4byte	.LFB135-.Ltext0
 3694 0183 24000000 		.4byte	.LCFI0-.Ltext0
 3695 0187 0200     		.2byte	0x2
 3696 0189 7D       		.byte	0x7d
 3697 018a 00       		.sleb128 0
 3698 018b 24000000 		.4byte	.LCFI0-.Ltext0
 3699 018f A4020000 		.4byte	.LFE135-.Ltext0
 3700 0193 0200     		.2byte	0x2
 3701 0195 7D       		.byte	0x7d
 3702 0196 18       		.sleb128 24
 3703 0197 00000000 		.4byte	0
 3704 019b 00000000 		.4byte	0
 3705              	.LVUS1:
 3706 019f 00       		.uleb128 0
 3707 01a0 00       		.uleb128 .LVU21
 3708 01a1 00       		.uleb128 .LVU21
 3709 01a2 00       		.uleb128 .LVU34
 3710 01a3 00       		.uleb128 .LVU34
 3711 01a4 00       		.uleb128 .LVU39
 3712 01a5 00       		.uleb128 .LVU39
 3713 01a6 00       		.uleb128 .LVU48
 3714 01a7 00       		.uleb128 .LVU48
 3715 01a8 00       		.uleb128 .LVU248
 3716 01a9 00       		.uleb128 .LVU248
 3717 01aa 00       		.uleb128 .LVU259
 3718 01ab 00       		.uleb128 .LVU259
 3719 01ac 00       		.uleb128 .LVU261
 3720 01ad 00       		.uleb128 .LVU261
 3721 01ae 00       		.uleb128 0
 3722              	.LLST1:
 3723 01af 20000000 		.4byte	.LVL1-.Ltext0
 3724 01b3 44000000 		.4byte	.LVL3-.Ltext0
 3725 01b7 0100     		.2byte	0x1
 3726 01b9 50       		.byte	0x50
 3727 01ba 44000000 		.4byte	.LVL3-.Ltext0
 3728 01be 66000000 		.4byte	.LVL6-.Ltext0
 3729 01c2 0100     		.2byte	0x1
 3730 01c4 54       		.byte	0x54
 3731 01c5 66000000 		.4byte	.LVL6-.Ltext0
 3732 01c9 72000000 		.4byte	.LVL8-.Ltext0
 3733 01cd 0400     		.2byte	0x4
 3734 01cf F3       		.byte	0xf3
ARM GAS  C:\Users\hoodc\AppData\Local\Temp\ccsNrQcU.s 			page 94


 3735 01d0 01       		.uleb128 0x1
 3736 01d1 50       		.byte	0x50
 3737 01d2 9F       		.byte	0x9f
 3738 01d3 72000000 		.4byte	.LVL8-.Ltext0
 3739 01d7 7E000000 		.4byte	.LVL10-.Ltext0
 3740 01db 0100     		.2byte	0x1
 3741 01dd 50       		.byte	0x50
 3742 01de 7E000000 		.4byte	.LVL10-.Ltext0
 3743 01e2 62020000 		.4byte	.LVL76-.Ltext0
 3744 01e6 0100     		.2byte	0x1
 3745 01e8 54       		.byte	0x54
 3746 01e9 62020000 		.4byte	.LVL76-.Ltext0
 3747 01ed 92020000 		.4byte	.LVL82-.Ltext0
 3748 01f1 0400     		.2byte	0x4
 3749 01f3 F3       		.byte	0xf3
 3750 01f4 01       		.uleb128 0x1
 3751 01f5 50       		.byte	0x50
 3752 01f6 9F       		.byte	0x9f
 3753 01f7 92020000 		.4byte	.LVL82-.Ltext0
 3754 01fb 96020000 		.4byte	.LVL84-.Ltext0
 3755 01ff 0100     		.2byte	0x1
 3756 0201 54       		.byte	0x54
 3757 0202 96020000 		.4byte	.LVL84-.Ltext0
 3758 0206 A4020000 		.4byte	.LFE135-.Ltext0
 3759 020a 0100     		.2byte	0x1
 3760 020c 50       		.byte	0x50
 3761 020d 00000000 		.4byte	0
 3762 0211 00000000 		.4byte	0
 3763              	.LVUS2:
 3764 0215 01       		.uleb128 .LVU10
 3765 0216 00       		.uleb128 .LVU21
 3766 0217 00       		.uleb128 .LVU21
 3767 0218 02       		.uleb128 .LVU38
 3768 0219 00       		.uleb128 .LVU39
 3769 021a 00       		.uleb128 .LVU67
 3770 021b 00       		.uleb128 .LVU67
 3771 021c 00       		.uleb128 .LVU78
 3772 021d 00       		.uleb128 .LVU79
 3773 021e 00       		.uleb128 .LVU88
 3774 021f 00       		.uleb128 .LVU89
 3775 0220 00       		.uleb128 .LVU216
 3776 0221 00       		.uleb128 .LVU217
 3777 0222 00       		.uleb128 .LVU218
 3778 0223 00       		.uleb128 .LVU219
 3779 0224 00       		.uleb128 .LVU258
 3780 0225 00       		.uleb128 .LVU259
 3781 0226 00       		.uleb128 .LVU260
 3782 0227 00       		.uleb128 .LVU261
 3783 0228 00       		.uleb128 0
 3784              	.LLST2:
 3785 0229 26000000 		.4byte	.LVL2-.Ltext0
 3786 022d 44000000 		.4byte	.LVL3-.Ltext0
 3787 0231 0200     		.2byte	0x2
 3788 0233 30       		.byte	0x30
 3789 0234 9F       		.byte	0x9f
 3790 0235 44000000 		.4byte	.LVL3-.Ltext0
 3791 0239 6C000000 		.4byte	.LVL7-.Ltext0
ARM GAS  C:\Users\hoodc\AppData\Local\Temp\ccsNrQcU.s 			page 95


 3792 023d 0100     		.2byte	0x1
 3793 023f 55       		.byte	0x55
 3794 0240 72000000 		.4byte	.LVL8-.Ltext0
 3795 0244 D6000000 		.4byte	.LVL18-.Ltext0
 3796 0248 0200     		.2byte	0x2
 3797 024a 30       		.byte	0x30
 3798 024b 9F       		.byte	0x9f
 3799 024c D6000000 		.4byte	.LVL18-.Ltext0
 3800 0250 E4000000 		.4byte	.LVL21-.Ltext0
 3801 0254 0100     		.2byte	0x1
 3802 0256 55       		.byte	0x55
 3803 0257 E6000000 		.4byte	.LVL22-.Ltext0
 3804 025b 10010000 		.4byte	.LVL26-.Ltext0
 3805 025f 0100     		.2byte	0x1
 3806 0261 55       		.byte	0x55
 3807 0262 12010000 		.4byte	.LVL27-.Ltext0
 3808 0266 1C020000 		.4byte	.LVL63-.Ltext0
 3809 026a 0100     		.2byte	0x1
 3810 026c 55       		.byte	0x55
 3811 026d 1E020000 		.4byte	.LVL64-.Ltext0
 3812 0271 20020000 		.4byte	.LVL65-.Ltext0
 3813 0275 0100     		.2byte	0x1
 3814 0277 55       		.byte	0x55
 3815 0278 22020000 		.4byte	.LVL66-.Ltext0
 3816 027c 90020000 		.4byte	.LVL81-.Ltext0
 3817 0280 0100     		.2byte	0x1
 3818 0282 55       		.byte	0x55
 3819 0283 92020000 		.4byte	.LVL82-.Ltext0
 3820 0287 94020000 		.4byte	.LVL83-.Ltext0
 3821 028b 0100     		.2byte	0x1
 3822 028d 55       		.byte	0x55
 3823 028e 96020000 		.4byte	.LVL84-.Ltext0
 3824 0292 A4020000 		.4byte	.LFE135-.Ltext0
 3825 0296 0200     		.2byte	0x2
 3826 0298 30       		.byte	0x30
 3827 0299 9F       		.byte	0x9f
 3828 029a 00000000 		.4byte	0
 3829 029e 00000000 		.4byte	0
 3830              	.LVUS3:
 3831 02a2 00       		.uleb128 .LVU41
 3832 02a3 01       		.uleb128 .LVU62
 3833 02a4 00       		.uleb128 .LVU64
 3834 02a5 00       		.uleb128 .LVU67
 3835              	.LLST3:
 3836 02a6 7A000000 		.4byte	.LVL9-.Ltext0
 3837 02aa B6000000 		.4byte	.LVL16-.Ltext0
 3838 02ae 0100     		.2byte	0x1
 3839 02b0 57       		.byte	0x57
 3840 02b1 BE000000 		.4byte	.LVL17-.Ltext0
 3841 02b5 D6000000 		.4byte	.LVL18-.Ltext0
 3842 02b9 0100     		.2byte	0x1
 3843 02bb 57       		.byte	0x57
 3844 02bc 00000000 		.4byte	0
 3845 02c0 00000000 		.4byte	0
 3846              	.LVUS4:
 3847 02c4 00       		.uleb128 .LVU41
 3848 02c5 01       		.uleb128 .LVU62
ARM GAS  C:\Users\hoodc\AppData\Local\Temp\ccsNrQcU.s 			page 96


 3849 02c6 00       		.uleb128 .LVU64
 3850 02c7 00       		.uleb128 .LVU67
 3851              	.LLST4:
 3852 02c8 7A000000 		.4byte	.LVL9-.Ltext0
 3853 02cc B6000000 		.4byte	.LVL16-.Ltext0
 3854 02d0 0100     		.2byte	0x1
 3855 02d2 58       		.byte	0x58
 3856 02d3 BE000000 		.4byte	.LVL17-.Ltext0
 3857 02d7 D6000000 		.4byte	.LVL18-.Ltext0
 3858 02db 0100     		.2byte	0x1
 3859 02dd 58       		.byte	0x58
 3860 02de 00000000 		.4byte	0
 3861 02e2 00000000 		.4byte	0
 3862              	.LVUS5:
 3863 02e6 00       		.uleb128 .LVU41
 3864 02e7 00       		.uleb128 .LVU56
 3865 02e8 00       		.uleb128 .LVU64
 3866 02e9 00       		.uleb128 .LVU67
 3867              	.LLST5:
 3868 02ea 7A000000 		.4byte	.LVL9-.Ltext0
 3869 02ee 9C000000 		.4byte	.LVL12-.Ltext0
 3870 02f2 0100     		.2byte	0x1
 3871 02f4 56       		.byte	0x56
 3872 02f5 BE000000 		.4byte	.LVL17-.Ltext0
 3873 02f9 D6000000 		.4byte	.LVL18-.Ltext0
 3874 02fd 0100     		.2byte	0x1
 3875 02ff 56       		.byte	0x56
 3876 0300 00000000 		.4byte	0
 3877 0304 00000000 		.4byte	0
 3878              	.LVUS6:
 3879 0308 00       		.uleb128 .LVU49
 3880 0309 00       		.uleb128 .LVU59
 3881 030a 00       		.uleb128 .LVU60
 3882 030b 01       		.uleb128 .LVU62
 3883 030c 00       		.uleb128 .LVU64
 3884 030d 00       		.uleb128 .LVU67
 3885              	.LLST6:
 3886 030e 82000000 		.4byte	.LVL11-.Ltext0
 3887 0312 A8000000 		.4byte	.LVL13-.Ltext0
 3888 0316 0100     		.2byte	0x1
 3889 0318 50       		.byte	0x50
 3890 0319 AE000000 		.4byte	.LVL15-.Ltext0
 3891 031d B6000000 		.4byte	.LVL16-.Ltext0
 3892 0321 0100     		.2byte	0x1
 3893 0323 55       		.byte	0x55
 3894 0324 BE000000 		.4byte	.LVL17-.Ltext0
 3895 0328 D6000000 		.4byte	.LVL18-.Ltext0
 3896 032c 0100     		.2byte	0x1
 3897 032e 50       		.byte	0x50
 3898 032f 00000000 		.4byte	0
 3899 0333 00000000 		.4byte	0
 3900              	.LVUS7:
 3901 0337 00       		.uleb128 .LVU70
 3902 0338 01       		.uleb128 .LVU86
 3903              	.LLST7:
 3904 0339 D8000000 		.4byte	.LVL19-.Ltext0
 3905 033d 0A010000 		.4byte	.LVL25-.Ltext0
ARM GAS  C:\Users\hoodc\AppData\Local\Temp\ccsNrQcU.s 			page 97


 3906 0341 0100     		.2byte	0x1
 3907 0343 57       		.byte	0x57
 3908 0344 00000000 		.4byte	0
 3909 0348 00000000 		.4byte	0
 3910              	.LVUS8:
 3911 034c 00       		.uleb128 .LVU75
 3912 034d 00       		.uleb128 .LVU83
 3913 034e 00       		.uleb128 .LVU84
 3914 034f 01       		.uleb128 .LVU86
 3915              	.LLST8:
 3916 0350 E0000000 		.4byte	.LVL20-.Ltext0
 3917 0354 FE000000 		.4byte	.LVL23-.Ltext0
 3918 0358 0100     		.2byte	0x1
 3919 035a 50       		.byte	0x50
 3920 035b 02010000 		.4byte	.LVL24-.Ltext0
 3921 035f 0A010000 		.4byte	.LVL25-.Ltext0
 3922 0363 0100     		.2byte	0x1
 3923 0365 50       		.byte	0x50
 3924 0366 00000000 		.4byte	0
 3925 036a 00000000 		.4byte	0
 3926              	.LVUS9:
 3927 036e 00       		.uleb128 .LVU91
 3928 036f 00       		.uleb128 .LVU201
 3929 0370 00       		.uleb128 .LVU217
 3930 0371 00       		.uleb128 .LVU219
 3931              	.LLST9:
 3932 0372 16010000 		.4byte	.LVL28-.Ltext0
 3933 0376 EC010000 		.4byte	.LVL54-.Ltext0
 3934 037a 0100     		.2byte	0x1
 3935 037c 57       		.byte	0x57
 3936 037d 1E020000 		.4byte	.LVL64-.Ltext0
 3937 0381 22020000 		.4byte	.LVL66-.Ltext0
 3938 0385 0100     		.2byte	0x1
 3939 0387 57       		.byte	0x57
 3940 0388 00000000 		.4byte	0
 3941 038c 00000000 		.4byte	0
 3942              	.LVUS10:
 3943 0390 00       		.uleb128 .LVU91
 3944 0391 00       		.uleb128 .LVU205
 3945 0392 00       		.uleb128 .LVU217
 3946 0393 00       		.uleb128 .LVU219
 3947              	.LLST10:
 3948 0394 16010000 		.4byte	.LVL28-.Ltext0
 3949 0398 F4010000 		.4byte	.LVL57-.Ltext0
 3950 039c 0100     		.2byte	0x1
 3951 039e 56       		.byte	0x56
 3952 039f 1E020000 		.4byte	.LVL64-.Ltext0
 3953 03a3 22020000 		.4byte	.LVL66-.Ltext0
 3954 03a7 0100     		.2byte	0x1
 3955 03a9 56       		.byte	0x56
 3956 03aa 00000000 		.4byte	0
 3957 03ae 00000000 		.4byte	0
 3958              	.LVUS11:
 3959 03b2 02       		.uleb128 .LVU93
 3960 03b3 00       		.uleb128 .LVU105
 3961 03b4 00       		.uleb128 .LVU105
 3962 03b5 00       		.uleb128 .LVU207
ARM GAS  C:\Users\hoodc\AppData\Local\Temp\ccsNrQcU.s 			page 98


 3963 03b6 00       		.uleb128 .LVU217
 3964 03b7 00       		.uleb128 .LVU219
 3965              	.LLST11:
 3966 03b8 16010000 		.4byte	.LVL28-.Ltext0
 3967 03bc 2C010000 		.4byte	.LVL30-.Ltext0
 3968 03c0 0200     		.2byte	0x2
 3969 03c2 30       		.byte	0x30
 3970 03c3 9F       		.byte	0x9f
 3971 03c4 2C010000 		.4byte	.LVL30-.Ltext0
 3972 03c8 FC010000 		.4byte	.LVL59-.Ltext0
 3973 03cc 0100     		.2byte	0x1
 3974 03ce 53       		.byte	0x53
 3975 03cf 1E020000 		.4byte	.LVL64-.Ltext0
 3976 03d3 22020000 		.4byte	.LVL66-.Ltext0
 3977 03d7 0200     		.2byte	0x2
 3978 03d9 30       		.byte	0x30
 3979 03da 9F       		.byte	0x9f
 3980 03db 00000000 		.4byte	0
 3981 03df 00000000 		.4byte	0
 3982              	.LVUS12:
 3983 03e3 03       		.uleb128 .LVU94
 3984 03e4 01       		.uleb128 .LVU106
 3985 03e5 01       		.uleb128 .LVU106
 3986 03e6 00       		.uleb128 .LVU108
 3987 03e7 00       		.uleb128 .LVU108
 3988 03e8 00       		.uleb128 .LVU206
 3989 03e9 00       		.uleb128 .LVU217
 3990 03ea 00       		.uleb128 .LVU219
 3991              	.LLST12:
 3992 03eb 16010000 		.4byte	.LVL28-.Ltext0
 3993 03ef 2C010000 		.4byte	.LVL30-.Ltext0
 3994 03f3 0200     		.2byte	0x2
 3995 03f5 30       		.byte	0x30
 3996 03f6 9F       		.byte	0x9f
 3997 03f7 2C010000 		.4byte	.LVL30-.Ltext0
 3998 03fb 32010000 		.4byte	.LVL31-.Ltext0
 3999 03ff 0400     		.2byte	0x4
 4000 0401 0A       		.byte	0xa
 4001 0402 0007     		.2byte	0x700
 4002 0404 9F       		.byte	0x9f
 4003 0405 32010000 		.4byte	.LVL31-.Ltext0
 4004 0409 FA010000 		.4byte	.LVL58-.Ltext0
 4005 040d 0100     		.2byte	0x1
 4006 040f 52       		.byte	0x52
 4007 0410 1E020000 		.4byte	.LVL64-.Ltext0
 4008 0414 22020000 		.4byte	.LVL66-.Ltext0
 4009 0418 0200     		.2byte	0x2
 4010 041a 30       		.byte	0x30
 4011 041b 9F       		.byte	0x9f
 4012 041c 00000000 		.4byte	0
 4013 0420 00000000 		.4byte	0
 4014              	.LVUS13:
 4015 0424 00       		.uleb128 .LVU98
 4016 0425 00       		.uleb128 .LVU211
 4017 0426 00       		.uleb128 .LVU212
 4018 0427 01       		.uleb128 .LVU214
 4019 0428 00       		.uleb128 .LVU217
ARM GAS  C:\Users\hoodc\AppData\Local\Temp\ccsNrQcU.s 			page 99


 4020 0429 00       		.uleb128 .LVU219
 4021              	.LLST13:
 4022 042a 1E010000 		.4byte	.LVL29-.Ltext0
 4023 042e 0A020000 		.4byte	.LVL60-.Ltext0
 4024 0432 0100     		.2byte	0x1
 4025 0434 50       		.byte	0x50
 4026 0435 0E020000 		.4byte	.LVL61-.Ltext0
 4027 0439 16020000 		.4byte	.LVL62-.Ltext0
 4028 043d 0100     		.2byte	0x1
 4029 043f 50       		.byte	0x50
 4030 0440 1E020000 		.4byte	.LVL64-.Ltext0
 4031 0444 22020000 		.4byte	.LVL66-.Ltext0
 4032 0448 0100     		.2byte	0x1
 4033 044a 50       		.byte	0x50
 4034 044b 00000000 		.4byte	0
 4035 044f 00000000 		.4byte	0
 4036              	.LVUS14:
 4037 0453 00       		.uleb128 .LVU221
 4038 0454 00       		.uleb128 .LVU244
 4039 0455 00       		.uleb128 .LVU244
 4040 0456 00       		.uleb128 .LVU245
 4041 0457 00       		.uleb128 .LVU259
 4042 0458 00       		.uleb128 .LVU261
 4043              	.LLST14:
 4044 0459 26020000 		.4byte	.LVL67-.Ltext0
 4045 045d 52020000 		.4byte	.LVL74-.Ltext0
 4046 0461 0100     		.2byte	0x1
 4047 0463 56       		.byte	0x56
 4048 0464 52020000 		.4byte	.LVL74-.Ltext0
 4049 0468 5E020000 		.4byte	.LVL75-.Ltext0
 4050 046c 0700     		.2byte	0x7
 4051 046e 76       		.byte	0x76
 4052 046f 808080C0 		.sleb128 134217728
 4052      00
 4053 0474 9F       		.byte	0x9f
 4054 0475 92020000 		.4byte	.LVL82-.Ltext0
 4055 0479 96020000 		.4byte	.LVL84-.Ltext0
 4056 047d 0100     		.2byte	0x1
 4057 047f 56       		.byte	0x56
 4058 0480 00000000 		.4byte	0
 4059 0484 00000000 		.4byte	0
 4060              	.LVUS15:
 4061 0488 00       		.uleb128 .LVU221
 4062 0489 00       		.uleb128 .LVU239
 4063 048a 00       		.uleb128 .LVU239
 4064 048b 00       		.uleb128 .LVU240
 4065 048c 00       		.uleb128 .LVU259
 4066 048d 00       		.uleb128 .LVU261
 4067              	.LLST15:
 4068 048e 26020000 		.4byte	.LVL67-.Ltext0
 4069 0492 3E020000 		.4byte	.LVL71-.Ltext0
 4070 0496 0100     		.2byte	0x1
 4071 0498 57       		.byte	0x57
 4072 0499 3E020000 		.4byte	.LVL71-.Ltext0
 4073 049d 4A020000 		.4byte	.LVL72-.Ltext0
 4074 04a1 0700     		.2byte	0x7
 4075 04a3 77       		.byte	0x77
ARM GAS  C:\Users\hoodc\AppData\Local\Temp\ccsNrQcU.s 			page 100


 4076 04a4 808080C0 		.sleb128 134217728
 4076      00
 4077 04a9 9F       		.byte	0x9f
 4078 04aa 92020000 		.4byte	.LVL82-.Ltext0
 4079 04ae 96020000 		.4byte	.LVL84-.Ltext0
 4080 04b2 0100     		.2byte	0x1
 4081 04b4 57       		.byte	0x57
 4082 04b5 00000000 		.4byte	0
 4083 04b9 00000000 		.4byte	0
 4084              	.LVUS16:
 4085 04bd 00       		.uleb128 .LVU221
 4086 04be 00       		.uleb128 .LVU249
 4087 04bf 00       		.uleb128 .LVU259
 4088 04c0 00       		.uleb128 .LVU261
 4089              	.LLST16:
 4090 04c1 26020000 		.4byte	.LVL67-.Ltext0
 4091 04c5 6C020000 		.4byte	.LVL77-.Ltext0
 4092 04c9 0100     		.2byte	0x1
 4093 04cb 58       		.byte	0x58
 4094 04cc 92020000 		.4byte	.LVL82-.Ltext0
 4095 04d0 96020000 		.4byte	.LVL84-.Ltext0
 4096 04d4 0100     		.2byte	0x1
 4097 04d6 58       		.byte	0x58
 4098 04d7 00000000 		.4byte	0
 4099 04db 00000000 		.4byte	0
 4100              	.LVUS17:
 4101 04df 00       		.uleb128 .LVU231
 4102 04e0 00       		.uleb128 .LVU253
 4103 04e1 00       		.uleb128 .LVU254
 4104 04e2 01       		.uleb128 .LVU256
 4105 04e3 00       		.uleb128 .LVU259
 4106 04e4 00       		.uleb128 .LVU261
 4107              	.LLST17:
 4108 04e5 2E020000 		.4byte	.LVL68-.Ltext0
 4109 04e9 7E020000 		.4byte	.LVL78-.Ltext0
 4110 04ed 0100     		.2byte	0x1
 4111 04ef 50       		.byte	0x50
 4112 04f0 82020000 		.4byte	.LVL79-.Ltext0
 4113 04f4 8A020000 		.4byte	.LVL80-.Ltext0
 4114 04f8 0100     		.2byte	0x1
 4115 04fa 50       		.byte	0x50
 4116 04fb 92020000 		.4byte	.LVL82-.Ltext0
 4117 04ff 96020000 		.4byte	.LVL84-.Ltext0
 4118 0503 0100     		.2byte	0x1
 4119 0505 50       		.byte	0x50
 4120 0506 00000000 		.4byte	0
 4121 050a 00000000 		.4byte	0
 4122              	.LVUS18:
 4123 050e 01       		.uleb128 .LVU237
 4124 050f 00       		.uleb128 .LVU239
 4125 0510 00       		.uleb128 .LVU239
 4126 0511 00       		.uleb128 .LVU240
 4127 0512 01       		.uleb128 .LVU242
 4128 0513 00       		.uleb128 .LVU244
 4129 0514 00       		.uleb128 .LVU244
 4130 0515 00       		.uleb128 .LVU245
 4131              	.LLST18:
ARM GAS  C:\Users\hoodc\AppData\Local\Temp\ccsNrQcU.s 			page 101


 4132 0516 36020000 		.4byte	.LVL70-.Ltext0
 4133 051a 3E020000 		.4byte	.LVL71-.Ltext0
 4134 051e 0800     		.2byte	0x8
 4135 0520 77       		.byte	0x77
 4136 0521 80808040 		.sleb128 -134217728
 4137 0525 33       		.byte	0x33
 4138 0526 25       		.byte	0x25
 4139 0527 9F       		.byte	0x9f
 4140 0528 3E020000 		.4byte	.LVL71-.Ltext0
 4141 052c 4A020000 		.4byte	.LVL72-.Ltext0
 4142 0530 0500     		.2byte	0x5
 4143 0532 77       		.byte	0x77
 4144 0533 00       		.sleb128 0
 4145 0534 33       		.byte	0x33
 4146 0535 25       		.byte	0x25
 4147 0536 9F       		.byte	0x9f
 4148 0537 4C020000 		.4byte	.LVL73-.Ltext0
 4149 053b 52020000 		.4byte	.LVL74-.Ltext0
 4150 053f 0800     		.2byte	0x8
 4151 0541 76       		.byte	0x76
 4152 0542 80808040 		.sleb128 -134217728
 4153 0546 33       		.byte	0x33
 4154 0547 25       		.byte	0x25
 4155 0548 9F       		.byte	0x9f
 4156 0549 52020000 		.4byte	.LVL74-.Ltext0
 4157 054d 5E020000 		.4byte	.LVL75-.Ltext0
 4158 0551 0500     		.2byte	0x5
 4159 0553 76       		.byte	0x76
 4160 0554 00       		.sleb128 0
 4161 0555 33       		.byte	0x33
 4162 0556 25       		.byte	0x25
 4163 0557 9F       		.byte	0x9f
 4164 0558 00000000 		.4byte	0
 4165 055c 00000000 		.4byte	0
 4166              	.LVUS19:
 4167 0560 01       		.uleb128 .LVU234
 4168 0561 00       		.uleb128 .LVU259
 4169              	.LLST19:
 4170 0562 30020000 		.4byte	.LVL69-.Ltext0
 4171 0566 92020000 		.4byte	.LVL82-.Ltext0
 4172 056a 0400     		.2byte	0x4
 4173 056c 40       		.byte	0x40
 4174 056d 47       		.byte	0x47
 4175 056e 24       		.byte	0x24
 4176 056f 9F       		.byte	0x9f
 4177 0570 00000000 		.4byte	0
 4178 0574 00000000 		.4byte	0
 4179              	.LLST30:
 4180 0578 6C030000 		.4byte	.LFB134-.Ltext0
 4181 057c 6E030000 		.4byte	.LCFI1-.Ltext0
 4182 0580 0200     		.2byte	0x2
 4183 0582 7D       		.byte	0x7d
 4184 0583 00       		.sleb128 0
 4185 0584 6E030000 		.4byte	.LCFI1-.Ltext0
 4186 0588 24040000 		.4byte	.LFE134-.Ltext0
 4187 058c 0200     		.2byte	0x2
 4188 058e 7D       		.byte	0x7d
ARM GAS  C:\Users\hoodc\AppData\Local\Temp\ccsNrQcU.s 			page 102


 4189 058f 08       		.sleb128 8
 4190 0590 00000000 		.4byte	0
 4191 0594 00000000 		.4byte	0
 4192              	.LVUS31:
 4193 0598 00       		.uleb128 0
 4194 0599 00       		.uleb128 .LVU391
 4195 059a 00       		.uleb128 .LVU391
 4196 059b 00       		.uleb128 .LVU393
 4197 059c 00       		.uleb128 .LVU393
 4198 059d 00       		.uleb128 .LVU395
 4199 059e 00       		.uleb128 .LVU395
 4200 059f 00       		.uleb128 .LVU408
 4201 05a0 00       		.uleb128 .LVU408
 4202 05a1 00       		.uleb128 .LVU409
 4203 05a2 00       		.uleb128 .LVU409
 4204 05a3 00       		.uleb128 .LVU410
 4205 05a4 00       		.uleb128 .LVU410
 4206 05a5 00       		.uleb128 .LVU411
 4207 05a6 00       		.uleb128 .LVU411
 4208 05a7 00       		.uleb128 0
 4209              	.LLST31:
 4210 05a8 6C030000 		.4byte	.LVL102-.Ltext0
 4211 05ac D0030000 		.4byte	.LVL104-.Ltext0
 4212 05b0 0100     		.2byte	0x1
 4213 05b2 50       		.byte	0x50
 4214 05b3 D0030000 		.4byte	.LVL104-.Ltext0
 4215 05b7 D7030000 		.4byte	.LVL105-1-.Ltext0
 4216 05bb 0100     		.2byte	0x1
 4217 05bd 53       		.byte	0x53
 4218 05be D7030000 		.4byte	.LVL105-1-.Ltext0
 4219 05c2 DC030000 		.4byte	.LVL106-.Ltext0
 4220 05c6 0400     		.2byte	0x4
 4221 05c8 F3       		.byte	0xf3
 4222 05c9 01       		.uleb128 0x1
 4223 05ca 50       		.byte	0x50
 4224 05cb 9F       		.byte	0x9f
 4225 05cc DC030000 		.4byte	.LVL106-.Ltext0
 4226 05d0 10040000 		.4byte	.LVL107-.Ltext0
 4227 05d4 0100     		.2byte	0x1
 4228 05d6 50       		.byte	0x50
 4229 05d7 10040000 		.4byte	.LVL107-.Ltext0
 4230 05db 13040000 		.4byte	.LVL108-1-.Ltext0
 4231 05df 0100     		.2byte	0x1
 4232 05e1 53       		.byte	0x53
 4233 05e2 13040000 		.4byte	.LVL108-1-.Ltext0
 4234 05e6 18040000 		.4byte	.LVL109-.Ltext0
 4235 05ea 0400     		.2byte	0x4
 4236 05ec F3       		.byte	0xf3
 4237 05ed 01       		.uleb128 0x1
 4238 05ee 50       		.byte	0x50
 4239 05ef 9F       		.byte	0x9f
 4240 05f0 18040000 		.4byte	.LVL109-.Ltext0
 4241 05f4 1A040000 		.4byte	.LVL110-.Ltext0
 4242 05f8 0100     		.2byte	0x1
 4243 05fa 50       		.byte	0x50
 4244 05fb 1A040000 		.4byte	.LVL110-.Ltext0
 4245 05ff 24040000 		.4byte	.LFE134-.Ltext0
ARM GAS  C:\Users\hoodc\AppData\Local\Temp\ccsNrQcU.s 			page 103


 4246 0603 0100     		.2byte	0x1
 4247 0605 53       		.byte	0x53
 4248 0606 00000000 		.4byte	0
 4249 060a 00000000 		.4byte	0
 4250              	.LLST33:
 4251 060e 84040000 		.4byte	.LFB133-.Ltext0
 4252 0612 88040000 		.4byte	.LCFI2-.Ltext0
 4253 0616 0200     		.2byte	0x2
 4254 0618 7D       		.byte	0x7d
 4255 0619 00       		.sleb128 0
 4256 061a 88040000 		.4byte	.LCFI2-.Ltext0
 4257 061e 88050000 		.4byte	.LFE133-.Ltext0
 4258 0622 0200     		.2byte	0x2
 4259 0624 7D       		.byte	0x7d
 4260 0625 20       		.sleb128 32
 4261 0626 00000000 		.4byte	0
 4262 062a 00000000 		.4byte	0
 4263              	.LVUS34:
 4264 062e 00       		.uleb128 0
 4265 062f 00       		.uleb128 .LVU445
 4266 0630 00       		.uleb128 .LVU445
 4267 0631 00       		.uleb128 .LVU506
 4268 0632 00       		.uleb128 .LVU506
 4269 0633 00       		.uleb128 0
 4270              	.LLST34:
 4271 0634 84040000 		.4byte	.LVL116-.Ltext0
 4272 0638 9E040000 		.4byte	.LVL117-.Ltext0
 4273 063c 0100     		.2byte	0x1
 4274 063e 50       		.byte	0x50
 4275 063f 9E040000 		.4byte	.LVL117-.Ltext0
 4276 0643 78050000 		.4byte	.LVL132-.Ltext0
 4277 0647 0100     		.2byte	0x1
 4278 0649 54       		.byte	0x54
 4279 064a 78050000 		.4byte	.LVL132-.Ltext0
 4280 064e 88050000 		.4byte	.LFE133-.Ltext0
 4281 0652 0100     		.2byte	0x1
 4282 0654 50       		.byte	0x50
 4283 0655 00000000 		.4byte	0
 4284 0659 00000000 		.4byte	0
 4285              	.LVUS35:
 4286 065d 00       		.uleb128 0
 4287 065e 00       		.uleb128 .LVU446
 4288 065f 00       		.uleb128 .LVU446
 4289 0660 00       		.uleb128 .LVU506
 4290 0661 00       		.uleb128 .LVU506
 4291 0662 00       		.uleb128 0
 4292              	.LLST35:
 4293 0663 84040000 		.4byte	.LVL116-.Ltext0
 4294 0667 A1040000 		.4byte	.LVL118-1-.Ltext0
 4295 066b 0100     		.2byte	0x1
 4296 066d 51       		.byte	0x51
 4297 066e A1040000 		.4byte	.LVL118-1-.Ltext0
 4298 0672 78050000 		.4byte	.LVL132-.Ltext0
 4299 0676 0100     		.2byte	0x1
 4300 0678 57       		.byte	0x57
 4301 0679 78050000 		.4byte	.LVL132-.Ltext0
 4302 067d 88050000 		.4byte	.LFE133-.Ltext0
ARM GAS  C:\Users\hoodc\AppData\Local\Temp\ccsNrQcU.s 			page 104


 4303 0681 0100     		.2byte	0x1
 4304 0683 51       		.byte	0x51
 4305 0684 00000000 		.4byte	0
 4306 0688 00000000 		.4byte	0
 4307              	.LVUS36:
 4308 068c 00       		.uleb128 .LVU446
 4309 068d 00       		.uleb128 .LVU466
 4310 068e 00       		.uleb128 .LVU466
 4311 068f 00       		.uleb128 .LVU474
 4312 0690 00       		.uleb128 .LVU474
 4313 0691 00       		.uleb128 .LVU479
 4314 0692 00       		.uleb128 .LVU479
 4315 0693 00       		.uleb128 .LVU482
 4316 0694 00       		.uleb128 .LVU482
 4317 0695 00       		.uleb128 .LVU493
 4318 0696 00       		.uleb128 .LVU496
 4319 0697 00       		.uleb128 .LVU497
 4320 0698 00       		.uleb128 .LVU497
 4321 0699 01       		.uleb128 .LVU500
 4322 069a 01       		.uleb128 .LVU500
 4323 069b 02       		.uleb128 .LVU505
 4324              	.LLST36:
 4325 069c A2040000 		.4byte	.LVL118-.Ltext0
 4326 06a0 E8040000 		.4byte	.LVL119-.Ltext0
 4327 06a4 0100     		.2byte	0x1
 4328 06a6 50       		.byte	0x50
 4329 06a7 E8040000 		.4byte	.LVL119-.Ltext0
 4330 06ab 04050000 		.4byte	.LVL121-.Ltext0
 4331 06af 0200     		.2byte	0x2
 4332 06b1 30       		.byte	0x30
 4333 06b2 9F       		.byte	0x9f
 4334 06b3 04050000 		.4byte	.LVL121-.Ltext0
 4335 06b7 12050000 		.4byte	.LVL122-.Ltext0
 4336 06bb 0100     		.2byte	0x1
 4337 06bd 50       		.byte	0x50
 4338 06be 12050000 		.4byte	.LVL122-.Ltext0
 4339 06c2 1E050000 		.4byte	.LVL123-.Ltext0
 4340 06c6 0200     		.2byte	0x2
 4341 06c8 30       		.byte	0x30
 4342 06c9 9F       		.byte	0x9f
 4343 06ca 1E050000 		.4byte	.LVL123-.Ltext0
 4344 06ce 4C050000 		.4byte	.LVL124-.Ltext0
 4345 06d2 0100     		.2byte	0x1
 4346 06d4 50       		.byte	0x50
 4347 06d5 5A050000 		.4byte	.LVL127-.Ltext0
 4348 06d9 66050000 		.4byte	.LVL128-.Ltext0
 4349 06dd 0100     		.2byte	0x1
 4350 06df 59       		.byte	0x59
 4351 06e0 66050000 		.4byte	.LVL128-.Ltext0
 4352 06e4 68050000 		.4byte	.LVL129-.Ltext0
 4353 06e8 0100     		.2byte	0x1
 4354 06ea 50       		.byte	0x50
 4355 06eb 68050000 		.4byte	.LVL129-.Ltext0
 4356 06ef 72050000 		.4byte	.LVL131-.Ltext0
 4357 06f3 0100     		.2byte	0x1
 4358 06f5 59       		.byte	0x59
 4359 06f6 00000000 		.4byte	0
ARM GAS  C:\Users\hoodc\AppData\Local\Temp\ccsNrQcU.s 			page 105


 4360 06fa 00000000 		.4byte	0
 4361              	.LVUS37:
 4362 06fe 00       		.uleb128 .LVU466
 4363 06ff 00       		.uleb128 .LVU482
 4364 0700 00       		.uleb128 .LVU497
 4365 0701 01       		.uleb128 .LVU500
 4366              	.LLST37:
 4367 0702 E8040000 		.4byte	.LVL119-.Ltext0
 4368 0706 1E050000 		.4byte	.LVL123-.Ltext0
 4369 070a 0100     		.2byte	0x1
 4370 070c 55       		.byte	0x55
 4371 070d 66050000 		.4byte	.LVL128-.Ltext0
 4372 0711 68050000 		.4byte	.LVL129-.Ltext0
 4373 0715 0100     		.2byte	0x1
 4374 0717 55       		.byte	0x55
 4375 0718 00000000 		.4byte	0
 4376 071c 00000000 		.4byte	0
 4377              		.section	.debug_aranges,"",%progbits
 4378 0000 1C000000 		.4byte	0x1c
 4379 0004 0200     		.2byte	0x2
 4380 0006 00000000 		.4byte	.Ldebug_info0
 4381 000a 04       		.byte	0x4
 4382 000b 00       		.byte	0
 4383 000c 0000     		.2byte	0
 4384 000e 0000     		.2byte	0
 4385 0010 00000000 		.4byte	.Ltext0
 4386 0014 88050000 		.4byte	.Letext0-.Ltext0
 4387 0018 00000000 		.4byte	0
 4388 001c 00000000 		.4byte	0
 4389              		.section	.debug_ranges,"",%progbits
 4390              	.Ldebug_ranges0:
 4391 0000 7A000000 		.4byte	.LBB10-.Ltext0
 4392 0004 B6000000 		.4byte	.LBE10-.Ltext0
 4393 0008 BE000000 		.4byte	.LBB13-.Ltext0
 4394 000c D6000000 		.4byte	.LBE13-.Ltext0
 4395 0010 00000000 		.4byte	0
 4396 0014 00000000 		.4byte	0
 4397 0018 D8000000 		.4byte	.LBB14-.Ltext0
 4398 001c E2000000 		.4byte	.LBE14-.Ltext0
 4399 0020 E6000000 		.4byte	.LBB17-.Ltext0
 4400 0024 0A010000 		.4byte	.LBE17-.Ltext0
 4401 0028 00000000 		.4byte	0
 4402 002c 00000000 		.4byte	0
 4403 0030 AE020000 		.4byte	.LBB30-.Ltext0
 4404 0034 C0020000 		.4byte	.LBE30-.Ltext0
 4405 0038 EE020000 		.4byte	.LBB35-.Ltext0
 4406 003c F4020000 		.4byte	.LBE35-.Ltext0
 4407 0040 00000000 		.4byte	0
 4408 0044 00000000 		.4byte	0
 4409              		.section	.debug_line,"",%progbits
 4410              	.Ldebug_line0:
 4411 0000 39090000 		.section	.debug_str,"MS",%progbits,1
 4411      03000102 
 4411      00000201 
 4411      FB0E0D00 
 4411      01010101 
 4412              	.LASF24:
ARM GAS  C:\Users\hoodc\AppData\Local\Temp\ccsNrQcU.s 			page 106


 4413 0000 48414C5F 		.ascii	"HAL_ERROR\000"
 4413      4552524F 
 4413      5200
 4414              	.LASF14:
 4415 000a 45434352 		.ascii	"ECCR\000"
 4415      00
 4416              	.LASF28:
 4417 000f 48414C5F 		.ascii	"HAL_UNLOCKED\000"
 4417      554E4C4F 
 4417      434B4544 
 4417      00
 4418              	.LASF52:
 4419 001c 464C4153 		.ascii	"FLASH_ProcedureTypeDef\000"
 4419      485F5072 
 4419      6F636564 
 4419      75726554 
 4419      79706544 
 4420              	.LASF26:
 4421 0033 48414C5F 		.ascii	"HAL_TIMEOUT\000"
 4421      54494D45 
 4421      4F555400 
 4422              	.LASF46:
 4423 003f 464C4153 		.ascii	"FLASH_OBProgramInitTypeDef\000"
 4423      485F4F42 
 4423      50726F67 
 4423      72616D49 
 4423      6E697454 
 4424              	.LASF33:
 4425 005a 50616765 		.ascii	"Page\000"
 4425      00
 4426              	.LASF2:
 4427 005f 73686F72 		.ascii	"short int\000"
 4427      7420696E 
 4427      7400
 4428              	.LASF96:
 4429 0069 474E5520 		.ascii	"GNU C17 10.2.1 20201103 (release) -mthumb -mapcs-fr"
 4429      43313720 
 4429      31302E32 
 4429      2E312032 
 4429      30323031 
 4430 009c 616D6520 		.ascii	"ame -mthumb-interwork -mcpu=cortex-m4 -mfloat-abi=s"
 4430      2D6D7468 
 4430      756D622D 
 4430      696E7465 
 4430      72776F72 
 4431 00cf 6F667420 		.ascii	"oft -march=armv7e-m -gdwarf-2 -O\000"
 4431      2D6D6172 
 4431      63683D61 
 4431      726D7637 
 4431      652D6D20 
 4432              	.LASF91:
 4433 00f0 48414C5F 		.ascii	"HAL_FLASHEx_Erase_IT\000"
 4433      464C4153 
 4433      4845785F 
 4433      45726173 
 4433      655F4954 
 4434              	.LASF16:
ARM GAS  C:\Users\hoodc\AppData\Local\Temp\ccsNrQcU.s 			page 107


 4435 0105 4F505452 		.ascii	"OPTR\000"
 4435      00
 4436              	.LASF54:
 4437 010a 464C4153 		.ascii	"FLASH_CACHE_ICACHE_ENABLED\000"
 4437      485F4341 
 4437      4348455F 
 4437      49434143 
 4437      48455F45 
 4438              	.LASF67:
 4439 0125 62616E6B 		.ascii	"bank1_addr\000"
 4439      315F6164 
 4439      647200
 4440              	.LASF20:
 4441 0130 57525031 		.ascii	"WRP1BR\000"
 4441      425200
 4442              	.LASF73:
 4443 0137 464C4153 		.ascii	"FLASH_OB_GetWRP\000"
 4443      485F4F42 
 4443      5F476574 
 4443      57525000 
 4444              	.LASF63:
 4445 0147 4E625061 		.ascii	"NbPagesToErase\000"
 4445      67657354 
 4445      6F457261 
 4445      736500
 4446              	.LASF11:
 4447 0156 50444B45 		.ascii	"PDKEYR\000"
 4447      595200
 4448              	.LASF9:
 4449 015d 5F5F7569 		.ascii	"__uint32_t\000"
 4449      6E743332 
 4449      5F7400
 4450              	.LASF61:
 4451 0168 41646472 		.ascii	"Address\000"
 4451      65737300 
 4452              	.LASF77:
 4453 0170 464C4153 		.ascii	"FLASH_OB_UserConfig\000"
 4453      485F4F42 
 4453      5F557365 
 4453      72436F6E 
 4453      66696700 
 4454              	.LASF75:
 4455 0184 464C4153 		.ascii	"FLASH_OB_PCROPConfig\000"
 4455      485F4F42 
 4455      5F504352 
 4455      4F50436F 
 4455      6E666967 
 4456              	.LASF23:
 4457 0199 48414C5F 		.ascii	"HAL_OK\000"
 4457      4F4B00
 4458              	.LASF36:
 4459 01a0 4F707469 		.ascii	"OptionType\000"
 4459      6F6E5479 
 4459      706500
 4460              	.LASF37:
 4461 01ab 57525041 		.ascii	"WRPArea\000"
 4461      72656100 
ARM GAS  C:\Users\hoodc\AppData\Local\Temp\ccsNrQcU.s 			page 108


 4462              	.LASF50:
 4463 01b3 464C4153 		.ascii	"FLASH_PROC_PROGRAM\000"
 4463      485F5052 
 4463      4F435F50 
 4463      524F4752 
 4463      414D00
 4464              	.LASF25:
 4465 01c6 48414C5F 		.ascii	"HAL_BUSY\000"
 4465      42555359 
 4465      00
 4466              	.LASF88:
 4467 01cf 48414C5F 		.ascii	"HAL_FLASHEx_OBGetConfig\000"
 4467      464C4153 
 4467      4845785F 
 4467      4F424765 
 4467      74436F6E 
 4468              	.LASF56:
 4469 01e7 464C4153 		.ascii	"FLASH_CACHE_ICACHE_DCACHE_ENABLED\000"
 4469      485F4341 
 4469      4348455F 
 4469      49434143 
 4469      48455F44 
 4470              	.LASF13:
 4471 0209 4F50544B 		.ascii	"OPTKEYR\000"
 4471      45595200 
 4472              	.LASF6:
 4473 0211 6C6F6E67 		.ascii	"long long int\000"
 4473      206C6F6E 
 4473      6720696E 
 4473      7400
 4474              	.LASF60:
 4475 021f 50726F63 		.ascii	"ProcedureOnGoing\000"
 4475      65647572 
 4475      654F6E47 
 4475      6F696E67 
 4475      00
 4476              	.LASF62:
 4477 0230 42616E6B 		.ascii	"Bank\000"
 4477      00
 4478              	.LASF57:
 4479 0235 464C4153 		.ascii	"FLASH_CacheTypeDef\000"
 4479      485F4361 
 4479      63686554 
 4479      79706544 
 4479      656600
 4480              	.LASF4:
 4481 0248 6C6F6E67 		.ascii	"long int\000"
 4481      20696E74 
 4481      00
 4482              	.LASF48:
 4483 0251 464C4153 		.ascii	"FLASH_PROC_PAGE_ERASE\000"
 4483      485F5052 
 4483      4F435F50 
 4483      4147455F 
 4483      45524153 
 4484              	.LASF97:
 4485 0267 2E2E2F44 		.ascii	"../Drivers/STM32L4xx_HAL_Driver/Src/stm32l4xx_hal_f"
ARM GAS  C:\Users\hoodc\AppData\Local\Temp\ccsNrQcU.s 			page 109


 4485      72697665 
 4485      72732F53 
 4485      544D3332 
 4485      4C347878 
 4486 029a 6C617368 		.ascii	"lash_ex.c\000"
 4486      5F65782E 
 4486      6300
 4487              	.LASF58:
 4488 02a4 4C6F636B 		.ascii	"Lock\000"
 4488      00
 4489              	.LASF44:
 4490 02a9 5043524F 		.ascii	"PCROPStartAddr\000"
 4490      50537461 
 4490      72744164 
 4490      647200
 4491              	.LASF31:
 4492 02b8 54797065 		.ascii	"TypeErase\000"
 4492      45726173 
 4492      6500
 4493              	.LASF27:
 4494 02c2 48414C5F 		.ascii	"HAL_StatusTypeDef\000"
 4494      53746174 
 4494      75735479 
 4494      70654465 
 4494      6600
 4495              	.LASF43:
 4496 02d4 5043524F 		.ascii	"PCROPConfig\000"
 4496      50436F6E 
 4496      66696700 
 4497              	.LASF65:
 4498 02e0 464C4153 		.ascii	"FLASH_ProcessTypeDef\000"
 4498      485F5072 
 4498      6F636573 
 4498      73547970 
 4498      65446566 
 4499              	.LASF12:
 4500 02f5 4B455952 		.ascii	"KEYR\000"
 4500      00
 4501              	.LASF69:
 4502 02fa 464C4153 		.ascii	"FLASH_OB_GetUser\000"
 4502      485F4F42 
 4502      5F476574 
 4502      55736572 
 4502      00
 4503              	.LASF22:
 4504 030b 6C6F6E67 		.ascii	"long double\000"
 4504      20646F75 
 4504      626C6500 
 4505              	.LASF71:
 4506 0317 7264705F 		.ascii	"rdp_level\000"
 4506      6C657665 
 4506      6C00
 4507              	.LASF1:
 4508 0321 756E7369 		.ascii	"unsigned char\000"
 4508      676E6564 
 4508      20636861 
 4508      7200
ARM GAS  C:\Users\hoodc\AppData\Local\Temp\ccsNrQcU.s 			page 110


 4509              	.LASF38:
 4510 032f 57525053 		.ascii	"WRPStartOffset\000"
 4510      74617274 
 4510      4F666673 
 4510      657400
 4511              	.LASF55:
 4512 033e 464C4153 		.ascii	"FLASH_CACHE_DCACHE_ENABLED\000"
 4512      485F4341 
 4512      4348455F 
 4512      44434143 
 4512      48455F45 
 4513              	.LASF92:
 4514 0359 70457261 		.ascii	"pEraseInit\000"
 4514      7365496E 
 4514      697400
 4515              	.LASF0:
 4516 0364 7369676E 		.ascii	"signed char\000"
 4516      65642063 
 4516      68617200 
 4517              	.LASF7:
 4518 0370 6C6F6E67 		.ascii	"long long unsigned int\000"
 4518      206C6F6E 
 4518      6720756E 
 4518      7369676E 
 4518      65642069 
 4519              	.LASF72:
 4520 0387 464C4153 		.ascii	"FLASH_OB_GetPCROP\000"
 4520      485F4F42 
 4520      5F476574 
 4520      5043524F 
 4520      5000
 4521              	.LASF10:
 4522 0399 75696E74 		.ascii	"uint32_t\000"
 4522      33325F74 
 4522      00
 4523              	.LASF8:
 4524 03a2 756E7369 		.ascii	"unsigned int\000"
 4524      676E6564 
 4524      20696E74 
 4524      00
 4525              	.LASF74:
 4526 03af 57524450 		.ascii	"WRDPEndOffset\000"
 4526      456E644F 
 4526      66667365 
 4526      7400
 4527              	.LASF98:
 4528 03bd 433A5C55 		.ascii	"C:\\Users\\hoodc\\Documents\\Github\\indago-embedde"
 4528      73657273 
 4528      5C686F6F 
 4528      64635C44 
 4528      6F63756D 
 4529 03eb 642D6465 		.ascii	"d-dev\\Indago-Smart-Board-v4\\MDK-ARM\000"
 4529      765C496E 
 4529      6461676F 
 4529      2D536D61 
 4529      72742D42 
 4530              	.LASF89:
ARM GAS  C:\Users\hoodc\AppData\Local\Temp\ccsNrQcU.s 			page 111


 4531 040f 704F4249 		.ascii	"pOBInit\000"
 4531      6E697400 
 4532              	.LASF45:
 4533 0417 5043524F 		.ascii	"PCROPEndAddr\000"
 4533      50456E64 
 4533      41646472 
 4533      00
 4534              	.LASF29:
 4535 0424 48414C5F 		.ascii	"HAL_LOCKED\000"
 4535      4C4F434B 
 4535      454400
 4536              	.LASF85:
 4537 042f 63616368 		.ascii	"cache\000"
 4537      6500
 4538              	.LASF3:
 4539 0435 73686F72 		.ascii	"short unsigned int\000"
 4539      7420756E 
 4539      7369676E 
 4539      65642069 
 4539      6E7400
 4540              	.LASF76:
 4541 0448 73746174 		.ascii	"status\000"
 4541      757300
 4542              	.LASF32:
 4543 044f 42616E6B 		.ascii	"Banks\000"
 4543      7300
 4544              	.LASF41:
 4545 0455 55534552 		.ascii	"USERType\000"
 4545      54797065 
 4545      00
 4546              	.LASF78:
 4547 045e 55736572 		.ascii	"UserType\000"
 4547      54797065 
 4547      00
 4548              	.LASF94:
 4549 0467 50616765 		.ascii	"PageError\000"
 4549      4572726F 
 4549      7200
 4550              	.LASF42:
 4551 0471 55534552 		.ascii	"USERConfig\000"
 4551      436F6E66 
 4551      696700
 4552              	.LASF39:
 4553 047c 57525045 		.ascii	"WRPEndOffset\000"
 4553      6E644F66 
 4553      66736574 
 4553      00
 4554              	.LASF86:
 4555 0489 464C4153 		.ascii	"FLASH_FlushCaches\000"
 4555      485F466C 
 4555      75736843 
 4555      61636865 
 4555      7300
 4556              	.LASF17:
 4557 049b 5043524F 		.ascii	"PCROP1SR\000"
 4557      50315352 
 4557      00
ARM GAS  C:\Users\hoodc\AppData\Local\Temp\ccsNrQcU.s 			page 112


 4558              	.LASF19:
 4559 04a4 57525031 		.ascii	"WRP1AR\000"
 4559      415200
 4560              	.LASF15:
 4561 04ab 52455345 		.ascii	"RESERVED1\000"
 4561      52564544 
 4561      3100
 4562              	.LASF5:
 4563 04b5 6C6F6E67 		.ascii	"long unsigned int\000"
 4563      20756E73 
 4563      69676E65 
 4563      6420696E 
 4563      7400
 4564              	.LASF95:
 4565 04c7 70616765 		.ascii	"page_index\000"
 4565      5F696E64 
 4565      657800
 4566              	.LASF40:
 4567 04d2 5244504C 		.ascii	"RDPLevel\000"
 4567      6576656C 
 4567      00
 4568              	.LASF68:
 4569 04db 75736572 		.ascii	"user_config\000"
 4569      5F636F6E 
 4569      66696700 
 4570              	.LASF99:
 4571 04e7 464C4153 		.ascii	"FLASH_MassErase\000"
 4571      485F4D61 
 4571      73734572 
 4571      61736500 
 4572              	.LASF90:
 4573 04f7 48414C5F 		.ascii	"HAL_FLASHEx_OBProgram\000"
 4573      464C4153 
 4573      4845785F 
 4573      4F425072 
 4573      6F677261 
 4574              	.LASF81:
 4575 050d 6F707472 		.ascii	"optr_reg_mask\000"
 4575      5F726567 
 4575      5F6D6173 
 4575      6B00
 4576              	.LASF66:
 4577 051b 7265675F 		.ascii	"reg_value\000"
 4577      76616C75 
 4577      6500
 4578              	.LASF53:
 4579 0525 464C4153 		.ascii	"FLASH_CACHE_DISABLED\000"
 4579      485F4341 
 4579      4348455F 
 4579      44495341 
 4579      424C4544 
 4580              	.LASF83:
 4581 053a 464C4153 		.ascii	"FLASH_OB_WRPConfig\000"
 4581      485F4F42 
 4581      5F575250 
 4581      436F6E66 
 4581      696700
ARM GAS  C:\Users\hoodc\AppData\Local\Temp\ccsNrQcU.s 			page 113


 4582              	.LASF82:
 4583 054d 464C4153 		.ascii	"FLASH_OB_RDPConfig\000"
 4583      485F4F42 
 4583      5F524450 
 4583      436F6E66 
 4583      696700
 4584              	.LASF80:
 4585 0560 6F707472 		.ascii	"optr_reg_val\000"
 4585      5F726567 
 4585      5F76616C 
 4585      00
 4586              	.LASF34:
 4587 056d 4E625061 		.ascii	"NbPages\000"
 4587      67657300 
 4588              	.LASF64:
 4589 0575 43616368 		.ascii	"CacheToReactivate\000"
 4589      65546F52 
 4589      65616374 
 4589      69766174 
 4589      6500
 4590              	.LASF47:
 4591 0587 464C4153 		.ascii	"FLASH_PROC_NONE\000"
 4591      485F5052 
 4591      4F435F4E 
 4591      4F4E4500 
 4592              	.LASF93:
 4593 0597 48414C5F 		.ascii	"HAL_FLASHEx_Erase\000"
 4593      464C4153 
 4593      4845785F 
 4593      45726173 
 4593      6500
 4594              	.LASF21:
 4595 05a9 464C4153 		.ascii	"FLASH_TypeDef\000"
 4595      485F5479 
 4595      70654465 
 4595      6600
 4596              	.LASF100:
 4597 05b7 464C4153 		.ascii	"FLASH_WaitForLastOperation\000"
 4597      485F5761 
 4597      6974466F 
 4597      724C6173 
 4597      744F7065 
 4598              	.LASF51:
 4599 05d2 464C4153 		.ascii	"FLASH_PROC_PROGRAM_LAST\000"
 4599      485F5052 
 4599      4F435F50 
 4599      524F4752 
 4599      414D5F4C 
 4600              	.LASF79:
 4601 05ea 55736572 		.ascii	"UserConfig\000"
 4601      436F6E66 
 4601      696700
 4602              	.LASF59:
 4603 05f5 4572726F 		.ascii	"ErrorCode\000"
 4603      72436F64 
 4603      6500
 4604              	.LASF35:
ARM GAS  C:\Users\hoodc\AppData\Local\Temp\ccsNrQcU.s 			page 114


 4605 05ff 464C4153 		.ascii	"FLASH_EraseInitTypeDef\000"
 4605      485F4572 
 4605      61736549 
 4605      6E697454 
 4605      79706544 
 4606              	.LASF49:
 4607 0616 464C4153 		.ascii	"FLASH_PROC_MASS_ERASE\000"
 4607      485F5052 
 4607      4F435F4D 
 4607      4153535F 
 4607      45524153 
 4608              	.LASF30:
 4609 062c 48414C5F 		.ascii	"HAL_LockTypeDef\000"
 4609      4C6F636B 
 4609      54797065 
 4609      44656600 
 4610              	.LASF18:
 4611 063c 5043524F 		.ascii	"PCROP1ER\000"
 4611      50314552 
 4611      00
 4612              	.LASF87:
 4613 0645 464C4153 		.ascii	"FLASH_PageErase\000"
 4613      485F5061 
 4613      67654572 
 4613      61736500 
 4614              	.LASF84:
 4615 0655 70466C61 		.ascii	"pFlash\000"
 4615      736800
 4616              	.LASF70:
 4617 065c 464C4153 		.ascii	"FLASH_OB_GetRDP\000"
 4617      485F4F42 
 4617      5F476574 
 4617      52445000 
 4618              		.ident	"GCC: (GNU Arm Embedded Toolchain 10-2020-q4-major) 10.2.1 20201103 (release)"
ARM GAS  C:\Users\hoodc\AppData\Local\Temp\ccsNrQcU.s 			page 115


DEFINED SYMBOLS
                            *ABS*:00000000 stm32l4xx_hal_flash_ex.c
C:\Users\hoodc\AppData\Local\Temp\ccsNrQcU.s:15     .text:00000000 $t
C:\Users\hoodc\AppData\Local\Temp\ccsNrQcU.s:22     .text:00000000 FLASH_MassErase
C:\Users\hoodc\AppData\Local\Temp\ccsNrQcU.s:52     .text:0000001c $d
C:\Users\hoodc\AppData\Local\Temp\ccsNrQcU.s:56     .text:00000020 $t
C:\Users\hoodc\AppData\Local\Temp\ccsNrQcU.s:63     .text:00000020 HAL_FLASHEx_OBProgram
C:\Users\hoodc\AppData\Local\Temp\ccsNrQcU.s:699    .text:0000029c $d
C:\Users\hoodc\AppData\Local\Temp\ccsNrQcU.s:704    .text:000002a4 $t
C:\Users\hoodc\AppData\Local\Temp\ccsNrQcU.s:711    .text:000002a4 HAL_FLASHEx_OBGetConfig
C:\Users\hoodc\AppData\Local\Temp\ccsNrQcU.s:914    .text:0000033c $d
C:\Users\hoodc\AppData\Local\Temp\ccsNrQcU.s:919    .text:00000344 $t
C:\Users\hoodc\AppData\Local\Temp\ccsNrQcU.s:926    .text:00000344 FLASH_PageErase
C:\Users\hoodc\AppData\Local\Temp\ccsNrQcU.s:959    .text:00000368 $d
C:\Users\hoodc\AppData\Local\Temp\ccsNrQcU.s:963    .text:0000036c $t
C:\Users\hoodc\AppData\Local\Temp\ccsNrQcU.s:970    .text:0000036c HAL_FLASHEx_Erase_IT
C:\Users\hoodc\AppData\Local\Temp\ccsNrQcU.s:1135   .text:0000041c $d
C:\Users\hoodc\AppData\Local\Temp\ccsNrQcU.s:1140   .text:00000424 $t
C:\Users\hoodc\AppData\Local\Temp\ccsNrQcU.s:1147   .text:00000424 FLASH_FlushCaches
C:\Users\hoodc\AppData\Local\Temp\ccsNrQcU.s:1223   .text:0000047c $d
C:\Users\hoodc\AppData\Local\Temp\ccsNrQcU.s:1228   .text:00000484 $t
C:\Users\hoodc\AppData\Local\Temp\ccsNrQcU.s:1235   .text:00000484 HAL_FLASHEx_Erase
C:\Users\hoodc\AppData\Local\Temp\ccsNrQcU.s:1458   .text:00000580 $d

UNDEFINED SYMBOLS
FLASH_WaitForLastOperation
pFlash
