ARM GAS  C:\Users\hoodc\AppData\Local\Temp\cc4eu5v8.s 			page 1


   1              		.cpu cortex-m4
   2              		.eabi_attribute 20, 1
   3              		.eabi_attribute 21, 1
   4              		.eabi_attribute 23, 3
   5              		.eabi_attribute 24, 1
   6              		.eabi_attribute 25, 1
   7              		.eabi_attribute 26, 1
   8              		.eabi_attribute 30, 1
   9              		.eabi_attribute 34, 1
  10              		.eabi_attribute 18, 4
  11              		.file	"stm32l4xx_hal_dma.c"
  12              		.text
  13              	.Ltext0:
  14              		.cfi_sections	.debug_frame
  15              		.align	1
  16              		.global	HAL_DMA_Init
  17              		.arch armv7e-m
  18              		.syntax unified
  19              		.thumb
  20              		.thumb_func
  21              		.fpu softvfp
  22              		.type	HAL_DMA_Init, %function
  23              	HAL_DMA_Init:
  24              	.LVL0:
  25              	.LFB133:
  26              		.file 1 "../Drivers/STM32L4xx_HAL_Driver/Src/stm32l4xx_hal_dma.c"
   1:../Drivers/STM32L4xx_HAL_Driver/Src/stm32l4xx_hal_dma.c **** /**
   2:../Drivers/STM32L4xx_HAL_Driver/Src/stm32l4xx_hal_dma.c ****   ******************************************************************************
   3:../Drivers/STM32L4xx_HAL_Driver/Src/stm32l4xx_hal_dma.c ****   * @file    stm32l4xx_hal_dma.c
   4:../Drivers/STM32L4xx_HAL_Driver/Src/stm32l4xx_hal_dma.c ****   * @author  MCD Application Team
   5:../Drivers/STM32L4xx_HAL_Driver/Src/stm32l4xx_hal_dma.c ****   * @brief   DMA HAL module driver.
   6:../Drivers/STM32L4xx_HAL_Driver/Src/stm32l4xx_hal_dma.c ****   *          This file provides firmware functions to manage the following
   7:../Drivers/STM32L4xx_HAL_Driver/Src/stm32l4xx_hal_dma.c ****   *          functionalities of the Direct Memory Access (DMA) peripheral:
   8:../Drivers/STM32L4xx_HAL_Driver/Src/stm32l4xx_hal_dma.c ****   *           + Initialization and de-initialization functions
   9:../Drivers/STM32L4xx_HAL_Driver/Src/stm32l4xx_hal_dma.c ****   *           + IO operation functions
  10:../Drivers/STM32L4xx_HAL_Driver/Src/stm32l4xx_hal_dma.c ****   *           + Peripheral State and errors functions
  11:../Drivers/STM32L4xx_HAL_Driver/Src/stm32l4xx_hal_dma.c ****   @verbatim
  12:../Drivers/STM32L4xx_HAL_Driver/Src/stm32l4xx_hal_dma.c ****   ==============================================================================
  13:../Drivers/STM32L4xx_HAL_Driver/Src/stm32l4xx_hal_dma.c ****                         ##### How to use this driver #####
  14:../Drivers/STM32L4xx_HAL_Driver/Src/stm32l4xx_hal_dma.c ****   ==============================================================================
  15:../Drivers/STM32L4xx_HAL_Driver/Src/stm32l4xx_hal_dma.c ****   [..]
  16:../Drivers/STM32L4xx_HAL_Driver/Src/stm32l4xx_hal_dma.c ****    (#) Enable and configure the peripheral to be connected to the DMA Channel
  17:../Drivers/STM32L4xx_HAL_Driver/Src/stm32l4xx_hal_dma.c ****        (except for internal SRAM / FLASH memories: no initialization is
  18:../Drivers/STM32L4xx_HAL_Driver/Src/stm32l4xx_hal_dma.c ****        necessary). Please refer to the Reference manual for connection between peripherals
  19:../Drivers/STM32L4xx_HAL_Driver/Src/stm32l4xx_hal_dma.c ****        and DMA requests.
  20:../Drivers/STM32L4xx_HAL_Driver/Src/stm32l4xx_hal_dma.c **** 
  21:../Drivers/STM32L4xx_HAL_Driver/Src/stm32l4xx_hal_dma.c ****    (#) For a given Channel, program the required configuration through the following parameters:
  22:../Drivers/STM32L4xx_HAL_Driver/Src/stm32l4xx_hal_dma.c ****        Channel request, Transfer Direction, Source and Destination data formats,
  23:../Drivers/STM32L4xx_HAL_Driver/Src/stm32l4xx_hal_dma.c ****        Circular or Normal mode, Channel Priority level, Source and Destination Increment mode
  24:../Drivers/STM32L4xx_HAL_Driver/Src/stm32l4xx_hal_dma.c ****        using HAL_DMA_Init() function.
  25:../Drivers/STM32L4xx_HAL_Driver/Src/stm32l4xx_hal_dma.c **** 
  26:../Drivers/STM32L4xx_HAL_Driver/Src/stm32l4xx_hal_dma.c ****        Prior to HAL_DMA_Init the peripheral clock shall be enabled for both DMA & DMAMUX
  27:../Drivers/STM32L4xx_HAL_Driver/Src/stm32l4xx_hal_dma.c ****        thanks to:
  28:../Drivers/STM32L4xx_HAL_Driver/Src/stm32l4xx_hal_dma.c ****       (##) DMA1 or DMA2: __HAL_RCC_DMA1_CLK_ENABLE() or  __HAL_RCC_DMA2_CLK_ENABLE() ;
  29:../Drivers/STM32L4xx_HAL_Driver/Src/stm32l4xx_hal_dma.c ****       (##) DMAMUX1:      __HAL_RCC_DMAMUX1_CLK_ENABLE();
  30:../Drivers/STM32L4xx_HAL_Driver/Src/stm32l4xx_hal_dma.c **** 
  31:../Drivers/STM32L4xx_HAL_Driver/Src/stm32l4xx_hal_dma.c ****    (#) Use HAL_DMA_GetState() function to return the DMA state and HAL_DMA_GetError() in case of er
ARM GAS  C:\Users\hoodc\AppData\Local\Temp\cc4eu5v8.s 			page 2


  32:../Drivers/STM32L4xx_HAL_Driver/Src/stm32l4xx_hal_dma.c ****        detection.
  33:../Drivers/STM32L4xx_HAL_Driver/Src/stm32l4xx_hal_dma.c **** 
  34:../Drivers/STM32L4xx_HAL_Driver/Src/stm32l4xx_hal_dma.c ****    (#) Use HAL_DMA_Abort() function to abort the current transfer
  35:../Drivers/STM32L4xx_HAL_Driver/Src/stm32l4xx_hal_dma.c **** 
  36:../Drivers/STM32L4xx_HAL_Driver/Src/stm32l4xx_hal_dma.c ****      -@-   In Memory-to-Memory transfer mode, Circular mode is not allowed.
  37:../Drivers/STM32L4xx_HAL_Driver/Src/stm32l4xx_hal_dma.c **** 
  38:../Drivers/STM32L4xx_HAL_Driver/Src/stm32l4xx_hal_dma.c ****      *** Polling mode IO operation ***
  39:../Drivers/STM32L4xx_HAL_Driver/Src/stm32l4xx_hal_dma.c ****      =================================
  40:../Drivers/STM32L4xx_HAL_Driver/Src/stm32l4xx_hal_dma.c ****      [..]
  41:../Drivers/STM32L4xx_HAL_Driver/Src/stm32l4xx_hal_dma.c ****        (+) Use HAL_DMA_Start() to start DMA transfer after the configuration of Source
  42:../Drivers/STM32L4xx_HAL_Driver/Src/stm32l4xx_hal_dma.c ****            address and destination address and the Length of data to be transferred
  43:../Drivers/STM32L4xx_HAL_Driver/Src/stm32l4xx_hal_dma.c ****        (+) Use HAL_DMA_PollForTransfer() to poll for the end of current transfer, in this
  44:../Drivers/STM32L4xx_HAL_Driver/Src/stm32l4xx_hal_dma.c ****            case a fixed Timeout can be configured by User depending from his application.
  45:../Drivers/STM32L4xx_HAL_Driver/Src/stm32l4xx_hal_dma.c **** 
  46:../Drivers/STM32L4xx_HAL_Driver/Src/stm32l4xx_hal_dma.c ****      *** Interrupt mode IO operation ***
  47:../Drivers/STM32L4xx_HAL_Driver/Src/stm32l4xx_hal_dma.c ****      ===================================
  48:../Drivers/STM32L4xx_HAL_Driver/Src/stm32l4xx_hal_dma.c ****      [..]
  49:../Drivers/STM32L4xx_HAL_Driver/Src/stm32l4xx_hal_dma.c ****        (+) Configure the DMA interrupt priority using HAL_NVIC_SetPriority()
  50:../Drivers/STM32L4xx_HAL_Driver/Src/stm32l4xx_hal_dma.c ****        (+) Enable the DMA IRQ handler using HAL_NVIC_EnableIRQ()
  51:../Drivers/STM32L4xx_HAL_Driver/Src/stm32l4xx_hal_dma.c ****        (+) Use HAL_DMA_Start_IT() to start DMA transfer after the configuration of
  52:../Drivers/STM32L4xx_HAL_Driver/Src/stm32l4xx_hal_dma.c ****            Source address and destination address and the Length of data to be transferred.
  53:../Drivers/STM32L4xx_HAL_Driver/Src/stm32l4xx_hal_dma.c ****            In this case the DMA interrupt is configured
  54:../Drivers/STM32L4xx_HAL_Driver/Src/stm32l4xx_hal_dma.c ****        (+) Use HAL_DMA_IRQHandler() called under DMA_IRQHandler() Interrupt subroutine
  55:../Drivers/STM32L4xx_HAL_Driver/Src/stm32l4xx_hal_dma.c ****        (+) At the end of data transfer HAL_DMA_IRQHandler() function is executed and user can
  56:../Drivers/STM32L4xx_HAL_Driver/Src/stm32l4xx_hal_dma.c ****               add his own function to register callbacks with HAL_DMA_RegisterCallback().
  57:../Drivers/STM32L4xx_HAL_Driver/Src/stm32l4xx_hal_dma.c **** 
  58:../Drivers/STM32L4xx_HAL_Driver/Src/stm32l4xx_hal_dma.c ****      *** DMA HAL driver macros list ***
  59:../Drivers/STM32L4xx_HAL_Driver/Src/stm32l4xx_hal_dma.c ****      =============================================
  60:../Drivers/STM32L4xx_HAL_Driver/Src/stm32l4xx_hal_dma.c ****      [..]
  61:../Drivers/STM32L4xx_HAL_Driver/Src/stm32l4xx_hal_dma.c ****        Below the list of macros in DMA HAL driver.
  62:../Drivers/STM32L4xx_HAL_Driver/Src/stm32l4xx_hal_dma.c **** 
  63:../Drivers/STM32L4xx_HAL_Driver/Src/stm32l4xx_hal_dma.c ****        (+) __HAL_DMA_ENABLE: Enable the specified DMA Channel.
  64:../Drivers/STM32L4xx_HAL_Driver/Src/stm32l4xx_hal_dma.c ****        (+) __HAL_DMA_DISABLE: Disable the specified DMA Channel.
  65:../Drivers/STM32L4xx_HAL_Driver/Src/stm32l4xx_hal_dma.c ****        (+) __HAL_DMA_GET_FLAG: Get the DMA Channel pending flags.
  66:../Drivers/STM32L4xx_HAL_Driver/Src/stm32l4xx_hal_dma.c ****        (+) __HAL_DMA_CLEAR_FLAG: Clear the DMA Channel pending flags.
  67:../Drivers/STM32L4xx_HAL_Driver/Src/stm32l4xx_hal_dma.c ****        (+) __HAL_DMA_ENABLE_IT: Enable the specified DMA Channel interrupts.
  68:../Drivers/STM32L4xx_HAL_Driver/Src/stm32l4xx_hal_dma.c ****        (+) __HAL_DMA_DISABLE_IT: Disable the specified DMA Channel interrupts.
  69:../Drivers/STM32L4xx_HAL_Driver/Src/stm32l4xx_hal_dma.c ****        (+) __HAL_DMA_GET_IT_SOURCE: Check whether the specified DMA Channel interrupt is enabled or
  70:../Drivers/STM32L4xx_HAL_Driver/Src/stm32l4xx_hal_dma.c **** 
  71:../Drivers/STM32L4xx_HAL_Driver/Src/stm32l4xx_hal_dma.c ****      [..]
  72:../Drivers/STM32L4xx_HAL_Driver/Src/stm32l4xx_hal_dma.c ****       (@) You can refer to the DMA HAL driver header file for more useful macros
  73:../Drivers/STM32L4xx_HAL_Driver/Src/stm32l4xx_hal_dma.c **** 
  74:../Drivers/STM32L4xx_HAL_Driver/Src/stm32l4xx_hal_dma.c ****   @endverbatim
  75:../Drivers/STM32L4xx_HAL_Driver/Src/stm32l4xx_hal_dma.c ****   ******************************************************************************
  76:../Drivers/STM32L4xx_HAL_Driver/Src/stm32l4xx_hal_dma.c ****   * @attention
  77:../Drivers/STM32L4xx_HAL_Driver/Src/stm32l4xx_hal_dma.c ****   *
  78:../Drivers/STM32L4xx_HAL_Driver/Src/stm32l4xx_hal_dma.c ****   * <h2><center>&copy; Copyright (c) 2017 STMicroelectronics.
  79:../Drivers/STM32L4xx_HAL_Driver/Src/stm32l4xx_hal_dma.c ****   * All rights reserved.</center></h2>
  80:../Drivers/STM32L4xx_HAL_Driver/Src/stm32l4xx_hal_dma.c ****   *
  81:../Drivers/STM32L4xx_HAL_Driver/Src/stm32l4xx_hal_dma.c ****   * This software component is licensed by ST under BSD 3-Clause license,
  82:../Drivers/STM32L4xx_HAL_Driver/Src/stm32l4xx_hal_dma.c ****   * the "License"; You may not use this file except in compliance with the
  83:../Drivers/STM32L4xx_HAL_Driver/Src/stm32l4xx_hal_dma.c ****   * License. You may obtain a copy of the License at:
  84:../Drivers/STM32L4xx_HAL_Driver/Src/stm32l4xx_hal_dma.c ****   *                        opensource.org/licenses/BSD-3-Clause
  85:../Drivers/STM32L4xx_HAL_Driver/Src/stm32l4xx_hal_dma.c ****   *
  86:../Drivers/STM32L4xx_HAL_Driver/Src/stm32l4xx_hal_dma.c ****   ******************************************************************************
  87:../Drivers/STM32L4xx_HAL_Driver/Src/stm32l4xx_hal_dma.c ****   */
  88:../Drivers/STM32L4xx_HAL_Driver/Src/stm32l4xx_hal_dma.c **** 
ARM GAS  C:\Users\hoodc\AppData\Local\Temp\cc4eu5v8.s 			page 3


  89:../Drivers/STM32L4xx_HAL_Driver/Src/stm32l4xx_hal_dma.c **** /* Includes ------------------------------------------------------------------*/
  90:../Drivers/STM32L4xx_HAL_Driver/Src/stm32l4xx_hal_dma.c **** #include "stm32l4xx_hal.h"
  91:../Drivers/STM32L4xx_HAL_Driver/Src/stm32l4xx_hal_dma.c **** 
  92:../Drivers/STM32L4xx_HAL_Driver/Src/stm32l4xx_hal_dma.c **** /** @addtogroup STM32L4xx_HAL_Driver
  93:../Drivers/STM32L4xx_HAL_Driver/Src/stm32l4xx_hal_dma.c ****   * @{
  94:../Drivers/STM32L4xx_HAL_Driver/Src/stm32l4xx_hal_dma.c ****   */
  95:../Drivers/STM32L4xx_HAL_Driver/Src/stm32l4xx_hal_dma.c **** 
  96:../Drivers/STM32L4xx_HAL_Driver/Src/stm32l4xx_hal_dma.c **** /** @defgroup DMA DMA
  97:../Drivers/STM32L4xx_HAL_Driver/Src/stm32l4xx_hal_dma.c ****   * @brief DMA HAL module driver
  98:../Drivers/STM32L4xx_HAL_Driver/Src/stm32l4xx_hal_dma.c ****   * @{
  99:../Drivers/STM32L4xx_HAL_Driver/Src/stm32l4xx_hal_dma.c ****   */
 100:../Drivers/STM32L4xx_HAL_Driver/Src/stm32l4xx_hal_dma.c **** 
 101:../Drivers/STM32L4xx_HAL_Driver/Src/stm32l4xx_hal_dma.c **** #ifdef HAL_DMA_MODULE_ENABLED
 102:../Drivers/STM32L4xx_HAL_Driver/Src/stm32l4xx_hal_dma.c **** 
 103:../Drivers/STM32L4xx_HAL_Driver/Src/stm32l4xx_hal_dma.c **** /* Private typedef -----------------------------------------------------------*/
 104:../Drivers/STM32L4xx_HAL_Driver/Src/stm32l4xx_hal_dma.c **** /* Private define ------------------------------------------------------------*/
 105:../Drivers/STM32L4xx_HAL_Driver/Src/stm32l4xx_hal_dma.c **** /* Private macro -------------------------------------------------------------*/
 106:../Drivers/STM32L4xx_HAL_Driver/Src/stm32l4xx_hal_dma.c **** /* Private variables ---------------------------------------------------------*/
 107:../Drivers/STM32L4xx_HAL_Driver/Src/stm32l4xx_hal_dma.c **** /* Private function prototypes -----------------------------------------------*/
 108:../Drivers/STM32L4xx_HAL_Driver/Src/stm32l4xx_hal_dma.c **** /** @defgroup DMA_Private_Functions DMA Private Functions
 109:../Drivers/STM32L4xx_HAL_Driver/Src/stm32l4xx_hal_dma.c ****   * @{
 110:../Drivers/STM32L4xx_HAL_Driver/Src/stm32l4xx_hal_dma.c ****   */
 111:../Drivers/STM32L4xx_HAL_Driver/Src/stm32l4xx_hal_dma.c **** static void DMA_SetConfig(DMA_HandleTypeDef *hdma, uint32_t SrcAddress, uint32_t DstAddress, uint32
 112:../Drivers/STM32L4xx_HAL_Driver/Src/stm32l4xx_hal_dma.c **** #if defined(DMAMUX1)
 113:../Drivers/STM32L4xx_HAL_Driver/Src/stm32l4xx_hal_dma.c **** static void DMA_CalcDMAMUXChannelBaseAndMask(DMA_HandleTypeDef *hdma);
 114:../Drivers/STM32L4xx_HAL_Driver/Src/stm32l4xx_hal_dma.c **** static void DMA_CalcDMAMUXRequestGenBaseAndMask(DMA_HandleTypeDef *hdma);
 115:../Drivers/STM32L4xx_HAL_Driver/Src/stm32l4xx_hal_dma.c **** #endif /* DMAMUX1 */
 116:../Drivers/STM32L4xx_HAL_Driver/Src/stm32l4xx_hal_dma.c **** 
 117:../Drivers/STM32L4xx_HAL_Driver/Src/stm32l4xx_hal_dma.c **** /**
 118:../Drivers/STM32L4xx_HAL_Driver/Src/stm32l4xx_hal_dma.c ****   * @}
 119:../Drivers/STM32L4xx_HAL_Driver/Src/stm32l4xx_hal_dma.c ****   */
 120:../Drivers/STM32L4xx_HAL_Driver/Src/stm32l4xx_hal_dma.c **** 
 121:../Drivers/STM32L4xx_HAL_Driver/Src/stm32l4xx_hal_dma.c **** /* Exported functions ---------------------------------------------------------*/
 122:../Drivers/STM32L4xx_HAL_Driver/Src/stm32l4xx_hal_dma.c **** 
 123:../Drivers/STM32L4xx_HAL_Driver/Src/stm32l4xx_hal_dma.c **** /** @defgroup DMA_Exported_Functions DMA Exported Functions
 124:../Drivers/STM32L4xx_HAL_Driver/Src/stm32l4xx_hal_dma.c ****   * @{
 125:../Drivers/STM32L4xx_HAL_Driver/Src/stm32l4xx_hal_dma.c ****   */
 126:../Drivers/STM32L4xx_HAL_Driver/Src/stm32l4xx_hal_dma.c **** 
 127:../Drivers/STM32L4xx_HAL_Driver/Src/stm32l4xx_hal_dma.c **** /** @defgroup DMA_Exported_Functions_Group1 Initialization and de-initialization functions
 128:../Drivers/STM32L4xx_HAL_Driver/Src/stm32l4xx_hal_dma.c ****  *  @brief   Initialization and de-initialization functions
 129:../Drivers/STM32L4xx_HAL_Driver/Src/stm32l4xx_hal_dma.c ****  *
 130:../Drivers/STM32L4xx_HAL_Driver/Src/stm32l4xx_hal_dma.c **** @verbatim
 131:../Drivers/STM32L4xx_HAL_Driver/Src/stm32l4xx_hal_dma.c ****  ===============================================================================
 132:../Drivers/STM32L4xx_HAL_Driver/Src/stm32l4xx_hal_dma.c ****              ##### Initialization and de-initialization functions  #####
 133:../Drivers/STM32L4xx_HAL_Driver/Src/stm32l4xx_hal_dma.c ****  ===============================================================================
 134:../Drivers/STM32L4xx_HAL_Driver/Src/stm32l4xx_hal_dma.c ****     [..]
 135:../Drivers/STM32L4xx_HAL_Driver/Src/stm32l4xx_hal_dma.c ****     This section provides functions allowing to initialize the DMA Channel source
 136:../Drivers/STM32L4xx_HAL_Driver/Src/stm32l4xx_hal_dma.c ****     and destination addresses, incrementation and data sizes, transfer direction,
 137:../Drivers/STM32L4xx_HAL_Driver/Src/stm32l4xx_hal_dma.c ****     circular/normal mode selection, memory-to-memory mode selection and Channel priority value.
 138:../Drivers/STM32L4xx_HAL_Driver/Src/stm32l4xx_hal_dma.c ****     [..]
 139:../Drivers/STM32L4xx_HAL_Driver/Src/stm32l4xx_hal_dma.c ****     The HAL_DMA_Init() function follows the DMA configuration procedures as described in
 140:../Drivers/STM32L4xx_HAL_Driver/Src/stm32l4xx_hal_dma.c ****     reference manual.
 141:../Drivers/STM32L4xx_HAL_Driver/Src/stm32l4xx_hal_dma.c **** 
 142:../Drivers/STM32L4xx_HAL_Driver/Src/stm32l4xx_hal_dma.c **** @endverbatim
 143:../Drivers/STM32L4xx_HAL_Driver/Src/stm32l4xx_hal_dma.c ****   * @{
 144:../Drivers/STM32L4xx_HAL_Driver/Src/stm32l4xx_hal_dma.c ****   */
 145:../Drivers/STM32L4xx_HAL_Driver/Src/stm32l4xx_hal_dma.c **** 
ARM GAS  C:\Users\hoodc\AppData\Local\Temp\cc4eu5v8.s 			page 4


 146:../Drivers/STM32L4xx_HAL_Driver/Src/stm32l4xx_hal_dma.c **** /**
 147:../Drivers/STM32L4xx_HAL_Driver/Src/stm32l4xx_hal_dma.c ****   * @brief  Initialize the DMA according to the specified
 148:../Drivers/STM32L4xx_HAL_Driver/Src/stm32l4xx_hal_dma.c ****   *         parameters in the DMA_InitTypeDef and initialize the associated handle.
 149:../Drivers/STM32L4xx_HAL_Driver/Src/stm32l4xx_hal_dma.c ****   * @param  hdma pointer to a DMA_HandleTypeDef structure that contains
 150:../Drivers/STM32L4xx_HAL_Driver/Src/stm32l4xx_hal_dma.c ****   *              the configuration information for the specified DMA Channel.
 151:../Drivers/STM32L4xx_HAL_Driver/Src/stm32l4xx_hal_dma.c ****   * @retval HAL status
 152:../Drivers/STM32L4xx_HAL_Driver/Src/stm32l4xx_hal_dma.c ****   */
 153:../Drivers/STM32L4xx_HAL_Driver/Src/stm32l4xx_hal_dma.c **** HAL_StatusTypeDef HAL_DMA_Init(DMA_HandleTypeDef *hdma)
 154:../Drivers/STM32L4xx_HAL_Driver/Src/stm32l4xx_hal_dma.c **** {
  27              		.loc 1 154 1 view -0
  28              		.cfi_startproc
  29              		@ args = 0, pretend = 0, frame = 0
  30              		@ frame_needed = 0, uses_anonymous_args = 0
  31              		@ link register save eliminated.
  32              		.loc 1 154 1 is_stmt 0 view .LVU1
  33 0000 10B4     		push	{r4}
  34              	.LCFI0:
  35              		.cfi_def_cfa_offset 4
  36              		.cfi_offset 4, -4
 155:../Drivers/STM32L4xx_HAL_Driver/Src/stm32l4xx_hal_dma.c ****   uint32_t tmp;
  37              		.loc 1 155 3 is_stmt 1 view .LVU2
 156:../Drivers/STM32L4xx_HAL_Driver/Src/stm32l4xx_hal_dma.c **** 
 157:../Drivers/STM32L4xx_HAL_Driver/Src/stm32l4xx_hal_dma.c ****   /* Check the DMA handle allocation */
 158:../Drivers/STM32L4xx_HAL_Driver/Src/stm32l4xx_hal_dma.c ****   if(hdma == NULL)
  38              		.loc 1 158 3 view .LVU3
  39              		.loc 1 158 5 is_stmt 0 view .LVU4
  40 0002 0346     		mov	r3, r0
  41 0004 0028     		cmp	r0, #0
  42 0006 6ED0     		beq	.L7
 159:../Drivers/STM32L4xx_HAL_Driver/Src/stm32l4xx_hal_dma.c ****   {
 160:../Drivers/STM32L4xx_HAL_Driver/Src/stm32l4xx_hal_dma.c ****     return HAL_ERROR;
 161:../Drivers/STM32L4xx_HAL_Driver/Src/stm32l4xx_hal_dma.c ****   }
 162:../Drivers/STM32L4xx_HAL_Driver/Src/stm32l4xx_hal_dma.c **** 
 163:../Drivers/STM32L4xx_HAL_Driver/Src/stm32l4xx_hal_dma.c ****   /* Check the parameters */
 164:../Drivers/STM32L4xx_HAL_Driver/Src/stm32l4xx_hal_dma.c ****   assert_param(IS_DMA_ALL_INSTANCE(hdma->Instance));
  43              		.loc 1 164 3 is_stmt 1 view .LVU5
 165:../Drivers/STM32L4xx_HAL_Driver/Src/stm32l4xx_hal_dma.c ****   assert_param(IS_DMA_DIRECTION(hdma->Init.Direction));
  44              		.loc 1 165 3 view .LVU6
 166:../Drivers/STM32L4xx_HAL_Driver/Src/stm32l4xx_hal_dma.c ****   assert_param(IS_DMA_PERIPHERAL_INC_STATE(hdma->Init.PeriphInc));
  45              		.loc 1 166 3 view .LVU7
 167:../Drivers/STM32L4xx_HAL_Driver/Src/stm32l4xx_hal_dma.c ****   assert_param(IS_DMA_MEMORY_INC_STATE(hdma->Init.MemInc));
  46              		.loc 1 167 3 view .LVU8
 168:../Drivers/STM32L4xx_HAL_Driver/Src/stm32l4xx_hal_dma.c ****   assert_param(IS_DMA_PERIPHERAL_DATA_SIZE(hdma->Init.PeriphDataAlignment));
  47              		.loc 1 168 3 view .LVU9
 169:../Drivers/STM32L4xx_HAL_Driver/Src/stm32l4xx_hal_dma.c ****   assert_param(IS_DMA_MEMORY_DATA_SIZE(hdma->Init.MemDataAlignment));
  48              		.loc 1 169 3 view .LVU10
 170:../Drivers/STM32L4xx_HAL_Driver/Src/stm32l4xx_hal_dma.c ****   assert_param(IS_DMA_MODE(hdma->Init.Mode));
  49              		.loc 1 170 3 view .LVU11
 171:../Drivers/STM32L4xx_HAL_Driver/Src/stm32l4xx_hal_dma.c ****   assert_param(IS_DMA_PRIORITY(hdma->Init.Priority));
  50              		.loc 1 171 3 view .LVU12
 172:../Drivers/STM32L4xx_HAL_Driver/Src/stm32l4xx_hal_dma.c **** 
 173:../Drivers/STM32L4xx_HAL_Driver/Src/stm32l4xx_hal_dma.c ****   assert_param(IS_DMA_ALL_REQUEST(hdma->Init.Request));
  51              		.loc 1 173 3 view .LVU13
 174:../Drivers/STM32L4xx_HAL_Driver/Src/stm32l4xx_hal_dma.c **** 
 175:../Drivers/STM32L4xx_HAL_Driver/Src/stm32l4xx_hal_dma.c ****   /* Compute the channel index */
 176:../Drivers/STM32L4xx_HAL_Driver/Src/stm32l4xx_hal_dma.c ****   if ((uint32_t)(hdma->Instance) < (uint32_t)(DMA2_Channel1))
  52              		.loc 1 176 3 view .LVU14
ARM GAS  C:\Users\hoodc\AppData\Local\Temp\cc4eu5v8.s 			page 5


  53              		.loc 1 176 22 is_stmt 0 view .LVU15
  54 0008 0068     		ldr	r0, [r0]
  55              	.LVL1:
  56              		.loc 1 176 6 view .LVU16
  57 000a 384A     		ldr	r2, .L9
  58 000c 9042     		cmp	r0, r2
  59 000e 48D8     		bhi	.L3
 177:../Drivers/STM32L4xx_HAL_Driver/Src/stm32l4xx_hal_dma.c ****   {
 178:../Drivers/STM32L4xx_HAL_Driver/Src/stm32l4xx_hal_dma.c ****     /* DMA1 */
 179:../Drivers/STM32L4xx_HAL_Driver/Src/stm32l4xx_hal_dma.c ****     hdma->ChannelIndex = (((uint32_t)hdma->Instance - (uint32_t)DMA1_Channel1) / ((uint32_t)DMA1_Ch
  60              		.loc 1 179 5 is_stmt 1 view .LVU17
  61              		.loc 1 179 53 is_stmt 0 view .LVU18
  62 0010 374A     		ldr	r2, .L9+4
  63 0012 0244     		add	r2, r2, r0
  64              		.loc 1 179 80 view .LVU19
  65 0014 3749     		ldr	r1, .L9+8
  66 0016 A1FB0212 		umull	r1, r2, r1, r2
  67 001a 1209     		lsrs	r2, r2, #4
  68              		.loc 1 179 135 view .LVU20
  69 001c 9200     		lsls	r2, r2, #2
  70              		.loc 1 179 24 view .LVU21
  71 001e 5A64     		str	r2, [r3, #68]
 180:../Drivers/STM32L4xx_HAL_Driver/Src/stm32l4xx_hal_dma.c ****     hdma->DmaBaseAddress = DMA1;
  72              		.loc 1 180 5 is_stmt 1 view .LVU22
  73              		.loc 1 180 26 is_stmt 0 view .LVU23
  74 0020 354A     		ldr	r2, .L9+12
  75 0022 1A64     		str	r2, [r3, #64]
  76              	.L4:
 181:../Drivers/STM32L4xx_HAL_Driver/Src/stm32l4xx_hal_dma.c ****   }
 182:../Drivers/STM32L4xx_HAL_Driver/Src/stm32l4xx_hal_dma.c ****   else
 183:../Drivers/STM32L4xx_HAL_Driver/Src/stm32l4xx_hal_dma.c ****   {
 184:../Drivers/STM32L4xx_HAL_Driver/Src/stm32l4xx_hal_dma.c ****     /* DMA2 */
 185:../Drivers/STM32L4xx_HAL_Driver/Src/stm32l4xx_hal_dma.c ****     hdma->ChannelIndex = (((uint32_t)hdma->Instance - (uint32_t)DMA2_Channel1) / ((uint32_t)DMA2_Ch
 186:../Drivers/STM32L4xx_HAL_Driver/Src/stm32l4xx_hal_dma.c ****     hdma->DmaBaseAddress = DMA2;
 187:../Drivers/STM32L4xx_HAL_Driver/Src/stm32l4xx_hal_dma.c ****   }
 188:../Drivers/STM32L4xx_HAL_Driver/Src/stm32l4xx_hal_dma.c **** 
 189:../Drivers/STM32L4xx_HAL_Driver/Src/stm32l4xx_hal_dma.c ****   /* Change DMA peripheral state */
 190:../Drivers/STM32L4xx_HAL_Driver/Src/stm32l4xx_hal_dma.c ****   hdma->State = HAL_DMA_STATE_BUSY;
  77              		.loc 1 190 3 is_stmt 1 view .LVU24
  78              		.loc 1 190 15 is_stmt 0 view .LVU25
  79 0024 0222     		movs	r2, #2
  80 0026 83F82520 		strb	r2, [r3, #37]
 191:../Drivers/STM32L4xx_HAL_Driver/Src/stm32l4xx_hal_dma.c **** 
 192:../Drivers/STM32L4xx_HAL_Driver/Src/stm32l4xx_hal_dma.c ****   /* Get the CR register value */
 193:../Drivers/STM32L4xx_HAL_Driver/Src/stm32l4xx_hal_dma.c ****   tmp = hdma->Instance->CCR;
  81              		.loc 1 193 3 is_stmt 1 view .LVU26
  82              		.loc 1 193 7 is_stmt 0 view .LVU27
  83 002a 0168     		ldr	r1, [r0]
  84              	.LVL2:
 194:../Drivers/STM32L4xx_HAL_Driver/Src/stm32l4xx_hal_dma.c **** 
 195:../Drivers/STM32L4xx_HAL_Driver/Src/stm32l4xx_hal_dma.c ****   /* Clear PL, MSIZE, PSIZE, MINC, PINC, CIRC, DIR and MEM2MEM bits */
 196:../Drivers/STM32L4xx_HAL_Driver/Src/stm32l4xx_hal_dma.c ****   tmp &= ((uint32_t)~(DMA_CCR_PL    | DMA_CCR_MSIZE  | DMA_CCR_PSIZE  |
  85              		.loc 1 196 3 is_stmt 1 view .LVU28
  86              		.loc 1 196 7 is_stmt 0 view .LVU29
  87 002c 21F4FF41 		bic	r1, r1, #32640
  88              	.LVL3:
  89              		.loc 1 196 7 view .LVU30
ARM GAS  C:\Users\hoodc\AppData\Local\Temp\cc4eu5v8.s 			page 6


  90 0030 21F07001 		bic	r1, r1, #112
  91              	.LVL4:
 197:../Drivers/STM32L4xx_HAL_Driver/Src/stm32l4xx_hal_dma.c ****                       DMA_CCR_MINC  | DMA_CCR_PINC   | DMA_CCR_CIRC   |
 198:../Drivers/STM32L4xx_HAL_Driver/Src/stm32l4xx_hal_dma.c ****                       DMA_CCR_DIR   | DMA_CCR_MEM2MEM));
 199:../Drivers/STM32L4xx_HAL_Driver/Src/stm32l4xx_hal_dma.c **** 
 200:../Drivers/STM32L4xx_HAL_Driver/Src/stm32l4xx_hal_dma.c ****   /* Prepare the DMA Channel configuration */
 201:../Drivers/STM32L4xx_HAL_Driver/Src/stm32l4xx_hal_dma.c ****   tmp |=  hdma->Init.Direction        |
  92              		.loc 1 201 3 is_stmt 1 view .LVU31
  93              		.loc 1 201 39 is_stmt 0 view .LVU32
  94 0034 9A68     		ldr	r2, [r3, #8]
  95 0036 DC68     		ldr	r4, [r3, #12]
  96 0038 2243     		orrs	r2, r2, r4
 202:../Drivers/STM32L4xx_HAL_Driver/Src/stm32l4xx_hal_dma.c ****           hdma->Init.PeriphInc           | hdma->Init.MemInc           |
  97              		.loc 1 202 42 view .LVU33
  98 003a 1C69     		ldr	r4, [r3, #16]
  99 003c 2243     		orrs	r2, r2, r4
 100              		.loc 1 202 72 view .LVU34
 101 003e 5C69     		ldr	r4, [r3, #20]
 102 0040 2243     		orrs	r2, r2, r4
 203:../Drivers/STM32L4xx_HAL_Driver/Src/stm32l4xx_hal_dma.c ****           hdma->Init.PeriphDataAlignment | hdma->Init.MemDataAlignment |
 103              		.loc 1 203 42 view .LVU35
 104 0042 9C69     		ldr	r4, [r3, #24]
 105 0044 2243     		orrs	r2, r2, r4
 106              		.loc 1 203 72 view .LVU36
 107 0046 DC69     		ldr	r4, [r3, #28]
 108 0048 2243     		orrs	r2, r2, r4
 204:../Drivers/STM32L4xx_HAL_Driver/Src/stm32l4xx_hal_dma.c ****           hdma->Init.Mode                | hdma->Init.Priority;
 109              		.loc 1 204 42 view .LVU37
 110 004a 1C6A     		ldr	r4, [r3, #32]
 111 004c 2243     		orrs	r2, r2, r4
 201:../Drivers/STM32L4xx_HAL_Driver/Src/stm32l4xx_hal_dma.c ****           hdma->Init.PeriphInc           | hdma->Init.MemInc           |
 112              		.loc 1 201 7 view .LVU38
 113 004e 0A43     		orrs	r2, r2, r1
 114              	.LVL5:
 205:../Drivers/STM32L4xx_HAL_Driver/Src/stm32l4xx_hal_dma.c **** 
 206:../Drivers/STM32L4xx_HAL_Driver/Src/stm32l4xx_hal_dma.c ****   /* Write to DMA Channel CR register */
 207:../Drivers/STM32L4xx_HAL_Driver/Src/stm32l4xx_hal_dma.c ****   hdma->Instance->CCR = tmp;
 115              		.loc 1 207 3 is_stmt 1 view .LVU39
 116              		.loc 1 207 23 is_stmt 0 view .LVU40
 117 0050 0260     		str	r2, [r0]
 208:../Drivers/STM32L4xx_HAL_Driver/Src/stm32l4xx_hal_dma.c **** 
 209:../Drivers/STM32L4xx_HAL_Driver/Src/stm32l4xx_hal_dma.c **** #if defined(DMAMUX1)
 210:../Drivers/STM32L4xx_HAL_Driver/Src/stm32l4xx_hal_dma.c ****   /* Initialize parameters for DMAMUX channel :
 211:../Drivers/STM32L4xx_HAL_Driver/Src/stm32l4xx_hal_dma.c ****      DMAmuxChannel, DMAmuxChannelStatus and DMAmuxChannelStatusMask
 212:../Drivers/STM32L4xx_HAL_Driver/Src/stm32l4xx_hal_dma.c ****   */
 213:../Drivers/STM32L4xx_HAL_Driver/Src/stm32l4xx_hal_dma.c ****   DMA_CalcDMAMUXChannelBaseAndMask(hdma);
 214:../Drivers/STM32L4xx_HAL_Driver/Src/stm32l4xx_hal_dma.c **** 
 215:../Drivers/STM32L4xx_HAL_Driver/Src/stm32l4xx_hal_dma.c ****   if(hdma->Init.Direction == DMA_MEMORY_TO_MEMORY)
 216:../Drivers/STM32L4xx_HAL_Driver/Src/stm32l4xx_hal_dma.c ****   {
 217:../Drivers/STM32L4xx_HAL_Driver/Src/stm32l4xx_hal_dma.c ****     /* if memory to memory force the request to 0*/
 218:../Drivers/STM32L4xx_HAL_Driver/Src/stm32l4xx_hal_dma.c ****     hdma->Init.Request = DMA_REQUEST_MEM2MEM;
 219:../Drivers/STM32L4xx_HAL_Driver/Src/stm32l4xx_hal_dma.c ****   }
 220:../Drivers/STM32L4xx_HAL_Driver/Src/stm32l4xx_hal_dma.c **** 
 221:../Drivers/STM32L4xx_HAL_Driver/Src/stm32l4xx_hal_dma.c ****   /* Set peripheral request  to DMAMUX channel */
 222:../Drivers/STM32L4xx_HAL_Driver/Src/stm32l4xx_hal_dma.c ****   hdma->DMAmuxChannel->CCR = (hdma->Init.Request & DMAMUX_CxCR_DMAREQ_ID);
 223:../Drivers/STM32L4xx_HAL_Driver/Src/stm32l4xx_hal_dma.c **** 
 224:../Drivers/STM32L4xx_HAL_Driver/Src/stm32l4xx_hal_dma.c ****   /* Clear the DMAMUX synchro overrun flag */
ARM GAS  C:\Users\hoodc\AppData\Local\Temp\cc4eu5v8.s 			page 7


 225:../Drivers/STM32L4xx_HAL_Driver/Src/stm32l4xx_hal_dma.c ****   hdma->DMAmuxChannelStatus->CFR = hdma->DMAmuxChannelStatusMask;
 226:../Drivers/STM32L4xx_HAL_Driver/Src/stm32l4xx_hal_dma.c **** 
 227:../Drivers/STM32L4xx_HAL_Driver/Src/stm32l4xx_hal_dma.c ****   if(((hdma->Init.Request > 0U) && (hdma->Init.Request <= DMA_REQUEST_GENERATOR3)))
 228:../Drivers/STM32L4xx_HAL_Driver/Src/stm32l4xx_hal_dma.c ****   {
 229:../Drivers/STM32L4xx_HAL_Driver/Src/stm32l4xx_hal_dma.c ****     /* Initialize parameters for DMAMUX request generator :
 230:../Drivers/STM32L4xx_HAL_Driver/Src/stm32l4xx_hal_dma.c ****        DMAmuxRequestGen, DMAmuxRequestGenStatus and DMAmuxRequestGenStatusMask
 231:../Drivers/STM32L4xx_HAL_Driver/Src/stm32l4xx_hal_dma.c ****     */
 232:../Drivers/STM32L4xx_HAL_Driver/Src/stm32l4xx_hal_dma.c ****     DMA_CalcDMAMUXRequestGenBaseAndMask(hdma);
 233:../Drivers/STM32L4xx_HAL_Driver/Src/stm32l4xx_hal_dma.c **** 
 234:../Drivers/STM32L4xx_HAL_Driver/Src/stm32l4xx_hal_dma.c ****     /* Reset the DMAMUX request generator register*/
 235:../Drivers/STM32L4xx_HAL_Driver/Src/stm32l4xx_hal_dma.c ****     hdma->DMAmuxRequestGen->RGCR = 0U;
 236:../Drivers/STM32L4xx_HAL_Driver/Src/stm32l4xx_hal_dma.c **** 
 237:../Drivers/STM32L4xx_HAL_Driver/Src/stm32l4xx_hal_dma.c ****     /* Clear the DMAMUX request generator overrun flag */
 238:../Drivers/STM32L4xx_HAL_Driver/Src/stm32l4xx_hal_dma.c ****     hdma->DMAmuxRequestGenStatus->RGCFR = hdma->DMAmuxRequestGenStatusMask;
 239:../Drivers/STM32L4xx_HAL_Driver/Src/stm32l4xx_hal_dma.c ****   }
 240:../Drivers/STM32L4xx_HAL_Driver/Src/stm32l4xx_hal_dma.c ****   else
 241:../Drivers/STM32L4xx_HAL_Driver/Src/stm32l4xx_hal_dma.c ****   {
 242:../Drivers/STM32L4xx_HAL_Driver/Src/stm32l4xx_hal_dma.c ****     hdma->DMAmuxRequestGen = 0U;
 243:../Drivers/STM32L4xx_HAL_Driver/Src/stm32l4xx_hal_dma.c ****     hdma->DMAmuxRequestGenStatus = 0U;
 244:../Drivers/STM32L4xx_HAL_Driver/Src/stm32l4xx_hal_dma.c ****     hdma->DMAmuxRequestGenStatusMask = 0U;
 245:../Drivers/STM32L4xx_HAL_Driver/Src/stm32l4xx_hal_dma.c ****   }
 246:../Drivers/STM32L4xx_HAL_Driver/Src/stm32l4xx_hal_dma.c **** #endif /* DMAMUX1 */
 247:../Drivers/STM32L4xx_HAL_Driver/Src/stm32l4xx_hal_dma.c **** 
 248:../Drivers/STM32L4xx_HAL_Driver/Src/stm32l4xx_hal_dma.c **** #if !defined (DMAMUX1)
 249:../Drivers/STM32L4xx_HAL_Driver/Src/stm32l4xx_hal_dma.c **** 
 250:../Drivers/STM32L4xx_HAL_Driver/Src/stm32l4xx_hal_dma.c ****   /* Set request selection */
 251:../Drivers/STM32L4xx_HAL_Driver/Src/stm32l4xx_hal_dma.c ****   if(hdma->Init.Direction != DMA_MEMORY_TO_MEMORY)
 118              		.loc 1 251 3 is_stmt 1 view .LVU41
 119              		.loc 1 251 5 is_stmt 0 view .LVU42
 120 0052 9A68     		ldr	r2, [r3, #8]
 121              	.LVL6:
 122              		.loc 1 251 5 view .LVU43
 123 0054 B2F5804F 		cmp	r2, #16384
 124 0058 1AD0     		beq	.L5
 252:../Drivers/STM32L4xx_HAL_Driver/Src/stm32l4xx_hal_dma.c ****   {
 253:../Drivers/STM32L4xx_HAL_Driver/Src/stm32l4xx_hal_dma.c ****     /* Write to DMA channel selection register */
 254:../Drivers/STM32L4xx_HAL_Driver/Src/stm32l4xx_hal_dma.c ****     if (DMA1 == hdma->DmaBaseAddress)
 125              		.loc 1 254 5 is_stmt 1 view .LVU44
 126              		.loc 1 254 8 is_stmt 0 view .LVU45
 127 005a 196C     		ldr	r1, [r3, #64]
 128 005c 264A     		ldr	r2, .L9+12
 129 005e 9142     		cmp	r1, r2
 130 0060 2AD0     		beq	.L8
 255:../Drivers/STM32L4xx_HAL_Driver/Src/stm32l4xx_hal_dma.c ****     {
 256:../Drivers/STM32L4xx_HAL_Driver/Src/stm32l4xx_hal_dma.c ****       /* Reset request selection for DMA1 Channelx */
 257:../Drivers/STM32L4xx_HAL_Driver/Src/stm32l4xx_hal_dma.c ****       DMA1_CSELR->CSELR &= ~(DMA_CSELR_C1S << (hdma->ChannelIndex & 0x1cU));
 258:../Drivers/STM32L4xx_HAL_Driver/Src/stm32l4xx_hal_dma.c **** 
 259:../Drivers/STM32L4xx_HAL_Driver/Src/stm32l4xx_hal_dma.c ****       /* Configure request selection for DMA1 Channelx */
 260:../Drivers/STM32L4xx_HAL_Driver/Src/stm32l4xx_hal_dma.c ****       DMA1_CSELR->CSELR |= (uint32_t) (hdma->Init.Request << (hdma->ChannelIndex & 0x1cU));
 261:../Drivers/STM32L4xx_HAL_Driver/Src/stm32l4xx_hal_dma.c ****     }
 262:../Drivers/STM32L4xx_HAL_Driver/Src/stm32l4xx_hal_dma.c ****     else /* DMA2 */
 263:../Drivers/STM32L4xx_HAL_Driver/Src/stm32l4xx_hal_dma.c ****     {
 264:../Drivers/STM32L4xx_HAL_Driver/Src/stm32l4xx_hal_dma.c ****       /* Reset request selection for DMA2 Channelx */
 265:../Drivers/STM32L4xx_HAL_Driver/Src/stm32l4xx_hal_dma.c ****       DMA2_CSELR->CSELR &= ~(DMA_CSELR_C1S << (hdma->ChannelIndex & 0x1cU));
 131              		.loc 1 265 7 is_stmt 1 view .LVU46
 132              		.loc 1 265 25 is_stmt 0 view .LVU47
 133 0062 2549     		ldr	r1, .L9+12
ARM GAS  C:\Users\hoodc\AppData\Local\Temp\cc4eu5v8.s 			page 8


 134 0064 D1F8A824 		ldr	r2, [r1, #1192]
 135              		.loc 1 265 67 view .LVU48
 136 0068 586C     		ldr	r0, [r3, #68]
 137              	.LVL7:
 138              		.loc 1 265 67 view .LVU49
 139 006a 00F01C0C 		and	ip, r0, #28
 140              		.loc 1 265 44 view .LVU50
 141 006e 0F20     		movs	r0, #15
 142 0070 00FA0CF0 		lsl	r0, r0, ip
 143              		.loc 1 265 25 view .LVU51
 144 0074 22EA0002 		bic	r2, r2, r0
 145 0078 C1F8A824 		str	r2, [r1, #1192]
 266:../Drivers/STM32L4xx_HAL_Driver/Src/stm32l4xx_hal_dma.c **** 
 267:../Drivers/STM32L4xx_HAL_Driver/Src/stm32l4xx_hal_dma.c ****       /* Configure request selection for DMA2 Channelx */
 268:../Drivers/STM32L4xx_HAL_Driver/Src/stm32l4xx_hal_dma.c ****       DMA2_CSELR->CSELR |= (uint32_t) (hdma->Init.Request << (hdma->ChannelIndex & 0x1cU));
 146              		.loc 1 268 7 is_stmt 1 view .LVU52
 147              		.loc 1 268 25 is_stmt 0 view .LVU53
 148 007c D1F8A844 		ldr	r4, [r1, #1192]
 149              		.loc 1 268 82 view .LVU54
 150 0080 5A6C     		ldr	r2, [r3, #68]
 151 0082 02F01C00 		and	r0, r2, #28
 152              		.loc 1 268 59 view .LVU55
 153 0086 5A68     		ldr	r2, [r3, #4]
 154 0088 8240     		lsls	r2, r2, r0
 155              		.loc 1 268 25 view .LVU56
 156 008a 2243     		orrs	r2, r2, r4
 157 008c C1F8A824 		str	r2, [r1, #1192]
 158              	.L5:
 269:../Drivers/STM32L4xx_HAL_Driver/Src/stm32l4xx_hal_dma.c ****     }
 270:../Drivers/STM32L4xx_HAL_Driver/Src/stm32l4xx_hal_dma.c ****   }
 271:../Drivers/STM32L4xx_HAL_Driver/Src/stm32l4xx_hal_dma.c **** 
 272:../Drivers/STM32L4xx_HAL_Driver/Src/stm32l4xx_hal_dma.c **** #endif /* STM32L431xx || STM32L432xx || STM32L433xx || STM32L442xx || STM32L443xx */
 273:../Drivers/STM32L4xx_HAL_Driver/Src/stm32l4xx_hal_dma.c ****        /* STM32L471xx || STM32L475xx || STM32L476xx || STM32L442xx || STM32L486xx */
 274:../Drivers/STM32L4xx_HAL_Driver/Src/stm32l4xx_hal_dma.c ****        /* STM32L496xx || STM32L4A6xx                                              */
 275:../Drivers/STM32L4xx_HAL_Driver/Src/stm32l4xx_hal_dma.c **** 
 276:../Drivers/STM32L4xx_HAL_Driver/Src/stm32l4xx_hal_dma.c ****   /* Initialise the error code */
 277:../Drivers/STM32L4xx_HAL_Driver/Src/stm32l4xx_hal_dma.c ****   hdma->ErrorCode = HAL_DMA_ERROR_NONE;
 159              		.loc 1 277 3 is_stmt 1 view .LVU57
 160              		.loc 1 277 19 is_stmt 0 view .LVU58
 161 0090 0020     		movs	r0, #0
 162 0092 D863     		str	r0, [r3, #60]
 278:../Drivers/STM32L4xx_HAL_Driver/Src/stm32l4xx_hal_dma.c **** 
 279:../Drivers/STM32L4xx_HAL_Driver/Src/stm32l4xx_hal_dma.c ****   /* Initialize the DMA state*/
 280:../Drivers/STM32L4xx_HAL_Driver/Src/stm32l4xx_hal_dma.c ****   hdma->State = HAL_DMA_STATE_READY;
 163              		.loc 1 280 3 is_stmt 1 view .LVU59
 164              		.loc 1 280 15 is_stmt 0 view .LVU60
 165 0094 0122     		movs	r2, #1
 166 0096 83F82520 		strb	r2, [r3, #37]
 281:../Drivers/STM32L4xx_HAL_Driver/Src/stm32l4xx_hal_dma.c **** 
 282:../Drivers/STM32L4xx_HAL_Driver/Src/stm32l4xx_hal_dma.c ****   /* Allocate lock resource and initialize it */
 283:../Drivers/STM32L4xx_HAL_Driver/Src/stm32l4xx_hal_dma.c ****   hdma->Lock = HAL_UNLOCKED;
 167              		.loc 1 283 3 is_stmt 1 view .LVU61
 168              		.loc 1 283 14 is_stmt 0 view .LVU62
 169 009a 83F82400 		strb	r0, [r3, #36]
 284:../Drivers/STM32L4xx_HAL_Driver/Src/stm32l4xx_hal_dma.c **** 
 285:../Drivers/STM32L4xx_HAL_Driver/Src/stm32l4xx_hal_dma.c ****   return HAL_OK;
 170              		.loc 1 285 3 is_stmt 1 view .LVU63
ARM GAS  C:\Users\hoodc\AppData\Local\Temp\cc4eu5v8.s 			page 9


 171              	.L2:
 286:../Drivers/STM32L4xx_HAL_Driver/Src/stm32l4xx_hal_dma.c **** }
 172              		.loc 1 286 1 is_stmt 0 view .LVU64
 173 009e 10BC     		pop	{r4}
 174              	.LCFI1:
 175              		.cfi_remember_state
 176              		.cfi_restore 4
 177              		.cfi_def_cfa_offset 0
 178 00a0 7047     		bx	lr
 179              	.L3:
 180              	.LCFI2:
 181              		.cfi_restore_state
 185:../Drivers/STM32L4xx_HAL_Driver/Src/stm32l4xx_hal_dma.c ****     hdma->DmaBaseAddress = DMA2;
 182              		.loc 1 185 5 is_stmt 1 view .LVU65
 185:../Drivers/STM32L4xx_HAL_Driver/Src/stm32l4xx_hal_dma.c ****     hdma->DmaBaseAddress = DMA2;
 183              		.loc 1 185 53 is_stmt 0 view .LVU66
 184 00a2 164A     		ldr	r2, .L9+16
 185 00a4 0244     		add	r2, r2, r0
 185:../Drivers/STM32L4xx_HAL_Driver/Src/stm32l4xx_hal_dma.c ****     hdma->DmaBaseAddress = DMA2;
 186              		.loc 1 185 80 view .LVU67
 187 00a6 1349     		ldr	r1, .L9+8
 188 00a8 A1FB0212 		umull	r1, r2, r1, r2
 189 00ac 1209     		lsrs	r2, r2, #4
 185:../Drivers/STM32L4xx_HAL_Driver/Src/stm32l4xx_hal_dma.c ****     hdma->DmaBaseAddress = DMA2;
 190              		.loc 1 185 135 view .LVU68
 191 00ae 9200     		lsls	r2, r2, #2
 185:../Drivers/STM32L4xx_HAL_Driver/Src/stm32l4xx_hal_dma.c ****     hdma->DmaBaseAddress = DMA2;
 192              		.loc 1 185 24 view .LVU69
 193 00b0 5A64     		str	r2, [r3, #68]
 186:../Drivers/STM32L4xx_HAL_Driver/Src/stm32l4xx_hal_dma.c ****   }
 194              		.loc 1 186 5 is_stmt 1 view .LVU70
 186:../Drivers/STM32L4xx_HAL_Driver/Src/stm32l4xx_hal_dma.c ****   }
 195              		.loc 1 186 26 is_stmt 0 view .LVU71
 196 00b2 134A     		ldr	r2, .L9+20
 197 00b4 1A64     		str	r2, [r3, #64]
 198 00b6 B5E7     		b	.L4
 199              	.LVL8:
 200              	.L8:
 257:../Drivers/STM32L4xx_HAL_Driver/Src/stm32l4xx_hal_dma.c **** 
 201              		.loc 1 257 7 is_stmt 1 view .LVU72
 257:../Drivers/STM32L4xx_HAL_Driver/Src/stm32l4xx_hal_dma.c **** 
 202              		.loc 1 257 25 is_stmt 0 view .LVU73
 203 00b8 1146     		mov	r1, r2
 204 00ba D2F8A820 		ldr	r2, [r2, #168]
 257:../Drivers/STM32L4xx_HAL_Driver/Src/stm32l4xx_hal_dma.c **** 
 205              		.loc 1 257 67 view .LVU74
 206 00be 586C     		ldr	r0, [r3, #68]
 207              	.LVL9:
 257:../Drivers/STM32L4xx_HAL_Driver/Src/stm32l4xx_hal_dma.c **** 
 208              		.loc 1 257 67 view .LVU75
 209 00c0 00F01C04 		and	r4, r0, #28
 257:../Drivers/STM32L4xx_HAL_Driver/Src/stm32l4xx_hal_dma.c **** 
 210              		.loc 1 257 44 view .LVU76
 211 00c4 0F20     		movs	r0, #15
 212 00c6 A040     		lsls	r0, r0, r4
 257:../Drivers/STM32L4xx_HAL_Driver/Src/stm32l4xx_hal_dma.c **** 
 213              		.loc 1 257 25 view .LVU77
ARM GAS  C:\Users\hoodc\AppData\Local\Temp\cc4eu5v8.s 			page 10


 214 00c8 22EA0002 		bic	r2, r2, r0
 215 00cc C1F8A820 		str	r2, [r1, #168]
 260:../Drivers/STM32L4xx_HAL_Driver/Src/stm32l4xx_hal_dma.c ****     }
 216              		.loc 1 260 7 is_stmt 1 view .LVU78
 260:../Drivers/STM32L4xx_HAL_Driver/Src/stm32l4xx_hal_dma.c ****     }
 217              		.loc 1 260 25 is_stmt 0 view .LVU79
 218 00d0 D1F8A840 		ldr	r4, [r1, #168]
 260:../Drivers/STM32L4xx_HAL_Driver/Src/stm32l4xx_hal_dma.c ****     }
 219              		.loc 1 260 82 view .LVU80
 220 00d4 5A6C     		ldr	r2, [r3, #68]
 221 00d6 02F01C00 		and	r0, r2, #28
 260:../Drivers/STM32L4xx_HAL_Driver/Src/stm32l4xx_hal_dma.c ****     }
 222              		.loc 1 260 59 view .LVU81
 223 00da 5A68     		ldr	r2, [r3, #4]
 224 00dc 8240     		lsls	r2, r2, r0
 260:../Drivers/STM32L4xx_HAL_Driver/Src/stm32l4xx_hal_dma.c ****     }
 225              		.loc 1 260 25 view .LVU82
 226 00de 2243     		orrs	r2, r2, r4
 227 00e0 C1F8A820 		str	r2, [r1, #168]
 228 00e4 D4E7     		b	.L5
 229              	.LVL10:
 230              	.L7:
 160:../Drivers/STM32L4xx_HAL_Driver/Src/stm32l4xx_hal_dma.c ****   }
 231              		.loc 1 160 12 view .LVU83
 232 00e6 0120     		movs	r0, #1
 233              	.LVL11:
 160:../Drivers/STM32L4xx_HAL_Driver/Src/stm32l4xx_hal_dma.c ****   }
 234              		.loc 1 160 12 view .LVU84
 235 00e8 D9E7     		b	.L2
 236              	.L10:
 237 00ea 00BF     		.align	2
 238              	.L9:
 239 00ec 07040240 		.word	1073873927
 240 00f0 F8FFFDBF 		.word	-1073872904
 241 00f4 CDCCCCCC 		.word	-858993459
 242 00f8 00000240 		.word	1073872896
 243 00fc F8FBFDBF 		.word	-1073873928
 244 0100 00040240 		.word	1073873920
 245              		.cfi_endproc
 246              	.LFE133:
 247              		.size	HAL_DMA_Init, .-HAL_DMA_Init
 248              		.align	1
 249              		.global	HAL_DMA_DeInit
 250              		.syntax unified
 251              		.thumb
 252              		.thumb_func
 253              		.fpu softvfp
 254              		.type	HAL_DMA_DeInit, %function
 255              	HAL_DMA_DeInit:
 256              	.LVL12:
 257              	.LFB134:
 287:../Drivers/STM32L4xx_HAL_Driver/Src/stm32l4xx_hal_dma.c **** 
 288:../Drivers/STM32L4xx_HAL_Driver/Src/stm32l4xx_hal_dma.c **** /**
 289:../Drivers/STM32L4xx_HAL_Driver/Src/stm32l4xx_hal_dma.c ****   * @brief  DeInitialize the DMA peripheral.
 290:../Drivers/STM32L4xx_HAL_Driver/Src/stm32l4xx_hal_dma.c ****   * @param  hdma pointer to a DMA_HandleTypeDef structure that contains
 291:../Drivers/STM32L4xx_HAL_Driver/Src/stm32l4xx_hal_dma.c ****   *               the configuration information for the specified DMA Channel.
 292:../Drivers/STM32L4xx_HAL_Driver/Src/stm32l4xx_hal_dma.c ****   * @retval HAL status
ARM GAS  C:\Users\hoodc\AppData\Local\Temp\cc4eu5v8.s 			page 11


 293:../Drivers/STM32L4xx_HAL_Driver/Src/stm32l4xx_hal_dma.c ****   */
 294:../Drivers/STM32L4xx_HAL_Driver/Src/stm32l4xx_hal_dma.c **** HAL_StatusTypeDef HAL_DMA_DeInit(DMA_HandleTypeDef *hdma)
 295:../Drivers/STM32L4xx_HAL_Driver/Src/stm32l4xx_hal_dma.c **** {
 258              		.loc 1 295 1 is_stmt 1 view -0
 259              		.cfi_startproc
 260              		@ args = 0, pretend = 0, frame = 0
 261              		@ frame_needed = 0, uses_anonymous_args = 0
 262              		@ link register save eliminated.
 263              		.loc 1 295 1 is_stmt 0 view .LVU86
 264 0104 10B4     		push	{r4}
 265              	.LCFI3:
 266              		.cfi_def_cfa_offset 4
 267              		.cfi_offset 4, -4
 296:../Drivers/STM32L4xx_HAL_Driver/Src/stm32l4xx_hal_dma.c **** 
 297:../Drivers/STM32L4xx_HAL_Driver/Src/stm32l4xx_hal_dma.c ****   /* Check the DMA handle allocation */
 298:../Drivers/STM32L4xx_HAL_Driver/Src/stm32l4xx_hal_dma.c ****   if (NULL == hdma )
 268              		.loc 1 298 3 is_stmt 1 view .LVU87
 269              		.loc 1 298 6 is_stmt 0 view .LVU88
 270 0106 0346     		mov	r3, r0
 271 0108 0028     		cmp	r0, #0
 272 010a 4FD0     		beq	.L17
 299:../Drivers/STM32L4xx_HAL_Driver/Src/stm32l4xx_hal_dma.c ****   {
 300:../Drivers/STM32L4xx_HAL_Driver/Src/stm32l4xx_hal_dma.c ****     return HAL_ERROR;
 301:../Drivers/STM32L4xx_HAL_Driver/Src/stm32l4xx_hal_dma.c ****   }
 302:../Drivers/STM32L4xx_HAL_Driver/Src/stm32l4xx_hal_dma.c **** 
 303:../Drivers/STM32L4xx_HAL_Driver/Src/stm32l4xx_hal_dma.c ****   /* Check the parameters */
 304:../Drivers/STM32L4xx_HAL_Driver/Src/stm32l4xx_hal_dma.c ****   assert_param(IS_DMA_ALL_INSTANCE(hdma->Instance));
 273              		.loc 1 304 3 is_stmt 1 view .LVU89
 305:../Drivers/STM32L4xx_HAL_Driver/Src/stm32l4xx_hal_dma.c **** 
 306:../Drivers/STM32L4xx_HAL_Driver/Src/stm32l4xx_hal_dma.c ****   /* Disable the selected DMA Channelx */
 307:../Drivers/STM32L4xx_HAL_Driver/Src/stm32l4xx_hal_dma.c ****   __HAL_DMA_DISABLE(hdma);
 274              		.loc 1 307 3 view .LVU90
 275 010c 0168     		ldr	r1, [r0]
 276 010e 0A68     		ldr	r2, [r1]
 277 0110 22F00102 		bic	r2, r2, #1
 278 0114 0A60     		str	r2, [r1]
 308:../Drivers/STM32L4xx_HAL_Driver/Src/stm32l4xx_hal_dma.c **** 
 309:../Drivers/STM32L4xx_HAL_Driver/Src/stm32l4xx_hal_dma.c ****   /* Compute the channel index */
 310:../Drivers/STM32L4xx_HAL_Driver/Src/stm32l4xx_hal_dma.c ****   if ((uint32_t)(hdma->Instance) < (uint32_t)(DMA2_Channel1))
 279              		.loc 1 310 3 view .LVU91
 280              		.loc 1 310 22 is_stmt 0 view .LVU92
 281 0116 0168     		ldr	r1, [r0]
 282              		.loc 1 310 6 view .LVU93
 283 0118 254A     		ldr	r2, .L19
 284 011a 9142     		cmp	r1, r2
 285 011c 2ED8     		bhi	.L13
 311:../Drivers/STM32L4xx_HAL_Driver/Src/stm32l4xx_hal_dma.c ****   {
 312:../Drivers/STM32L4xx_HAL_Driver/Src/stm32l4xx_hal_dma.c ****     /* DMA1 */
 313:../Drivers/STM32L4xx_HAL_Driver/Src/stm32l4xx_hal_dma.c ****     hdma->ChannelIndex = (((uint32_t)hdma->Instance - (uint32_t)DMA1_Channel1) / ((uint32_t)DMA1_Ch
 286              		.loc 1 313 5 is_stmt 1 view .LVU94
 287              		.loc 1 313 53 is_stmt 0 view .LVU95
 288 011e 254A     		ldr	r2, .L19+4
 289 0120 0A44     		add	r2, r2, r1
 290              		.loc 1 313 80 view .LVU96
 291 0122 2548     		ldr	r0, .L19+8
 292              	.LVL13:
 293              		.loc 1 313 80 view .LVU97
ARM GAS  C:\Users\hoodc\AppData\Local\Temp\cc4eu5v8.s 			page 12


 294 0124 A0FB0202 		umull	r0, r2, r0, r2
 295 0128 1209     		lsrs	r2, r2, #4
 296              		.loc 1 313 135 view .LVU98
 297 012a 9200     		lsls	r2, r2, #2
 298              		.loc 1 313 24 view .LVU99
 299 012c 5A64     		str	r2, [r3, #68]
 314:../Drivers/STM32L4xx_HAL_Driver/Src/stm32l4xx_hal_dma.c ****     hdma->DmaBaseAddress = DMA1;
 300              		.loc 1 314 5 is_stmt 1 view .LVU100
 301              		.loc 1 314 26 is_stmt 0 view .LVU101
 302 012e 234A     		ldr	r2, .L19+12
 303 0130 1A64     		str	r2, [r3, #64]
 304              	.L14:
 315:../Drivers/STM32L4xx_HAL_Driver/Src/stm32l4xx_hal_dma.c ****   }
 316:../Drivers/STM32L4xx_HAL_Driver/Src/stm32l4xx_hal_dma.c ****   else
 317:../Drivers/STM32L4xx_HAL_Driver/Src/stm32l4xx_hal_dma.c ****   {
 318:../Drivers/STM32L4xx_HAL_Driver/Src/stm32l4xx_hal_dma.c ****     /* DMA2 */
 319:../Drivers/STM32L4xx_HAL_Driver/Src/stm32l4xx_hal_dma.c ****     hdma->ChannelIndex = (((uint32_t)hdma->Instance - (uint32_t)DMA2_Channel1) / ((uint32_t)DMA2_Ch
 320:../Drivers/STM32L4xx_HAL_Driver/Src/stm32l4xx_hal_dma.c ****     hdma->DmaBaseAddress = DMA2;
 321:../Drivers/STM32L4xx_HAL_Driver/Src/stm32l4xx_hal_dma.c ****   }
 322:../Drivers/STM32L4xx_HAL_Driver/Src/stm32l4xx_hal_dma.c **** 
 323:../Drivers/STM32L4xx_HAL_Driver/Src/stm32l4xx_hal_dma.c ****   /* Reset DMA Channel control register */
 324:../Drivers/STM32L4xx_HAL_Driver/Src/stm32l4xx_hal_dma.c ****   hdma->Instance->CCR = 0U;
 305              		.loc 1 324 3 is_stmt 1 view .LVU102
 306              		.loc 1 324 23 is_stmt 0 view .LVU103
 307 0132 0022     		movs	r2, #0
 308 0134 0A60     		str	r2, [r1]
 325:../Drivers/STM32L4xx_HAL_Driver/Src/stm32l4xx_hal_dma.c **** 
 326:../Drivers/STM32L4xx_HAL_Driver/Src/stm32l4xx_hal_dma.c ****   /* Clear all flags */
 327:../Drivers/STM32L4xx_HAL_Driver/Src/stm32l4xx_hal_dma.c ****   hdma->DmaBaseAddress->IFCR = (DMA_ISR_GIF1 << (hdma->ChannelIndex & 0x1CU));
 309              		.loc 1 327 3 is_stmt 1 view .LVU104
 310              		.loc 1 327 7 is_stmt 0 view .LVU105
 311 0136 186C     		ldr	r0, [r3, #64]
 312              		.loc 1 327 69 view .LVU106
 313 0138 5A6C     		ldr	r2, [r3, #68]
 314 013a 02F01C01 		and	r1, r2, #28
 315              		.loc 1 327 46 view .LVU107
 316 013e 0122     		movs	r2, #1
 317 0140 8A40     		lsls	r2, r2, r1
 318              		.loc 1 327 30 view .LVU108
 319 0142 4260     		str	r2, [r0, #4]
 328:../Drivers/STM32L4xx_HAL_Driver/Src/stm32l4xx_hal_dma.c **** 
 329:../Drivers/STM32L4xx_HAL_Driver/Src/stm32l4xx_hal_dma.c **** #if !defined (DMAMUX1)
 330:../Drivers/STM32L4xx_HAL_Driver/Src/stm32l4xx_hal_dma.c **** 
 331:../Drivers/STM32L4xx_HAL_Driver/Src/stm32l4xx_hal_dma.c ****   /* Reset DMA channel selection register */
 332:../Drivers/STM32L4xx_HAL_Driver/Src/stm32l4xx_hal_dma.c ****   if (DMA1 == hdma->DmaBaseAddress)
 320              		.loc 1 332 3 is_stmt 1 view .LVU109
 321              		.loc 1 332 6 is_stmt 0 view .LVU110
 322 0144 196C     		ldr	r1, [r3, #64]
 323 0146 1D4A     		ldr	r2, .L19+12
 324 0148 9142     		cmp	r1, r2
 325 014a 22D0     		beq	.L18
 333:../Drivers/STM32L4xx_HAL_Driver/Src/stm32l4xx_hal_dma.c ****   {
 334:../Drivers/STM32L4xx_HAL_Driver/Src/stm32l4xx_hal_dma.c ****     /* DMA1 */
 335:../Drivers/STM32L4xx_HAL_Driver/Src/stm32l4xx_hal_dma.c ****     DMA1_CSELR->CSELR &= ~(DMA_CSELR_C1S << (hdma->ChannelIndex & 0x1cU));
 336:../Drivers/STM32L4xx_HAL_Driver/Src/stm32l4xx_hal_dma.c ****   }
 337:../Drivers/STM32L4xx_HAL_Driver/Src/stm32l4xx_hal_dma.c ****   else
 338:../Drivers/STM32L4xx_HAL_Driver/Src/stm32l4xx_hal_dma.c ****   {
ARM GAS  C:\Users\hoodc\AppData\Local\Temp\cc4eu5v8.s 			page 13


 339:../Drivers/STM32L4xx_HAL_Driver/Src/stm32l4xx_hal_dma.c ****     /* DMA2 */
 340:../Drivers/STM32L4xx_HAL_Driver/Src/stm32l4xx_hal_dma.c ****     DMA2_CSELR->CSELR &= ~(DMA_CSELR_C1S << (hdma->ChannelIndex & 0x1cU));
 326              		.loc 1 340 5 is_stmt 1 view .LVU111
 327              		.loc 1 340 23 is_stmt 0 view .LVU112
 328 014c 1B4C     		ldr	r4, .L19+12
 329 014e D4F8A824 		ldr	r2, [r4, #1192]
 330              		.loc 1 340 65 view .LVU113
 331 0152 596C     		ldr	r1, [r3, #68]
 332 0154 01F01C00 		and	r0, r1, #28
 333              		.loc 1 340 42 view .LVU114
 334 0158 0F21     		movs	r1, #15
 335 015a 8140     		lsls	r1, r1, r0
 336              		.loc 1 340 23 view .LVU115
 337 015c 22EA0102 		bic	r2, r2, r1
 338 0160 C4F8A824 		str	r2, [r4, #1192]
 339              	.L16:
 341:../Drivers/STM32L4xx_HAL_Driver/Src/stm32l4xx_hal_dma.c ****   }
 342:../Drivers/STM32L4xx_HAL_Driver/Src/stm32l4xx_hal_dma.c **** #endif /* STM32L431xx || STM32L432xx || STM32L433xx || STM32L442xx || STM32L443xx */
 343:../Drivers/STM32L4xx_HAL_Driver/Src/stm32l4xx_hal_dma.c ****        /* STM32L471xx || STM32L475xx || STM32L476xx || STM32L442xx || STM32L486xx */
 344:../Drivers/STM32L4xx_HAL_Driver/Src/stm32l4xx_hal_dma.c ****        /* STM32L496xx || STM32L4A6xx                                              */
 345:../Drivers/STM32L4xx_HAL_Driver/Src/stm32l4xx_hal_dma.c **** 
 346:../Drivers/STM32L4xx_HAL_Driver/Src/stm32l4xx_hal_dma.c **** #if defined(DMAMUX1)
 347:../Drivers/STM32L4xx_HAL_Driver/Src/stm32l4xx_hal_dma.c **** 
 348:../Drivers/STM32L4xx_HAL_Driver/Src/stm32l4xx_hal_dma.c ****   /* Initialize parameters for DMAMUX channel :
 349:../Drivers/STM32L4xx_HAL_Driver/Src/stm32l4xx_hal_dma.c ****      DMAmuxChannel, DMAmuxChannelStatus and DMAmuxChannelStatusMask */
 350:../Drivers/STM32L4xx_HAL_Driver/Src/stm32l4xx_hal_dma.c **** 
 351:../Drivers/STM32L4xx_HAL_Driver/Src/stm32l4xx_hal_dma.c ****   DMA_CalcDMAMUXChannelBaseAndMask(hdma);
 352:../Drivers/STM32L4xx_HAL_Driver/Src/stm32l4xx_hal_dma.c **** 
 353:../Drivers/STM32L4xx_HAL_Driver/Src/stm32l4xx_hal_dma.c ****   /* Reset the DMAMUX channel that corresponds to the DMA channel */
 354:../Drivers/STM32L4xx_HAL_Driver/Src/stm32l4xx_hal_dma.c ****   hdma->DMAmuxChannel->CCR = 0U;
 355:../Drivers/STM32L4xx_HAL_Driver/Src/stm32l4xx_hal_dma.c **** 
 356:../Drivers/STM32L4xx_HAL_Driver/Src/stm32l4xx_hal_dma.c ****   /* Clear the DMAMUX synchro overrun flag */
 357:../Drivers/STM32L4xx_HAL_Driver/Src/stm32l4xx_hal_dma.c ****   hdma->DMAmuxChannelStatus->CFR = hdma->DMAmuxChannelStatusMask;
 358:../Drivers/STM32L4xx_HAL_Driver/Src/stm32l4xx_hal_dma.c **** 
 359:../Drivers/STM32L4xx_HAL_Driver/Src/stm32l4xx_hal_dma.c ****   /* Reset Request generator parameters if any */
 360:../Drivers/STM32L4xx_HAL_Driver/Src/stm32l4xx_hal_dma.c ****   if(((hdma->Init.Request >  0U) && (hdma->Init.Request <= DMA_REQUEST_GENERATOR3)))
 361:../Drivers/STM32L4xx_HAL_Driver/Src/stm32l4xx_hal_dma.c ****   {
 362:../Drivers/STM32L4xx_HAL_Driver/Src/stm32l4xx_hal_dma.c ****     /* Initialize parameters for DMAMUX request generator :
 363:../Drivers/STM32L4xx_HAL_Driver/Src/stm32l4xx_hal_dma.c ****        DMAmuxRequestGen, DMAmuxRequestGenStatus and DMAmuxRequestGenStatusMask
 364:../Drivers/STM32L4xx_HAL_Driver/Src/stm32l4xx_hal_dma.c ****     */
 365:../Drivers/STM32L4xx_HAL_Driver/Src/stm32l4xx_hal_dma.c ****     DMA_CalcDMAMUXRequestGenBaseAndMask(hdma);
 366:../Drivers/STM32L4xx_HAL_Driver/Src/stm32l4xx_hal_dma.c **** 
 367:../Drivers/STM32L4xx_HAL_Driver/Src/stm32l4xx_hal_dma.c ****     /* Reset the DMAMUX request generator register*/
 368:../Drivers/STM32L4xx_HAL_Driver/Src/stm32l4xx_hal_dma.c ****     hdma->DMAmuxRequestGen->RGCR = 0U;
 369:../Drivers/STM32L4xx_HAL_Driver/Src/stm32l4xx_hal_dma.c **** 
 370:../Drivers/STM32L4xx_HAL_Driver/Src/stm32l4xx_hal_dma.c ****     /* Clear the DMAMUX request generator overrun flag */
 371:../Drivers/STM32L4xx_HAL_Driver/Src/stm32l4xx_hal_dma.c ****     hdma->DMAmuxRequestGenStatus->RGCFR = hdma->DMAmuxRequestGenStatusMask;
 372:../Drivers/STM32L4xx_HAL_Driver/Src/stm32l4xx_hal_dma.c ****   }
 373:../Drivers/STM32L4xx_HAL_Driver/Src/stm32l4xx_hal_dma.c **** 
 374:../Drivers/STM32L4xx_HAL_Driver/Src/stm32l4xx_hal_dma.c ****   hdma->DMAmuxRequestGen = 0U;
 375:../Drivers/STM32L4xx_HAL_Driver/Src/stm32l4xx_hal_dma.c ****   hdma->DMAmuxRequestGenStatus = 0U;
 376:../Drivers/STM32L4xx_HAL_Driver/Src/stm32l4xx_hal_dma.c ****   hdma->DMAmuxRequestGenStatusMask = 0U;
 377:../Drivers/STM32L4xx_HAL_Driver/Src/stm32l4xx_hal_dma.c **** 
 378:../Drivers/STM32L4xx_HAL_Driver/Src/stm32l4xx_hal_dma.c **** #endif /* DMAMUX1 */
 379:../Drivers/STM32L4xx_HAL_Driver/Src/stm32l4xx_hal_dma.c **** 
 380:../Drivers/STM32L4xx_HAL_Driver/Src/stm32l4xx_hal_dma.c ****   /* Clean callbacks */
 381:../Drivers/STM32L4xx_HAL_Driver/Src/stm32l4xx_hal_dma.c ****   hdma->XferCpltCallback = NULL;
ARM GAS  C:\Users\hoodc\AppData\Local\Temp\cc4eu5v8.s 			page 14


 340              		.loc 1 381 3 is_stmt 1 view .LVU116
 341              		.loc 1 381 26 is_stmt 0 view .LVU117
 342 0164 0020     		movs	r0, #0
 343 0166 D862     		str	r0, [r3, #44]
 382:../Drivers/STM32L4xx_HAL_Driver/Src/stm32l4xx_hal_dma.c ****   hdma->XferHalfCpltCallback = NULL;
 344              		.loc 1 382 3 is_stmt 1 view .LVU118
 345              		.loc 1 382 30 is_stmt 0 view .LVU119
 346 0168 1863     		str	r0, [r3, #48]
 383:../Drivers/STM32L4xx_HAL_Driver/Src/stm32l4xx_hal_dma.c ****   hdma->XferErrorCallback = NULL;
 347              		.loc 1 383 3 is_stmt 1 view .LVU120
 348              		.loc 1 383 27 is_stmt 0 view .LVU121
 349 016a 5863     		str	r0, [r3, #52]
 384:../Drivers/STM32L4xx_HAL_Driver/Src/stm32l4xx_hal_dma.c ****   hdma->XferAbortCallback = NULL;
 350              		.loc 1 384 3 is_stmt 1 view .LVU122
 351              		.loc 1 384 27 is_stmt 0 view .LVU123
 352 016c 9863     		str	r0, [r3, #56]
 385:../Drivers/STM32L4xx_HAL_Driver/Src/stm32l4xx_hal_dma.c **** 
 386:../Drivers/STM32L4xx_HAL_Driver/Src/stm32l4xx_hal_dma.c ****   /* Initialise the error code */
 387:../Drivers/STM32L4xx_HAL_Driver/Src/stm32l4xx_hal_dma.c ****   hdma->ErrorCode = HAL_DMA_ERROR_NONE;
 353              		.loc 1 387 3 is_stmt 1 view .LVU124
 354              		.loc 1 387 19 is_stmt 0 view .LVU125
 355 016e D863     		str	r0, [r3, #60]
 388:../Drivers/STM32L4xx_HAL_Driver/Src/stm32l4xx_hal_dma.c **** 
 389:../Drivers/STM32L4xx_HAL_Driver/Src/stm32l4xx_hal_dma.c ****   /* Initialize the DMA state */
 390:../Drivers/STM32L4xx_HAL_Driver/Src/stm32l4xx_hal_dma.c ****   hdma->State = HAL_DMA_STATE_RESET;
 356              		.loc 1 390 3 is_stmt 1 view .LVU126
 357              		.loc 1 390 15 is_stmt 0 view .LVU127
 358 0170 83F82500 		strb	r0, [r3, #37]
 391:../Drivers/STM32L4xx_HAL_Driver/Src/stm32l4xx_hal_dma.c **** 
 392:../Drivers/STM32L4xx_HAL_Driver/Src/stm32l4xx_hal_dma.c ****   /* Release Lock */
 393:../Drivers/STM32L4xx_HAL_Driver/Src/stm32l4xx_hal_dma.c ****   __HAL_UNLOCK(hdma);
 359              		.loc 1 393 3 is_stmt 1 view .LVU128
 360              		.loc 1 393 3 view .LVU129
 361 0174 83F82400 		strb	r0, [r3, #36]
 362              		.loc 1 393 3 view .LVU130
 394:../Drivers/STM32L4xx_HAL_Driver/Src/stm32l4xx_hal_dma.c **** 
 395:../Drivers/STM32L4xx_HAL_Driver/Src/stm32l4xx_hal_dma.c ****   return HAL_OK;
 363              		.loc 1 395 3 view .LVU131
 364              	.L12:
 396:../Drivers/STM32L4xx_HAL_Driver/Src/stm32l4xx_hal_dma.c **** }
 365              		.loc 1 396 1 is_stmt 0 view .LVU132
 366 0178 10BC     		pop	{r4}
 367              	.LCFI4:
 368              		.cfi_remember_state
 369              		.cfi_restore 4
 370              		.cfi_def_cfa_offset 0
 371 017a 7047     		bx	lr
 372              	.LVL14:
 373              	.L13:
 374              	.LCFI5:
 375              		.cfi_restore_state
 319:../Drivers/STM32L4xx_HAL_Driver/Src/stm32l4xx_hal_dma.c ****     hdma->DmaBaseAddress = DMA2;
 376              		.loc 1 319 5 is_stmt 1 view .LVU133
 319:../Drivers/STM32L4xx_HAL_Driver/Src/stm32l4xx_hal_dma.c ****     hdma->DmaBaseAddress = DMA2;
 377              		.loc 1 319 53 is_stmt 0 view .LVU134
 378 017c 104A     		ldr	r2, .L19+16
 379 017e 0A44     		add	r2, r2, r1
ARM GAS  C:\Users\hoodc\AppData\Local\Temp\cc4eu5v8.s 			page 15


 319:../Drivers/STM32L4xx_HAL_Driver/Src/stm32l4xx_hal_dma.c ****     hdma->DmaBaseAddress = DMA2;
 380              		.loc 1 319 80 view .LVU135
 381 0180 0D48     		ldr	r0, .L19+8
 382              	.LVL15:
 319:../Drivers/STM32L4xx_HAL_Driver/Src/stm32l4xx_hal_dma.c ****     hdma->DmaBaseAddress = DMA2;
 383              		.loc 1 319 80 view .LVU136
 384 0182 A0FB0202 		umull	r0, r2, r0, r2
 385 0186 1209     		lsrs	r2, r2, #4
 319:../Drivers/STM32L4xx_HAL_Driver/Src/stm32l4xx_hal_dma.c ****     hdma->DmaBaseAddress = DMA2;
 386              		.loc 1 319 135 view .LVU137
 387 0188 9200     		lsls	r2, r2, #2
 319:../Drivers/STM32L4xx_HAL_Driver/Src/stm32l4xx_hal_dma.c ****     hdma->DmaBaseAddress = DMA2;
 388              		.loc 1 319 24 view .LVU138
 389 018a 5A64     		str	r2, [r3, #68]
 320:../Drivers/STM32L4xx_HAL_Driver/Src/stm32l4xx_hal_dma.c ****   }
 390              		.loc 1 320 5 is_stmt 1 view .LVU139
 320:../Drivers/STM32L4xx_HAL_Driver/Src/stm32l4xx_hal_dma.c ****   }
 391              		.loc 1 320 26 is_stmt 0 view .LVU140
 392 018c 0D4A     		ldr	r2, .L19+20
 393 018e 1A64     		str	r2, [r3, #64]
 394 0190 CFE7     		b	.L14
 395              	.L18:
 335:../Drivers/STM32L4xx_HAL_Driver/Src/stm32l4xx_hal_dma.c ****   }
 396              		.loc 1 335 5 is_stmt 1 view .LVU141
 335:../Drivers/STM32L4xx_HAL_Driver/Src/stm32l4xx_hal_dma.c ****   }
 397              		.loc 1 335 23 is_stmt 0 view .LVU142
 398 0192 1446     		mov	r4, r2
 399 0194 D2F8A820 		ldr	r2, [r2, #168]
 335:../Drivers/STM32L4xx_HAL_Driver/Src/stm32l4xx_hal_dma.c ****   }
 400              		.loc 1 335 65 view .LVU143
 401 0198 596C     		ldr	r1, [r3, #68]
 402 019a 01F01C00 		and	r0, r1, #28
 335:../Drivers/STM32L4xx_HAL_Driver/Src/stm32l4xx_hal_dma.c ****   }
 403              		.loc 1 335 42 view .LVU144
 404 019e 0F21     		movs	r1, #15
 405 01a0 8140     		lsls	r1, r1, r0
 335:../Drivers/STM32L4xx_HAL_Driver/Src/stm32l4xx_hal_dma.c ****   }
 406              		.loc 1 335 23 view .LVU145
 407 01a2 22EA0102 		bic	r2, r2, r1
 408 01a6 C4F8A820 		str	r2, [r4, #168]
 409 01aa DBE7     		b	.L16
 410              	.LVL16:
 411              	.L17:
 300:../Drivers/STM32L4xx_HAL_Driver/Src/stm32l4xx_hal_dma.c ****   }
 412              		.loc 1 300 12 view .LVU146
 413 01ac 0120     		movs	r0, #1
 414              	.LVL17:
 300:../Drivers/STM32L4xx_HAL_Driver/Src/stm32l4xx_hal_dma.c ****   }
 415              		.loc 1 300 12 view .LVU147
 416 01ae E3E7     		b	.L12
 417              	.L20:
 418              		.align	2
 419              	.L19:
 420 01b0 07040240 		.word	1073873927
 421 01b4 F8FFFDBF 		.word	-1073872904
 422 01b8 CDCCCCCC 		.word	-858993459
 423 01bc 00000240 		.word	1073872896
ARM GAS  C:\Users\hoodc\AppData\Local\Temp\cc4eu5v8.s 			page 16


 424 01c0 F8FBFDBF 		.word	-1073873928
 425 01c4 00040240 		.word	1073873920
 426              		.cfi_endproc
 427              	.LFE134:
 428              		.size	HAL_DMA_DeInit, .-HAL_DMA_DeInit
 429              		.align	1
 430              		.global	HAL_DMA_Start
 431              		.syntax unified
 432              		.thumb
 433              		.thumb_func
 434              		.fpu softvfp
 435              		.type	HAL_DMA_Start, %function
 436              	HAL_DMA_Start:
 437              	.LVL18:
 438              	.LFB135:
 397:../Drivers/STM32L4xx_HAL_Driver/Src/stm32l4xx_hal_dma.c **** 
 398:../Drivers/STM32L4xx_HAL_Driver/Src/stm32l4xx_hal_dma.c **** /**
 399:../Drivers/STM32L4xx_HAL_Driver/Src/stm32l4xx_hal_dma.c ****   * @}
 400:../Drivers/STM32L4xx_HAL_Driver/Src/stm32l4xx_hal_dma.c ****   */
 401:../Drivers/STM32L4xx_HAL_Driver/Src/stm32l4xx_hal_dma.c **** 
 402:../Drivers/STM32L4xx_HAL_Driver/Src/stm32l4xx_hal_dma.c **** /** @defgroup DMA_Exported_Functions_Group2 Input and Output operation functions
 403:../Drivers/STM32L4xx_HAL_Driver/Src/stm32l4xx_hal_dma.c ****  *  @brief   Input and Output operation functions
 404:../Drivers/STM32L4xx_HAL_Driver/Src/stm32l4xx_hal_dma.c ****  *
 405:../Drivers/STM32L4xx_HAL_Driver/Src/stm32l4xx_hal_dma.c **** @verbatim
 406:../Drivers/STM32L4xx_HAL_Driver/Src/stm32l4xx_hal_dma.c ****  ===============================================================================
 407:../Drivers/STM32L4xx_HAL_Driver/Src/stm32l4xx_hal_dma.c ****                       #####  IO operation functions  #####
 408:../Drivers/STM32L4xx_HAL_Driver/Src/stm32l4xx_hal_dma.c ****  ===============================================================================
 409:../Drivers/STM32L4xx_HAL_Driver/Src/stm32l4xx_hal_dma.c ****     [..]  This section provides functions allowing to:
 410:../Drivers/STM32L4xx_HAL_Driver/Src/stm32l4xx_hal_dma.c ****       (+) Configure the source, destination address and data length and Start DMA transfer
 411:../Drivers/STM32L4xx_HAL_Driver/Src/stm32l4xx_hal_dma.c ****       (+) Configure the source, destination address and data length and
 412:../Drivers/STM32L4xx_HAL_Driver/Src/stm32l4xx_hal_dma.c ****           Start DMA transfer with interrupt
 413:../Drivers/STM32L4xx_HAL_Driver/Src/stm32l4xx_hal_dma.c ****       (+) Abort DMA transfer
 414:../Drivers/STM32L4xx_HAL_Driver/Src/stm32l4xx_hal_dma.c ****       (+) Poll for transfer complete
 415:../Drivers/STM32L4xx_HAL_Driver/Src/stm32l4xx_hal_dma.c ****       (+) Handle DMA interrupt request
 416:../Drivers/STM32L4xx_HAL_Driver/Src/stm32l4xx_hal_dma.c **** 
 417:../Drivers/STM32L4xx_HAL_Driver/Src/stm32l4xx_hal_dma.c **** @endverbatim
 418:../Drivers/STM32L4xx_HAL_Driver/Src/stm32l4xx_hal_dma.c ****   * @{
 419:../Drivers/STM32L4xx_HAL_Driver/Src/stm32l4xx_hal_dma.c ****   */
 420:../Drivers/STM32L4xx_HAL_Driver/Src/stm32l4xx_hal_dma.c **** 
 421:../Drivers/STM32L4xx_HAL_Driver/Src/stm32l4xx_hal_dma.c **** /**
 422:../Drivers/STM32L4xx_HAL_Driver/Src/stm32l4xx_hal_dma.c ****   * @brief  Start the DMA Transfer.
 423:../Drivers/STM32L4xx_HAL_Driver/Src/stm32l4xx_hal_dma.c ****   * @param  hdma pointer to a DMA_HandleTypeDef structure that contains
 424:../Drivers/STM32L4xx_HAL_Driver/Src/stm32l4xx_hal_dma.c ****   *               the configuration information for the specified DMA Channel.
 425:../Drivers/STM32L4xx_HAL_Driver/Src/stm32l4xx_hal_dma.c ****   * @param  SrcAddress The source memory Buffer address
 426:../Drivers/STM32L4xx_HAL_Driver/Src/stm32l4xx_hal_dma.c ****   * @param  DstAddress The destination memory Buffer address
 427:../Drivers/STM32L4xx_HAL_Driver/Src/stm32l4xx_hal_dma.c ****   * @param  DataLength The length of data to be transferred from source to destination
 428:../Drivers/STM32L4xx_HAL_Driver/Src/stm32l4xx_hal_dma.c ****   * @retval HAL status
 429:../Drivers/STM32L4xx_HAL_Driver/Src/stm32l4xx_hal_dma.c ****   */
 430:../Drivers/STM32L4xx_HAL_Driver/Src/stm32l4xx_hal_dma.c **** HAL_StatusTypeDef HAL_DMA_Start(DMA_HandleTypeDef *hdma, uint32_t SrcAddress, uint32_t DstAddress, 
 431:../Drivers/STM32L4xx_HAL_Driver/Src/stm32l4xx_hal_dma.c **** {
 439              		.loc 1 431 1 is_stmt 1 view -0
 440              		.cfi_startproc
 441              		@ args = 0, pretend = 0, frame = 0
 442              		@ frame_needed = 0, uses_anonymous_args = 0
 443              		@ link register save eliminated.
 444              		.loc 1 431 1 is_stmt 0 view .LVU149
 445 01c8 30B4     		push	{r4, r5}
ARM GAS  C:\Users\hoodc\AppData\Local\Temp\cc4eu5v8.s 			page 17


 446              	.LCFI6:
 447              		.cfi_def_cfa_offset 8
 448              		.cfi_offset 4, -8
 449              		.cfi_offset 5, -4
 432:../Drivers/STM32L4xx_HAL_Driver/Src/stm32l4xx_hal_dma.c ****   HAL_StatusTypeDef status = HAL_OK;
 450              		.loc 1 432 3 is_stmt 1 view .LVU150
 451              	.LVL19:
 433:../Drivers/STM32L4xx_HAL_Driver/Src/stm32l4xx_hal_dma.c **** 
 434:../Drivers/STM32L4xx_HAL_Driver/Src/stm32l4xx_hal_dma.c ****   /* Check the parameters */
 435:../Drivers/STM32L4xx_HAL_Driver/Src/stm32l4xx_hal_dma.c ****   assert_param(IS_DMA_BUFFER_SIZE(DataLength));
 452              		.loc 1 435 3 view .LVU151
 436:../Drivers/STM32L4xx_HAL_Driver/Src/stm32l4xx_hal_dma.c **** 
 437:../Drivers/STM32L4xx_HAL_Driver/Src/stm32l4xx_hal_dma.c ****   /* Process locked */
 438:../Drivers/STM32L4xx_HAL_Driver/Src/stm32l4xx_hal_dma.c ****   __HAL_LOCK(hdma);
 453              		.loc 1 438 3 view .LVU152
 454              		.loc 1 438 3 view .LVU153
 455 01ca 90F824C0 		ldrb	ip, [r0, #36]	@ zero_extendqisi2
 456 01ce BCF1010F 		cmp	ip, #1
 457 01d2 37D0     		beq	.L26
 458              		.loc 1 438 3 discriminator 2 view .LVU154
 459 01d4 4FF0010C 		mov	ip, #1
 460 01d8 80F824C0 		strb	ip, [r0, #36]
 461              		.loc 1 438 3 discriminator 2 view .LVU155
 439:../Drivers/STM32L4xx_HAL_Driver/Src/stm32l4xx_hal_dma.c **** 
 440:../Drivers/STM32L4xx_HAL_Driver/Src/stm32l4xx_hal_dma.c ****   if(HAL_DMA_STATE_READY == hdma->State)
 462              		.loc 1 440 3 discriminator 2 view .LVU156
 463              		.loc 1 440 33 is_stmt 0 discriminator 2 view .LVU157
 464 01dc 90F825C0 		ldrb	ip, [r0, #37]	@ zero_extendqisi2
 465 01e0 5FFA8CFC 		uxtb	ip, ip
 466              		.loc 1 440 5 discriminator 2 view .LVU158
 467 01e4 BCF1010F 		cmp	ip, #1
 468 01e8 05D0     		beq	.L27
 441:../Drivers/STM32L4xx_HAL_Driver/Src/stm32l4xx_hal_dma.c ****   {
 442:../Drivers/STM32L4xx_HAL_Driver/Src/stm32l4xx_hal_dma.c ****     /* Change DMA peripheral state */
 443:../Drivers/STM32L4xx_HAL_Driver/Src/stm32l4xx_hal_dma.c ****     hdma->State = HAL_DMA_STATE_BUSY;
 444:../Drivers/STM32L4xx_HAL_Driver/Src/stm32l4xx_hal_dma.c ****     hdma->ErrorCode = HAL_DMA_ERROR_NONE;
 445:../Drivers/STM32L4xx_HAL_Driver/Src/stm32l4xx_hal_dma.c **** 
 446:../Drivers/STM32L4xx_HAL_Driver/Src/stm32l4xx_hal_dma.c ****     /* Disable the peripheral */
 447:../Drivers/STM32L4xx_HAL_Driver/Src/stm32l4xx_hal_dma.c ****     __HAL_DMA_DISABLE(hdma);
 448:../Drivers/STM32L4xx_HAL_Driver/Src/stm32l4xx_hal_dma.c **** 
 449:../Drivers/STM32L4xx_HAL_Driver/Src/stm32l4xx_hal_dma.c ****     /* Configure the source, destination address and the data length & clear flags*/
 450:../Drivers/STM32L4xx_HAL_Driver/Src/stm32l4xx_hal_dma.c ****     DMA_SetConfig(hdma, SrcAddress, DstAddress, DataLength);
 451:../Drivers/STM32L4xx_HAL_Driver/Src/stm32l4xx_hal_dma.c **** 
 452:../Drivers/STM32L4xx_HAL_Driver/Src/stm32l4xx_hal_dma.c ****     /* Enable the Peripheral */
 453:../Drivers/STM32L4xx_HAL_Driver/Src/stm32l4xx_hal_dma.c ****     __HAL_DMA_ENABLE(hdma);
 454:../Drivers/STM32L4xx_HAL_Driver/Src/stm32l4xx_hal_dma.c ****   }
 455:../Drivers/STM32L4xx_HAL_Driver/Src/stm32l4xx_hal_dma.c ****   else
 456:../Drivers/STM32L4xx_HAL_Driver/Src/stm32l4xx_hal_dma.c ****   {
 457:../Drivers/STM32L4xx_HAL_Driver/Src/stm32l4xx_hal_dma.c ****     /* Process Unlocked */
 458:../Drivers/STM32L4xx_HAL_Driver/Src/stm32l4xx_hal_dma.c ****     __HAL_UNLOCK(hdma);
 469              		.loc 1 458 5 is_stmt 1 view .LVU159
 470              		.loc 1 458 5 view .LVU160
 471 01ea 0023     		movs	r3, #0
 472              	.LVL20:
 473              		.loc 1 458 5 is_stmt 0 view .LVU161
 474 01ec 80F82430 		strb	r3, [r0, #36]
 475              		.loc 1 458 5 is_stmt 1 view .LVU162
ARM GAS  C:\Users\hoodc\AppData\Local\Temp\cc4eu5v8.s 			page 18


 459:../Drivers/STM32L4xx_HAL_Driver/Src/stm32l4xx_hal_dma.c ****     status = HAL_BUSY;
 476              		.loc 1 459 5 view .LVU163
 477              	.LVL21:
 478              		.loc 1 459 12 is_stmt 0 view .LVU164
 479 01f0 0220     		movs	r0, #2
 480              	.LVL22:
 481              	.L22:
 460:../Drivers/STM32L4xx_HAL_Driver/Src/stm32l4xx_hal_dma.c ****   }
 461:../Drivers/STM32L4xx_HAL_Driver/Src/stm32l4xx_hal_dma.c ****   return status;
 462:../Drivers/STM32L4xx_HAL_Driver/Src/stm32l4xx_hal_dma.c **** }
 482              		.loc 1 462 1 view .LVU165
 483 01f2 30BC     		pop	{r4, r5}
 484              	.LCFI7:
 485              		.cfi_remember_state
 486              		.cfi_restore 5
 487              		.cfi_restore 4
 488              		.cfi_def_cfa_offset 0
 489 01f4 7047     		bx	lr
 490              	.LVL23:
 491              	.L27:
 492              	.LCFI8:
 493              		.cfi_restore_state
 443:../Drivers/STM32L4xx_HAL_Driver/Src/stm32l4xx_hal_dma.c ****     hdma->ErrorCode = HAL_DMA_ERROR_NONE;
 494              		.loc 1 443 5 is_stmt 1 view .LVU166
 443:../Drivers/STM32L4xx_HAL_Driver/Src/stm32l4xx_hal_dma.c ****     hdma->ErrorCode = HAL_DMA_ERROR_NONE;
 495              		.loc 1 443 17 is_stmt 0 view .LVU167
 496 01f6 0224     		movs	r4, #2
 497 01f8 80F82540 		strb	r4, [r0, #37]
 444:../Drivers/STM32L4xx_HAL_Driver/Src/stm32l4xx_hal_dma.c **** 
 498              		.loc 1 444 5 is_stmt 1 view .LVU168
 444:../Drivers/STM32L4xx_HAL_Driver/Src/stm32l4xx_hal_dma.c **** 
 499              		.loc 1 444 21 is_stmt 0 view .LVU169
 500 01fc 0024     		movs	r4, #0
 501 01fe C463     		str	r4, [r0, #60]
 447:../Drivers/STM32L4xx_HAL_Driver/Src/stm32l4xx_hal_dma.c **** 
 502              		.loc 1 447 5 is_stmt 1 view .LVU170
 503 0200 0568     		ldr	r5, [r0]
 504 0202 2C68     		ldr	r4, [r5]
 505 0204 24F00104 		bic	r4, r4, #1
 506 0208 2C60     		str	r4, [r5]
 450:../Drivers/STM32L4xx_HAL_Driver/Src/stm32l4xx_hal_dma.c **** 
 507              		.loc 1 450 5 view .LVU171
 508              	.LVL24:
 509              	.LBB4:
 510              	.LBI4:
 463:../Drivers/STM32L4xx_HAL_Driver/Src/stm32l4xx_hal_dma.c **** 
 464:../Drivers/STM32L4xx_HAL_Driver/Src/stm32l4xx_hal_dma.c **** /**
 465:../Drivers/STM32L4xx_HAL_Driver/Src/stm32l4xx_hal_dma.c ****   * @brief  Start the DMA Transfer with interrupt enabled.
 466:../Drivers/STM32L4xx_HAL_Driver/Src/stm32l4xx_hal_dma.c ****   * @param  hdma pointer to a DMA_HandleTypeDef structure that contains
 467:../Drivers/STM32L4xx_HAL_Driver/Src/stm32l4xx_hal_dma.c ****   *               the configuration information for the specified DMA Channel.
 468:../Drivers/STM32L4xx_HAL_Driver/Src/stm32l4xx_hal_dma.c ****   * @param  SrcAddress The source memory Buffer address
 469:../Drivers/STM32L4xx_HAL_Driver/Src/stm32l4xx_hal_dma.c ****   * @param  DstAddress The destination memory Buffer address
 470:../Drivers/STM32L4xx_HAL_Driver/Src/stm32l4xx_hal_dma.c ****   * @param  DataLength The length of data to be transferred from source to destination
 471:../Drivers/STM32L4xx_HAL_Driver/Src/stm32l4xx_hal_dma.c ****   * @retval HAL status
 472:../Drivers/STM32L4xx_HAL_Driver/Src/stm32l4xx_hal_dma.c ****   */
 473:../Drivers/STM32L4xx_HAL_Driver/Src/stm32l4xx_hal_dma.c **** HAL_StatusTypeDef HAL_DMA_Start_IT(DMA_HandleTypeDef *hdma, uint32_t SrcAddress, uint32_t DstAddres
 474:../Drivers/STM32L4xx_HAL_Driver/Src/stm32l4xx_hal_dma.c **** {
ARM GAS  C:\Users\hoodc\AppData\Local\Temp\cc4eu5v8.s 			page 19


 475:../Drivers/STM32L4xx_HAL_Driver/Src/stm32l4xx_hal_dma.c ****   HAL_StatusTypeDef status = HAL_OK;
 476:../Drivers/STM32L4xx_HAL_Driver/Src/stm32l4xx_hal_dma.c **** 
 477:../Drivers/STM32L4xx_HAL_Driver/Src/stm32l4xx_hal_dma.c ****   /* Check the parameters */
 478:../Drivers/STM32L4xx_HAL_Driver/Src/stm32l4xx_hal_dma.c ****   assert_param(IS_DMA_BUFFER_SIZE(DataLength));
 479:../Drivers/STM32L4xx_HAL_Driver/Src/stm32l4xx_hal_dma.c **** 
 480:../Drivers/STM32L4xx_HAL_Driver/Src/stm32l4xx_hal_dma.c ****   /* Process locked */
 481:../Drivers/STM32L4xx_HAL_Driver/Src/stm32l4xx_hal_dma.c ****   __HAL_LOCK(hdma);
 482:../Drivers/STM32L4xx_HAL_Driver/Src/stm32l4xx_hal_dma.c **** 
 483:../Drivers/STM32L4xx_HAL_Driver/Src/stm32l4xx_hal_dma.c ****   if(HAL_DMA_STATE_READY == hdma->State)
 484:../Drivers/STM32L4xx_HAL_Driver/Src/stm32l4xx_hal_dma.c ****   {
 485:../Drivers/STM32L4xx_HAL_Driver/Src/stm32l4xx_hal_dma.c ****     /* Change DMA peripheral state */
 486:../Drivers/STM32L4xx_HAL_Driver/Src/stm32l4xx_hal_dma.c ****     hdma->State = HAL_DMA_STATE_BUSY;
 487:../Drivers/STM32L4xx_HAL_Driver/Src/stm32l4xx_hal_dma.c ****     hdma->ErrorCode = HAL_DMA_ERROR_NONE;
 488:../Drivers/STM32L4xx_HAL_Driver/Src/stm32l4xx_hal_dma.c **** 
 489:../Drivers/STM32L4xx_HAL_Driver/Src/stm32l4xx_hal_dma.c ****     /* Disable the peripheral */
 490:../Drivers/STM32L4xx_HAL_Driver/Src/stm32l4xx_hal_dma.c ****     __HAL_DMA_DISABLE(hdma);
 491:../Drivers/STM32L4xx_HAL_Driver/Src/stm32l4xx_hal_dma.c **** 
 492:../Drivers/STM32L4xx_HAL_Driver/Src/stm32l4xx_hal_dma.c ****     /* Configure the source, destination address and the data length & clear flags*/
 493:../Drivers/STM32L4xx_HAL_Driver/Src/stm32l4xx_hal_dma.c ****     DMA_SetConfig(hdma, SrcAddress, DstAddress, DataLength);
 494:../Drivers/STM32L4xx_HAL_Driver/Src/stm32l4xx_hal_dma.c **** 
 495:../Drivers/STM32L4xx_HAL_Driver/Src/stm32l4xx_hal_dma.c ****     /* Enable the transfer complete interrupt */
 496:../Drivers/STM32L4xx_HAL_Driver/Src/stm32l4xx_hal_dma.c ****     /* Enable the transfer Error interrupt */
 497:../Drivers/STM32L4xx_HAL_Driver/Src/stm32l4xx_hal_dma.c ****     if(NULL != hdma->XferHalfCpltCallback )
 498:../Drivers/STM32L4xx_HAL_Driver/Src/stm32l4xx_hal_dma.c ****     {
 499:../Drivers/STM32L4xx_HAL_Driver/Src/stm32l4xx_hal_dma.c ****       /* Enable the Half transfer complete interrupt as well */
 500:../Drivers/STM32L4xx_HAL_Driver/Src/stm32l4xx_hal_dma.c ****       __HAL_DMA_ENABLE_IT(hdma, (DMA_IT_TC | DMA_IT_HT | DMA_IT_TE));
 501:../Drivers/STM32L4xx_HAL_Driver/Src/stm32l4xx_hal_dma.c ****     }
 502:../Drivers/STM32L4xx_HAL_Driver/Src/stm32l4xx_hal_dma.c ****     else
 503:../Drivers/STM32L4xx_HAL_Driver/Src/stm32l4xx_hal_dma.c ****     {
 504:../Drivers/STM32L4xx_HAL_Driver/Src/stm32l4xx_hal_dma.c ****       __HAL_DMA_DISABLE_IT(hdma, DMA_IT_HT);
 505:../Drivers/STM32L4xx_HAL_Driver/Src/stm32l4xx_hal_dma.c ****       __HAL_DMA_ENABLE_IT(hdma, (DMA_IT_TC | DMA_IT_TE));
 506:../Drivers/STM32L4xx_HAL_Driver/Src/stm32l4xx_hal_dma.c ****     }
 507:../Drivers/STM32L4xx_HAL_Driver/Src/stm32l4xx_hal_dma.c **** 
 508:../Drivers/STM32L4xx_HAL_Driver/Src/stm32l4xx_hal_dma.c **** #ifdef DMAMUX1
 509:../Drivers/STM32L4xx_HAL_Driver/Src/stm32l4xx_hal_dma.c **** 
 510:../Drivers/STM32L4xx_HAL_Driver/Src/stm32l4xx_hal_dma.c ****     /* Check if DMAMUX Synchronization is enabled*/
 511:../Drivers/STM32L4xx_HAL_Driver/Src/stm32l4xx_hal_dma.c ****     if((hdma->DMAmuxChannel->CCR & DMAMUX_CxCR_SE) != 0U)
 512:../Drivers/STM32L4xx_HAL_Driver/Src/stm32l4xx_hal_dma.c ****     {
 513:../Drivers/STM32L4xx_HAL_Driver/Src/stm32l4xx_hal_dma.c ****       /* Enable DMAMUX sync overrun IT*/
 514:../Drivers/STM32L4xx_HAL_Driver/Src/stm32l4xx_hal_dma.c ****       hdma->DMAmuxChannel->CCR |= DMAMUX_CxCR_SOIE;
 515:../Drivers/STM32L4xx_HAL_Driver/Src/stm32l4xx_hal_dma.c ****     }
 516:../Drivers/STM32L4xx_HAL_Driver/Src/stm32l4xx_hal_dma.c **** 
 517:../Drivers/STM32L4xx_HAL_Driver/Src/stm32l4xx_hal_dma.c ****     if(hdma->DMAmuxRequestGen != 0U)
 518:../Drivers/STM32L4xx_HAL_Driver/Src/stm32l4xx_hal_dma.c ****     {
 519:../Drivers/STM32L4xx_HAL_Driver/Src/stm32l4xx_hal_dma.c ****       /* if using DMAMUX request generator, enable the DMAMUX request generator overrun IT*/
 520:../Drivers/STM32L4xx_HAL_Driver/Src/stm32l4xx_hal_dma.c ****       /* enable the request gen overrun IT*/
 521:../Drivers/STM32L4xx_HAL_Driver/Src/stm32l4xx_hal_dma.c ****       hdma->DMAmuxRequestGen->RGCR |= DMAMUX_RGxCR_OIE;
 522:../Drivers/STM32L4xx_HAL_Driver/Src/stm32l4xx_hal_dma.c ****     }
 523:../Drivers/STM32L4xx_HAL_Driver/Src/stm32l4xx_hal_dma.c **** 
 524:../Drivers/STM32L4xx_HAL_Driver/Src/stm32l4xx_hal_dma.c **** #endif /* DMAMUX1 */
 525:../Drivers/STM32L4xx_HAL_Driver/Src/stm32l4xx_hal_dma.c **** 
 526:../Drivers/STM32L4xx_HAL_Driver/Src/stm32l4xx_hal_dma.c ****     /* Enable the Peripheral */
 527:../Drivers/STM32L4xx_HAL_Driver/Src/stm32l4xx_hal_dma.c ****     __HAL_DMA_ENABLE(hdma);
 528:../Drivers/STM32L4xx_HAL_Driver/Src/stm32l4xx_hal_dma.c ****   }
 529:../Drivers/STM32L4xx_HAL_Driver/Src/stm32l4xx_hal_dma.c ****   else
 530:../Drivers/STM32L4xx_HAL_Driver/Src/stm32l4xx_hal_dma.c ****   {
 531:../Drivers/STM32L4xx_HAL_Driver/Src/stm32l4xx_hal_dma.c ****     /* Process Unlocked */
ARM GAS  C:\Users\hoodc\AppData\Local\Temp\cc4eu5v8.s 			page 20


 532:../Drivers/STM32L4xx_HAL_Driver/Src/stm32l4xx_hal_dma.c ****     __HAL_UNLOCK(hdma);
 533:../Drivers/STM32L4xx_HAL_Driver/Src/stm32l4xx_hal_dma.c **** 
 534:../Drivers/STM32L4xx_HAL_Driver/Src/stm32l4xx_hal_dma.c ****     /* Remain BUSY */
 535:../Drivers/STM32L4xx_HAL_Driver/Src/stm32l4xx_hal_dma.c ****     status = HAL_BUSY;
 536:../Drivers/STM32L4xx_HAL_Driver/Src/stm32l4xx_hal_dma.c ****   }
 537:../Drivers/STM32L4xx_HAL_Driver/Src/stm32l4xx_hal_dma.c ****   return status;
 538:../Drivers/STM32L4xx_HAL_Driver/Src/stm32l4xx_hal_dma.c **** }
 539:../Drivers/STM32L4xx_HAL_Driver/Src/stm32l4xx_hal_dma.c **** 
 540:../Drivers/STM32L4xx_HAL_Driver/Src/stm32l4xx_hal_dma.c **** /**
 541:../Drivers/STM32L4xx_HAL_Driver/Src/stm32l4xx_hal_dma.c ****   * @brief  Abort the DMA Transfer.
 542:../Drivers/STM32L4xx_HAL_Driver/Src/stm32l4xx_hal_dma.c ****   * @param  hdma pointer to a DMA_HandleTypeDef structure that contains
 543:../Drivers/STM32L4xx_HAL_Driver/Src/stm32l4xx_hal_dma.c ****   *               the configuration information for the specified DMA Channel.
 544:../Drivers/STM32L4xx_HAL_Driver/Src/stm32l4xx_hal_dma.c ****     * @retval HAL status
 545:../Drivers/STM32L4xx_HAL_Driver/Src/stm32l4xx_hal_dma.c ****   */
 546:../Drivers/STM32L4xx_HAL_Driver/Src/stm32l4xx_hal_dma.c **** HAL_StatusTypeDef HAL_DMA_Abort(DMA_HandleTypeDef *hdma)
 547:../Drivers/STM32L4xx_HAL_Driver/Src/stm32l4xx_hal_dma.c **** {
 548:../Drivers/STM32L4xx_HAL_Driver/Src/stm32l4xx_hal_dma.c ****   HAL_StatusTypeDef status = HAL_OK;
 549:../Drivers/STM32L4xx_HAL_Driver/Src/stm32l4xx_hal_dma.c **** 
 550:../Drivers/STM32L4xx_HAL_Driver/Src/stm32l4xx_hal_dma.c ****   /* Check the DMA peripheral state */
 551:../Drivers/STM32L4xx_HAL_Driver/Src/stm32l4xx_hal_dma.c ****   if(hdma->State != HAL_DMA_STATE_BUSY)
 552:../Drivers/STM32L4xx_HAL_Driver/Src/stm32l4xx_hal_dma.c ****   {
 553:../Drivers/STM32L4xx_HAL_Driver/Src/stm32l4xx_hal_dma.c ****     hdma->ErrorCode = HAL_DMA_ERROR_NO_XFER;
 554:../Drivers/STM32L4xx_HAL_Driver/Src/stm32l4xx_hal_dma.c **** 
 555:../Drivers/STM32L4xx_HAL_Driver/Src/stm32l4xx_hal_dma.c ****     /* Process Unlocked */
 556:../Drivers/STM32L4xx_HAL_Driver/Src/stm32l4xx_hal_dma.c ****     __HAL_UNLOCK(hdma);
 557:../Drivers/STM32L4xx_HAL_Driver/Src/stm32l4xx_hal_dma.c **** 
 558:../Drivers/STM32L4xx_HAL_Driver/Src/stm32l4xx_hal_dma.c ****     return HAL_ERROR;
 559:../Drivers/STM32L4xx_HAL_Driver/Src/stm32l4xx_hal_dma.c ****   }
 560:../Drivers/STM32L4xx_HAL_Driver/Src/stm32l4xx_hal_dma.c ****   else
 561:../Drivers/STM32L4xx_HAL_Driver/Src/stm32l4xx_hal_dma.c ****   {
 562:../Drivers/STM32L4xx_HAL_Driver/Src/stm32l4xx_hal_dma.c ****     /* Disable DMA IT */
 563:../Drivers/STM32L4xx_HAL_Driver/Src/stm32l4xx_hal_dma.c ****     __HAL_DMA_DISABLE_IT(hdma, (DMA_IT_TC | DMA_IT_HT | DMA_IT_TE));
 564:../Drivers/STM32L4xx_HAL_Driver/Src/stm32l4xx_hal_dma.c **** 
 565:../Drivers/STM32L4xx_HAL_Driver/Src/stm32l4xx_hal_dma.c **** #if defined(DMAMUX1)
 566:../Drivers/STM32L4xx_HAL_Driver/Src/stm32l4xx_hal_dma.c ****     /* disable the DMAMUX sync overrun IT*/
 567:../Drivers/STM32L4xx_HAL_Driver/Src/stm32l4xx_hal_dma.c ****     hdma->DMAmuxChannel->CCR &= ~DMAMUX_CxCR_SOIE;
 568:../Drivers/STM32L4xx_HAL_Driver/Src/stm32l4xx_hal_dma.c **** #endif /* DMAMUX1 */
 569:../Drivers/STM32L4xx_HAL_Driver/Src/stm32l4xx_hal_dma.c **** 
 570:../Drivers/STM32L4xx_HAL_Driver/Src/stm32l4xx_hal_dma.c ****     /* Disable the channel */
 571:../Drivers/STM32L4xx_HAL_Driver/Src/stm32l4xx_hal_dma.c ****     __HAL_DMA_DISABLE(hdma);
 572:../Drivers/STM32L4xx_HAL_Driver/Src/stm32l4xx_hal_dma.c **** 
 573:../Drivers/STM32L4xx_HAL_Driver/Src/stm32l4xx_hal_dma.c ****     /* Clear all flags */
 574:../Drivers/STM32L4xx_HAL_Driver/Src/stm32l4xx_hal_dma.c ****     hdma->DmaBaseAddress->IFCR = (DMA_ISR_GIF1 << (hdma->ChannelIndex & 0x1CU));
 575:../Drivers/STM32L4xx_HAL_Driver/Src/stm32l4xx_hal_dma.c **** 
 576:../Drivers/STM32L4xx_HAL_Driver/Src/stm32l4xx_hal_dma.c **** #if defined(DMAMUX1)
 577:../Drivers/STM32L4xx_HAL_Driver/Src/stm32l4xx_hal_dma.c ****     /* Clear the DMAMUX synchro overrun flag */
 578:../Drivers/STM32L4xx_HAL_Driver/Src/stm32l4xx_hal_dma.c ****     hdma->DMAmuxChannelStatus->CFR = hdma->DMAmuxChannelStatusMask;
 579:../Drivers/STM32L4xx_HAL_Driver/Src/stm32l4xx_hal_dma.c **** 
 580:../Drivers/STM32L4xx_HAL_Driver/Src/stm32l4xx_hal_dma.c ****     if(hdma->DMAmuxRequestGen != 0U)
 581:../Drivers/STM32L4xx_HAL_Driver/Src/stm32l4xx_hal_dma.c ****     {
 582:../Drivers/STM32L4xx_HAL_Driver/Src/stm32l4xx_hal_dma.c ****       /* if using DMAMUX request generator, disable the DMAMUX request generator overrun IT*/
 583:../Drivers/STM32L4xx_HAL_Driver/Src/stm32l4xx_hal_dma.c ****       /* disable the request gen overrun IT*/
 584:../Drivers/STM32L4xx_HAL_Driver/Src/stm32l4xx_hal_dma.c ****       hdma->DMAmuxRequestGen->RGCR &= ~DMAMUX_RGxCR_OIE;
 585:../Drivers/STM32L4xx_HAL_Driver/Src/stm32l4xx_hal_dma.c **** 
 586:../Drivers/STM32L4xx_HAL_Driver/Src/stm32l4xx_hal_dma.c ****       /* Clear the DMAMUX request generator overrun flag */
 587:../Drivers/STM32L4xx_HAL_Driver/Src/stm32l4xx_hal_dma.c ****       hdma->DMAmuxRequestGenStatus->RGCFR = hdma->DMAmuxRequestGenStatusMask;
 588:../Drivers/STM32L4xx_HAL_Driver/Src/stm32l4xx_hal_dma.c ****     }
ARM GAS  C:\Users\hoodc\AppData\Local\Temp\cc4eu5v8.s 			page 21


 589:../Drivers/STM32L4xx_HAL_Driver/Src/stm32l4xx_hal_dma.c **** 
 590:../Drivers/STM32L4xx_HAL_Driver/Src/stm32l4xx_hal_dma.c **** #endif /* DMAMUX1 */
 591:../Drivers/STM32L4xx_HAL_Driver/Src/stm32l4xx_hal_dma.c **** 
 592:../Drivers/STM32L4xx_HAL_Driver/Src/stm32l4xx_hal_dma.c ****     /* Change the DMA state */
 593:../Drivers/STM32L4xx_HAL_Driver/Src/stm32l4xx_hal_dma.c ****     hdma->State = HAL_DMA_STATE_READY;
 594:../Drivers/STM32L4xx_HAL_Driver/Src/stm32l4xx_hal_dma.c **** 
 595:../Drivers/STM32L4xx_HAL_Driver/Src/stm32l4xx_hal_dma.c ****     /* Process Unlocked */
 596:../Drivers/STM32L4xx_HAL_Driver/Src/stm32l4xx_hal_dma.c ****     __HAL_UNLOCK(hdma);
 597:../Drivers/STM32L4xx_HAL_Driver/Src/stm32l4xx_hal_dma.c **** 
 598:../Drivers/STM32L4xx_HAL_Driver/Src/stm32l4xx_hal_dma.c ****     return status;
 599:../Drivers/STM32L4xx_HAL_Driver/Src/stm32l4xx_hal_dma.c ****   }
 600:../Drivers/STM32L4xx_HAL_Driver/Src/stm32l4xx_hal_dma.c **** }
 601:../Drivers/STM32L4xx_HAL_Driver/Src/stm32l4xx_hal_dma.c **** 
 602:../Drivers/STM32L4xx_HAL_Driver/Src/stm32l4xx_hal_dma.c **** /**
 603:../Drivers/STM32L4xx_HAL_Driver/Src/stm32l4xx_hal_dma.c ****   * @brief  Aborts the DMA Transfer in Interrupt mode.
 604:../Drivers/STM32L4xx_HAL_Driver/Src/stm32l4xx_hal_dma.c ****   * @param  hdma pointer to a DMA_HandleTypeDef structure that contains
 605:../Drivers/STM32L4xx_HAL_Driver/Src/stm32l4xx_hal_dma.c ****   *                 the configuration information for the specified DMA Channel.
 606:../Drivers/STM32L4xx_HAL_Driver/Src/stm32l4xx_hal_dma.c ****   * @retval HAL status
 607:../Drivers/STM32L4xx_HAL_Driver/Src/stm32l4xx_hal_dma.c ****   */
 608:../Drivers/STM32L4xx_HAL_Driver/Src/stm32l4xx_hal_dma.c **** HAL_StatusTypeDef HAL_DMA_Abort_IT(DMA_HandleTypeDef *hdma)
 609:../Drivers/STM32L4xx_HAL_Driver/Src/stm32l4xx_hal_dma.c **** {
 610:../Drivers/STM32L4xx_HAL_Driver/Src/stm32l4xx_hal_dma.c ****   HAL_StatusTypeDef status = HAL_OK;
 611:../Drivers/STM32L4xx_HAL_Driver/Src/stm32l4xx_hal_dma.c **** 
 612:../Drivers/STM32L4xx_HAL_Driver/Src/stm32l4xx_hal_dma.c ****   if(HAL_DMA_STATE_BUSY != hdma->State)
 613:../Drivers/STM32L4xx_HAL_Driver/Src/stm32l4xx_hal_dma.c ****   {
 614:../Drivers/STM32L4xx_HAL_Driver/Src/stm32l4xx_hal_dma.c ****     /* no transfer ongoing */
 615:../Drivers/STM32L4xx_HAL_Driver/Src/stm32l4xx_hal_dma.c ****     hdma->ErrorCode = HAL_DMA_ERROR_NO_XFER;
 616:../Drivers/STM32L4xx_HAL_Driver/Src/stm32l4xx_hal_dma.c **** 
 617:../Drivers/STM32L4xx_HAL_Driver/Src/stm32l4xx_hal_dma.c ****     status = HAL_ERROR;
 618:../Drivers/STM32L4xx_HAL_Driver/Src/stm32l4xx_hal_dma.c ****   }
 619:../Drivers/STM32L4xx_HAL_Driver/Src/stm32l4xx_hal_dma.c ****   else
 620:../Drivers/STM32L4xx_HAL_Driver/Src/stm32l4xx_hal_dma.c ****   {
 621:../Drivers/STM32L4xx_HAL_Driver/Src/stm32l4xx_hal_dma.c ****     /* Disable DMA IT */
 622:../Drivers/STM32L4xx_HAL_Driver/Src/stm32l4xx_hal_dma.c ****     __HAL_DMA_DISABLE_IT(hdma, (DMA_IT_TC | DMA_IT_HT | DMA_IT_TE));
 623:../Drivers/STM32L4xx_HAL_Driver/Src/stm32l4xx_hal_dma.c **** 
 624:../Drivers/STM32L4xx_HAL_Driver/Src/stm32l4xx_hal_dma.c ****     /* Disable the channel */
 625:../Drivers/STM32L4xx_HAL_Driver/Src/stm32l4xx_hal_dma.c ****     __HAL_DMA_DISABLE(hdma);
 626:../Drivers/STM32L4xx_HAL_Driver/Src/stm32l4xx_hal_dma.c **** 
 627:../Drivers/STM32L4xx_HAL_Driver/Src/stm32l4xx_hal_dma.c **** #if defined(DMAMUX1)
 628:../Drivers/STM32L4xx_HAL_Driver/Src/stm32l4xx_hal_dma.c ****     /* disable the DMAMUX sync overrun IT*/
 629:../Drivers/STM32L4xx_HAL_Driver/Src/stm32l4xx_hal_dma.c ****     hdma->DMAmuxChannel->CCR &= ~DMAMUX_CxCR_SOIE;
 630:../Drivers/STM32L4xx_HAL_Driver/Src/stm32l4xx_hal_dma.c **** 
 631:../Drivers/STM32L4xx_HAL_Driver/Src/stm32l4xx_hal_dma.c ****     /* Clear all flags */
 632:../Drivers/STM32L4xx_HAL_Driver/Src/stm32l4xx_hal_dma.c ****     hdma->DmaBaseAddress->IFCR = (DMA_ISR_GIF1 << (hdma->ChannelIndex & 0x1CU));
 633:../Drivers/STM32L4xx_HAL_Driver/Src/stm32l4xx_hal_dma.c **** 
 634:../Drivers/STM32L4xx_HAL_Driver/Src/stm32l4xx_hal_dma.c ****     /* Clear the DMAMUX synchro overrun flag */
 635:../Drivers/STM32L4xx_HAL_Driver/Src/stm32l4xx_hal_dma.c ****     hdma->DMAmuxChannelStatus->CFR = hdma->DMAmuxChannelStatusMask;
 636:../Drivers/STM32L4xx_HAL_Driver/Src/stm32l4xx_hal_dma.c **** 
 637:../Drivers/STM32L4xx_HAL_Driver/Src/stm32l4xx_hal_dma.c ****     if(hdma->DMAmuxRequestGen != 0U)
 638:../Drivers/STM32L4xx_HAL_Driver/Src/stm32l4xx_hal_dma.c ****     {
 639:../Drivers/STM32L4xx_HAL_Driver/Src/stm32l4xx_hal_dma.c ****       /* if using DMAMUX request generator, disable the DMAMUX request generator overrun IT*/
 640:../Drivers/STM32L4xx_HAL_Driver/Src/stm32l4xx_hal_dma.c ****       /* disable the request gen overrun IT*/
 641:../Drivers/STM32L4xx_HAL_Driver/Src/stm32l4xx_hal_dma.c ****       hdma->DMAmuxRequestGen->RGCR &= ~DMAMUX_RGxCR_OIE;
 642:../Drivers/STM32L4xx_HAL_Driver/Src/stm32l4xx_hal_dma.c **** 
 643:../Drivers/STM32L4xx_HAL_Driver/Src/stm32l4xx_hal_dma.c ****       /* Clear the DMAMUX request generator overrun flag */
 644:../Drivers/STM32L4xx_HAL_Driver/Src/stm32l4xx_hal_dma.c ****       hdma->DMAmuxRequestGenStatus->RGCFR = hdma->DMAmuxRequestGenStatusMask;
 645:../Drivers/STM32L4xx_HAL_Driver/Src/stm32l4xx_hal_dma.c ****     }
ARM GAS  C:\Users\hoodc\AppData\Local\Temp\cc4eu5v8.s 			page 22


 646:../Drivers/STM32L4xx_HAL_Driver/Src/stm32l4xx_hal_dma.c **** 
 647:../Drivers/STM32L4xx_HAL_Driver/Src/stm32l4xx_hal_dma.c **** #else
 648:../Drivers/STM32L4xx_HAL_Driver/Src/stm32l4xx_hal_dma.c ****     /* Clear all flags */
 649:../Drivers/STM32L4xx_HAL_Driver/Src/stm32l4xx_hal_dma.c ****     hdma->DmaBaseAddress->IFCR = (DMA_ISR_GIF1 << (hdma->ChannelIndex & 0x1CU));
 650:../Drivers/STM32L4xx_HAL_Driver/Src/stm32l4xx_hal_dma.c **** #endif /* DMAMUX1 */
 651:../Drivers/STM32L4xx_HAL_Driver/Src/stm32l4xx_hal_dma.c **** 
 652:../Drivers/STM32L4xx_HAL_Driver/Src/stm32l4xx_hal_dma.c ****     /* Change the DMA state */
 653:../Drivers/STM32L4xx_HAL_Driver/Src/stm32l4xx_hal_dma.c ****     hdma->State = HAL_DMA_STATE_READY;
 654:../Drivers/STM32L4xx_HAL_Driver/Src/stm32l4xx_hal_dma.c **** 
 655:../Drivers/STM32L4xx_HAL_Driver/Src/stm32l4xx_hal_dma.c ****     /* Process Unlocked */
 656:../Drivers/STM32L4xx_HAL_Driver/Src/stm32l4xx_hal_dma.c ****     __HAL_UNLOCK(hdma);
 657:../Drivers/STM32L4xx_HAL_Driver/Src/stm32l4xx_hal_dma.c **** 
 658:../Drivers/STM32L4xx_HAL_Driver/Src/stm32l4xx_hal_dma.c ****     /* Call User Abort callback */
 659:../Drivers/STM32L4xx_HAL_Driver/Src/stm32l4xx_hal_dma.c ****     if(hdma->XferAbortCallback != NULL)
 660:../Drivers/STM32L4xx_HAL_Driver/Src/stm32l4xx_hal_dma.c ****     {
 661:../Drivers/STM32L4xx_HAL_Driver/Src/stm32l4xx_hal_dma.c ****       hdma->XferAbortCallback(hdma);
 662:../Drivers/STM32L4xx_HAL_Driver/Src/stm32l4xx_hal_dma.c ****     }
 663:../Drivers/STM32L4xx_HAL_Driver/Src/stm32l4xx_hal_dma.c ****   }
 664:../Drivers/STM32L4xx_HAL_Driver/Src/stm32l4xx_hal_dma.c ****   return status;
 665:../Drivers/STM32L4xx_HAL_Driver/Src/stm32l4xx_hal_dma.c **** }
 666:../Drivers/STM32L4xx_HAL_Driver/Src/stm32l4xx_hal_dma.c **** 
 667:../Drivers/STM32L4xx_HAL_Driver/Src/stm32l4xx_hal_dma.c **** /**
 668:../Drivers/STM32L4xx_HAL_Driver/Src/stm32l4xx_hal_dma.c ****   * @brief  Polling for transfer complete.
 669:../Drivers/STM32L4xx_HAL_Driver/Src/stm32l4xx_hal_dma.c ****   * @param  hdma pointer to a DMA_HandleTypeDef structure that contains
 670:../Drivers/STM32L4xx_HAL_Driver/Src/stm32l4xx_hal_dma.c ****   *                  the configuration information for the specified DMA Channel.
 671:../Drivers/STM32L4xx_HAL_Driver/Src/stm32l4xx_hal_dma.c ****   * @param  CompleteLevel Specifies the DMA level complete.
 672:../Drivers/STM32L4xx_HAL_Driver/Src/stm32l4xx_hal_dma.c ****   * @param  Timeout       Timeout duration.
 673:../Drivers/STM32L4xx_HAL_Driver/Src/stm32l4xx_hal_dma.c ****   * @retval HAL status
 674:../Drivers/STM32L4xx_HAL_Driver/Src/stm32l4xx_hal_dma.c ****   */
 675:../Drivers/STM32L4xx_HAL_Driver/Src/stm32l4xx_hal_dma.c **** HAL_StatusTypeDef HAL_DMA_PollForTransfer(DMA_HandleTypeDef *hdma, HAL_DMA_LevelCompleteTypeDef Com
 676:../Drivers/STM32L4xx_HAL_Driver/Src/stm32l4xx_hal_dma.c **** {
 677:../Drivers/STM32L4xx_HAL_Driver/Src/stm32l4xx_hal_dma.c ****   uint32_t temp;
 678:../Drivers/STM32L4xx_HAL_Driver/Src/stm32l4xx_hal_dma.c ****   uint32_t tickstart;
 679:../Drivers/STM32L4xx_HAL_Driver/Src/stm32l4xx_hal_dma.c **** 
 680:../Drivers/STM32L4xx_HAL_Driver/Src/stm32l4xx_hal_dma.c ****   if(HAL_DMA_STATE_BUSY != hdma->State)
 681:../Drivers/STM32L4xx_HAL_Driver/Src/stm32l4xx_hal_dma.c ****   {
 682:../Drivers/STM32L4xx_HAL_Driver/Src/stm32l4xx_hal_dma.c ****     /* no transfer ongoing */
 683:../Drivers/STM32L4xx_HAL_Driver/Src/stm32l4xx_hal_dma.c ****     hdma->ErrorCode = HAL_DMA_ERROR_NO_XFER;
 684:../Drivers/STM32L4xx_HAL_Driver/Src/stm32l4xx_hal_dma.c ****     __HAL_UNLOCK(hdma);
 685:../Drivers/STM32L4xx_HAL_Driver/Src/stm32l4xx_hal_dma.c ****     return HAL_ERROR;
 686:../Drivers/STM32L4xx_HAL_Driver/Src/stm32l4xx_hal_dma.c ****   }
 687:../Drivers/STM32L4xx_HAL_Driver/Src/stm32l4xx_hal_dma.c **** 
 688:../Drivers/STM32L4xx_HAL_Driver/Src/stm32l4xx_hal_dma.c ****   /* Polling mode not supported in circular mode */
 689:../Drivers/STM32L4xx_HAL_Driver/Src/stm32l4xx_hal_dma.c ****   if ((hdma->Instance->CCR & DMA_CCR_CIRC) != 0U)
 690:../Drivers/STM32L4xx_HAL_Driver/Src/stm32l4xx_hal_dma.c ****   {
 691:../Drivers/STM32L4xx_HAL_Driver/Src/stm32l4xx_hal_dma.c ****     hdma->ErrorCode = HAL_DMA_ERROR_NOT_SUPPORTED;
 692:../Drivers/STM32L4xx_HAL_Driver/Src/stm32l4xx_hal_dma.c ****     return HAL_ERROR;
 693:../Drivers/STM32L4xx_HAL_Driver/Src/stm32l4xx_hal_dma.c ****   }
 694:../Drivers/STM32L4xx_HAL_Driver/Src/stm32l4xx_hal_dma.c **** 
 695:../Drivers/STM32L4xx_HAL_Driver/Src/stm32l4xx_hal_dma.c ****   /* Get the level transfer complete flag */
 696:../Drivers/STM32L4xx_HAL_Driver/Src/stm32l4xx_hal_dma.c ****   if (HAL_DMA_FULL_TRANSFER == CompleteLevel)
 697:../Drivers/STM32L4xx_HAL_Driver/Src/stm32l4xx_hal_dma.c ****   {
 698:../Drivers/STM32L4xx_HAL_Driver/Src/stm32l4xx_hal_dma.c ****     /* Transfer Complete flag */
 699:../Drivers/STM32L4xx_HAL_Driver/Src/stm32l4xx_hal_dma.c ****     temp = DMA_FLAG_TC1 << (hdma->ChannelIndex & 0x1CU);
 700:../Drivers/STM32L4xx_HAL_Driver/Src/stm32l4xx_hal_dma.c ****   }
 701:../Drivers/STM32L4xx_HAL_Driver/Src/stm32l4xx_hal_dma.c ****   else
 702:../Drivers/STM32L4xx_HAL_Driver/Src/stm32l4xx_hal_dma.c ****   {
ARM GAS  C:\Users\hoodc\AppData\Local\Temp\cc4eu5v8.s 			page 23


 703:../Drivers/STM32L4xx_HAL_Driver/Src/stm32l4xx_hal_dma.c ****     /* Half Transfer Complete flag */
 704:../Drivers/STM32L4xx_HAL_Driver/Src/stm32l4xx_hal_dma.c ****     temp = DMA_FLAG_HT1 << (hdma->ChannelIndex & 0x1CU);
 705:../Drivers/STM32L4xx_HAL_Driver/Src/stm32l4xx_hal_dma.c ****   }
 706:../Drivers/STM32L4xx_HAL_Driver/Src/stm32l4xx_hal_dma.c **** 
 707:../Drivers/STM32L4xx_HAL_Driver/Src/stm32l4xx_hal_dma.c ****   /* Get tick */
 708:../Drivers/STM32L4xx_HAL_Driver/Src/stm32l4xx_hal_dma.c ****   tickstart = HAL_GetTick();
 709:../Drivers/STM32L4xx_HAL_Driver/Src/stm32l4xx_hal_dma.c **** 
 710:../Drivers/STM32L4xx_HAL_Driver/Src/stm32l4xx_hal_dma.c ****   while((hdma->DmaBaseAddress->ISR & temp) == 0U)
 711:../Drivers/STM32L4xx_HAL_Driver/Src/stm32l4xx_hal_dma.c ****   {
 712:../Drivers/STM32L4xx_HAL_Driver/Src/stm32l4xx_hal_dma.c ****     if((hdma->DmaBaseAddress->ISR & (DMA_FLAG_TE1 << (hdma->ChannelIndex& 0x1CU))) != 0U)
 713:../Drivers/STM32L4xx_HAL_Driver/Src/stm32l4xx_hal_dma.c ****     {
 714:../Drivers/STM32L4xx_HAL_Driver/Src/stm32l4xx_hal_dma.c ****       /* When a DMA transfer error occurs */
 715:../Drivers/STM32L4xx_HAL_Driver/Src/stm32l4xx_hal_dma.c ****       /* A hardware clear of its EN bits is performed */
 716:../Drivers/STM32L4xx_HAL_Driver/Src/stm32l4xx_hal_dma.c ****       /* Clear all flags */
 717:../Drivers/STM32L4xx_HAL_Driver/Src/stm32l4xx_hal_dma.c ****       hdma->DmaBaseAddress->IFCR = (DMA_ISR_GIF1 << (hdma->ChannelIndex & 0x1CU));
 718:../Drivers/STM32L4xx_HAL_Driver/Src/stm32l4xx_hal_dma.c **** 
 719:../Drivers/STM32L4xx_HAL_Driver/Src/stm32l4xx_hal_dma.c ****       /* Update error code */
 720:../Drivers/STM32L4xx_HAL_Driver/Src/stm32l4xx_hal_dma.c ****       hdma->ErrorCode = HAL_DMA_ERROR_TE;
 721:../Drivers/STM32L4xx_HAL_Driver/Src/stm32l4xx_hal_dma.c **** 
 722:../Drivers/STM32L4xx_HAL_Driver/Src/stm32l4xx_hal_dma.c ****       /* Change the DMA state */
 723:../Drivers/STM32L4xx_HAL_Driver/Src/stm32l4xx_hal_dma.c ****       hdma->State= HAL_DMA_STATE_READY;
 724:../Drivers/STM32L4xx_HAL_Driver/Src/stm32l4xx_hal_dma.c **** 
 725:../Drivers/STM32L4xx_HAL_Driver/Src/stm32l4xx_hal_dma.c ****       /* Process Unlocked */
 726:../Drivers/STM32L4xx_HAL_Driver/Src/stm32l4xx_hal_dma.c ****       __HAL_UNLOCK(hdma);
 727:../Drivers/STM32L4xx_HAL_Driver/Src/stm32l4xx_hal_dma.c **** 
 728:../Drivers/STM32L4xx_HAL_Driver/Src/stm32l4xx_hal_dma.c ****       return HAL_ERROR;
 729:../Drivers/STM32L4xx_HAL_Driver/Src/stm32l4xx_hal_dma.c ****     }
 730:../Drivers/STM32L4xx_HAL_Driver/Src/stm32l4xx_hal_dma.c ****     /* Check for the Timeout */
 731:../Drivers/STM32L4xx_HAL_Driver/Src/stm32l4xx_hal_dma.c ****     if(Timeout != HAL_MAX_DELAY)
 732:../Drivers/STM32L4xx_HAL_Driver/Src/stm32l4xx_hal_dma.c ****     {
 733:../Drivers/STM32L4xx_HAL_Driver/Src/stm32l4xx_hal_dma.c ****       if(((HAL_GetTick() - tickstart) > Timeout) ||  (Timeout == 0U))
 734:../Drivers/STM32L4xx_HAL_Driver/Src/stm32l4xx_hal_dma.c ****       {
 735:../Drivers/STM32L4xx_HAL_Driver/Src/stm32l4xx_hal_dma.c ****         /* Update error code */
 736:../Drivers/STM32L4xx_HAL_Driver/Src/stm32l4xx_hal_dma.c ****         hdma->ErrorCode = HAL_DMA_ERROR_TIMEOUT;
 737:../Drivers/STM32L4xx_HAL_Driver/Src/stm32l4xx_hal_dma.c **** 
 738:../Drivers/STM32L4xx_HAL_Driver/Src/stm32l4xx_hal_dma.c ****         /* Change the DMA state */
 739:../Drivers/STM32L4xx_HAL_Driver/Src/stm32l4xx_hal_dma.c ****         hdma->State = HAL_DMA_STATE_READY;
 740:../Drivers/STM32L4xx_HAL_Driver/Src/stm32l4xx_hal_dma.c **** 
 741:../Drivers/STM32L4xx_HAL_Driver/Src/stm32l4xx_hal_dma.c ****         /* Process Unlocked */
 742:../Drivers/STM32L4xx_HAL_Driver/Src/stm32l4xx_hal_dma.c ****         __HAL_UNLOCK(hdma);
 743:../Drivers/STM32L4xx_HAL_Driver/Src/stm32l4xx_hal_dma.c **** 
 744:../Drivers/STM32L4xx_HAL_Driver/Src/stm32l4xx_hal_dma.c ****         return HAL_ERROR;
 745:../Drivers/STM32L4xx_HAL_Driver/Src/stm32l4xx_hal_dma.c ****       }
 746:../Drivers/STM32L4xx_HAL_Driver/Src/stm32l4xx_hal_dma.c ****     }
 747:../Drivers/STM32L4xx_HAL_Driver/Src/stm32l4xx_hal_dma.c ****   }
 748:../Drivers/STM32L4xx_HAL_Driver/Src/stm32l4xx_hal_dma.c **** 
 749:../Drivers/STM32L4xx_HAL_Driver/Src/stm32l4xx_hal_dma.c **** #if defined(DMAMUX1)
 750:../Drivers/STM32L4xx_HAL_Driver/Src/stm32l4xx_hal_dma.c ****   /*Check for DMAMUX Request generator (if used) overrun status */
 751:../Drivers/STM32L4xx_HAL_Driver/Src/stm32l4xx_hal_dma.c ****   if(hdma->DMAmuxRequestGen != 0U)
 752:../Drivers/STM32L4xx_HAL_Driver/Src/stm32l4xx_hal_dma.c ****   {
 753:../Drivers/STM32L4xx_HAL_Driver/Src/stm32l4xx_hal_dma.c ****     /* if using DMAMUX request generator Check for DMAMUX request generator overrun */
 754:../Drivers/STM32L4xx_HAL_Driver/Src/stm32l4xx_hal_dma.c ****     if((hdma->DMAmuxRequestGenStatus->RGSR & hdma->DMAmuxRequestGenStatusMask) != 0U)
 755:../Drivers/STM32L4xx_HAL_Driver/Src/stm32l4xx_hal_dma.c ****     {
 756:../Drivers/STM32L4xx_HAL_Driver/Src/stm32l4xx_hal_dma.c ****       /* Disable the request gen overrun interrupt */
 757:../Drivers/STM32L4xx_HAL_Driver/Src/stm32l4xx_hal_dma.c ****       hdma->DMAmuxRequestGen->RGCR |= DMAMUX_RGxCR_OIE;
 758:../Drivers/STM32L4xx_HAL_Driver/Src/stm32l4xx_hal_dma.c **** 
 759:../Drivers/STM32L4xx_HAL_Driver/Src/stm32l4xx_hal_dma.c ****       /* Clear the DMAMUX request generator overrun flag */
ARM GAS  C:\Users\hoodc\AppData\Local\Temp\cc4eu5v8.s 			page 24


 760:../Drivers/STM32L4xx_HAL_Driver/Src/stm32l4xx_hal_dma.c ****       hdma->DMAmuxRequestGenStatus->RGCFR = hdma->DMAmuxRequestGenStatusMask;
 761:../Drivers/STM32L4xx_HAL_Driver/Src/stm32l4xx_hal_dma.c **** 
 762:../Drivers/STM32L4xx_HAL_Driver/Src/stm32l4xx_hal_dma.c ****       /* Update error code */
 763:../Drivers/STM32L4xx_HAL_Driver/Src/stm32l4xx_hal_dma.c ****       hdma->ErrorCode |= HAL_DMA_ERROR_REQGEN;
 764:../Drivers/STM32L4xx_HAL_Driver/Src/stm32l4xx_hal_dma.c ****     }
 765:../Drivers/STM32L4xx_HAL_Driver/Src/stm32l4xx_hal_dma.c ****   }
 766:../Drivers/STM32L4xx_HAL_Driver/Src/stm32l4xx_hal_dma.c **** 
 767:../Drivers/STM32L4xx_HAL_Driver/Src/stm32l4xx_hal_dma.c ****   /* Check for DMAMUX Synchronization overrun */
 768:../Drivers/STM32L4xx_HAL_Driver/Src/stm32l4xx_hal_dma.c ****   if((hdma->DMAmuxChannelStatus->CSR & hdma->DMAmuxChannelStatusMask) != 0U)
 769:../Drivers/STM32L4xx_HAL_Driver/Src/stm32l4xx_hal_dma.c ****   {
 770:../Drivers/STM32L4xx_HAL_Driver/Src/stm32l4xx_hal_dma.c ****     /* Clear the DMAMUX synchro overrun flag */
 771:../Drivers/STM32L4xx_HAL_Driver/Src/stm32l4xx_hal_dma.c ****     hdma->DMAmuxChannelStatus->CFR = hdma->DMAmuxChannelStatusMask;
 772:../Drivers/STM32L4xx_HAL_Driver/Src/stm32l4xx_hal_dma.c **** 
 773:../Drivers/STM32L4xx_HAL_Driver/Src/stm32l4xx_hal_dma.c ****     /* Update error code */
 774:../Drivers/STM32L4xx_HAL_Driver/Src/stm32l4xx_hal_dma.c ****     hdma->ErrorCode |= HAL_DMA_ERROR_SYNC;
 775:../Drivers/STM32L4xx_HAL_Driver/Src/stm32l4xx_hal_dma.c ****   }
 776:../Drivers/STM32L4xx_HAL_Driver/Src/stm32l4xx_hal_dma.c **** #endif /* DMAMUX1 */
 777:../Drivers/STM32L4xx_HAL_Driver/Src/stm32l4xx_hal_dma.c **** 
 778:../Drivers/STM32L4xx_HAL_Driver/Src/stm32l4xx_hal_dma.c ****   if(HAL_DMA_FULL_TRANSFER == CompleteLevel)
 779:../Drivers/STM32L4xx_HAL_Driver/Src/stm32l4xx_hal_dma.c ****   {
 780:../Drivers/STM32L4xx_HAL_Driver/Src/stm32l4xx_hal_dma.c ****     /* Clear the transfer complete flag */
 781:../Drivers/STM32L4xx_HAL_Driver/Src/stm32l4xx_hal_dma.c ****     hdma->DmaBaseAddress->IFCR = (DMA_FLAG_TC1 << (hdma->ChannelIndex& 0x1CU));
 782:../Drivers/STM32L4xx_HAL_Driver/Src/stm32l4xx_hal_dma.c **** 
 783:../Drivers/STM32L4xx_HAL_Driver/Src/stm32l4xx_hal_dma.c ****     /* The selected Channelx EN bit is cleared (DMA is disabled and
 784:../Drivers/STM32L4xx_HAL_Driver/Src/stm32l4xx_hal_dma.c ****     all transfers are complete) */
 785:../Drivers/STM32L4xx_HAL_Driver/Src/stm32l4xx_hal_dma.c ****     hdma->State = HAL_DMA_STATE_READY;
 786:../Drivers/STM32L4xx_HAL_Driver/Src/stm32l4xx_hal_dma.c ****   }
 787:../Drivers/STM32L4xx_HAL_Driver/Src/stm32l4xx_hal_dma.c ****   else
 788:../Drivers/STM32L4xx_HAL_Driver/Src/stm32l4xx_hal_dma.c ****   {
 789:../Drivers/STM32L4xx_HAL_Driver/Src/stm32l4xx_hal_dma.c ****     /* Clear the half transfer complete flag */
 790:../Drivers/STM32L4xx_HAL_Driver/Src/stm32l4xx_hal_dma.c ****     hdma->DmaBaseAddress->IFCR = (DMA_FLAG_HT1 << (hdma->ChannelIndex & 0x1CU));
 791:../Drivers/STM32L4xx_HAL_Driver/Src/stm32l4xx_hal_dma.c ****   }
 792:../Drivers/STM32L4xx_HAL_Driver/Src/stm32l4xx_hal_dma.c **** 
 793:../Drivers/STM32L4xx_HAL_Driver/Src/stm32l4xx_hal_dma.c ****   /* Process unlocked */
 794:../Drivers/STM32L4xx_HAL_Driver/Src/stm32l4xx_hal_dma.c ****   __HAL_UNLOCK(hdma);
 795:../Drivers/STM32L4xx_HAL_Driver/Src/stm32l4xx_hal_dma.c **** 
 796:../Drivers/STM32L4xx_HAL_Driver/Src/stm32l4xx_hal_dma.c ****   return HAL_OK;
 797:../Drivers/STM32L4xx_HAL_Driver/Src/stm32l4xx_hal_dma.c **** }
 798:../Drivers/STM32L4xx_HAL_Driver/Src/stm32l4xx_hal_dma.c **** 
 799:../Drivers/STM32L4xx_HAL_Driver/Src/stm32l4xx_hal_dma.c **** /**
 800:../Drivers/STM32L4xx_HAL_Driver/Src/stm32l4xx_hal_dma.c ****   * @brief  Handle DMA interrupt request.
 801:../Drivers/STM32L4xx_HAL_Driver/Src/stm32l4xx_hal_dma.c ****   * @param  hdma pointer to a DMA_HandleTypeDef structure that contains
 802:../Drivers/STM32L4xx_HAL_Driver/Src/stm32l4xx_hal_dma.c ****   *               the configuration information for the specified DMA Channel.
 803:../Drivers/STM32L4xx_HAL_Driver/Src/stm32l4xx_hal_dma.c ****   * @retval None
 804:../Drivers/STM32L4xx_HAL_Driver/Src/stm32l4xx_hal_dma.c ****   */
 805:../Drivers/STM32L4xx_HAL_Driver/Src/stm32l4xx_hal_dma.c **** void HAL_DMA_IRQHandler(DMA_HandleTypeDef *hdma)
 806:../Drivers/STM32L4xx_HAL_Driver/Src/stm32l4xx_hal_dma.c **** {
 807:../Drivers/STM32L4xx_HAL_Driver/Src/stm32l4xx_hal_dma.c ****   uint32_t flag_it = hdma->DmaBaseAddress->ISR;
 808:../Drivers/STM32L4xx_HAL_Driver/Src/stm32l4xx_hal_dma.c ****   uint32_t source_it = hdma->Instance->CCR;
 809:../Drivers/STM32L4xx_HAL_Driver/Src/stm32l4xx_hal_dma.c **** 
 810:../Drivers/STM32L4xx_HAL_Driver/Src/stm32l4xx_hal_dma.c ****   /* Half Transfer Complete Interrupt management ******************************/
 811:../Drivers/STM32L4xx_HAL_Driver/Src/stm32l4xx_hal_dma.c ****   if (((flag_it & (DMA_FLAG_HT1 << (hdma->ChannelIndex & 0x1CU))) != 0U) && ((source_it & DMA_IT_HT
 812:../Drivers/STM32L4xx_HAL_Driver/Src/stm32l4xx_hal_dma.c ****   {
 813:../Drivers/STM32L4xx_HAL_Driver/Src/stm32l4xx_hal_dma.c ****       /* Disable the half transfer interrupt if the DMA mode is not CIRCULAR */
 814:../Drivers/STM32L4xx_HAL_Driver/Src/stm32l4xx_hal_dma.c ****       if((hdma->Instance->CCR & DMA_CCR_CIRC) == 0U)
 815:../Drivers/STM32L4xx_HAL_Driver/Src/stm32l4xx_hal_dma.c ****       {
 816:../Drivers/STM32L4xx_HAL_Driver/Src/stm32l4xx_hal_dma.c ****         /* Disable the half transfer interrupt */
ARM GAS  C:\Users\hoodc\AppData\Local\Temp\cc4eu5v8.s 			page 25


 817:../Drivers/STM32L4xx_HAL_Driver/Src/stm32l4xx_hal_dma.c ****         __HAL_DMA_DISABLE_IT(hdma, DMA_IT_HT);
 818:../Drivers/STM32L4xx_HAL_Driver/Src/stm32l4xx_hal_dma.c ****       }
 819:../Drivers/STM32L4xx_HAL_Driver/Src/stm32l4xx_hal_dma.c ****       /* Clear the half transfer complete flag */
 820:../Drivers/STM32L4xx_HAL_Driver/Src/stm32l4xx_hal_dma.c ****       hdma->DmaBaseAddress->IFCR = DMA_ISR_HTIF1 << (hdma->ChannelIndex & 0x1CU);
 821:../Drivers/STM32L4xx_HAL_Driver/Src/stm32l4xx_hal_dma.c **** 
 822:../Drivers/STM32L4xx_HAL_Driver/Src/stm32l4xx_hal_dma.c ****       /* DMA peripheral state is not updated in Half Transfer */
 823:../Drivers/STM32L4xx_HAL_Driver/Src/stm32l4xx_hal_dma.c ****       /* but in Transfer Complete case */
 824:../Drivers/STM32L4xx_HAL_Driver/Src/stm32l4xx_hal_dma.c **** 
 825:../Drivers/STM32L4xx_HAL_Driver/Src/stm32l4xx_hal_dma.c ****       if(hdma->XferHalfCpltCallback != NULL)
 826:../Drivers/STM32L4xx_HAL_Driver/Src/stm32l4xx_hal_dma.c ****       {
 827:../Drivers/STM32L4xx_HAL_Driver/Src/stm32l4xx_hal_dma.c ****         /* Half transfer callback */
 828:../Drivers/STM32L4xx_HAL_Driver/Src/stm32l4xx_hal_dma.c ****         hdma->XferHalfCpltCallback(hdma);
 829:../Drivers/STM32L4xx_HAL_Driver/Src/stm32l4xx_hal_dma.c ****       }
 830:../Drivers/STM32L4xx_HAL_Driver/Src/stm32l4xx_hal_dma.c ****   }
 831:../Drivers/STM32L4xx_HAL_Driver/Src/stm32l4xx_hal_dma.c **** 
 832:../Drivers/STM32L4xx_HAL_Driver/Src/stm32l4xx_hal_dma.c ****   /* Transfer Complete Interrupt management ***********************************/
 833:../Drivers/STM32L4xx_HAL_Driver/Src/stm32l4xx_hal_dma.c ****   else if (((flag_it & (DMA_FLAG_TC1 << (hdma->ChannelIndex & 0x1CU))) != 0U) && ((source_it & DMA_
 834:../Drivers/STM32L4xx_HAL_Driver/Src/stm32l4xx_hal_dma.c ****   {
 835:../Drivers/STM32L4xx_HAL_Driver/Src/stm32l4xx_hal_dma.c ****     if((hdma->Instance->CCR & DMA_CCR_CIRC) == 0U)
 836:../Drivers/STM32L4xx_HAL_Driver/Src/stm32l4xx_hal_dma.c ****     {
 837:../Drivers/STM32L4xx_HAL_Driver/Src/stm32l4xx_hal_dma.c ****       /* Disable the transfer complete interrupt if the DMA mode is not CIRCULAR */
 838:../Drivers/STM32L4xx_HAL_Driver/Src/stm32l4xx_hal_dma.c ****       /* Disable the transfer complete and error interrupt */
 839:../Drivers/STM32L4xx_HAL_Driver/Src/stm32l4xx_hal_dma.c ****       /* if the DMA mode is not CIRCULAR  */
 840:../Drivers/STM32L4xx_HAL_Driver/Src/stm32l4xx_hal_dma.c ****       __HAL_DMA_DISABLE_IT(hdma, DMA_IT_TE | DMA_IT_TC);
 841:../Drivers/STM32L4xx_HAL_Driver/Src/stm32l4xx_hal_dma.c **** 
 842:../Drivers/STM32L4xx_HAL_Driver/Src/stm32l4xx_hal_dma.c ****       /* Change the DMA state */
 843:../Drivers/STM32L4xx_HAL_Driver/Src/stm32l4xx_hal_dma.c ****       hdma->State = HAL_DMA_STATE_READY;
 844:../Drivers/STM32L4xx_HAL_Driver/Src/stm32l4xx_hal_dma.c ****     }
 845:../Drivers/STM32L4xx_HAL_Driver/Src/stm32l4xx_hal_dma.c ****     /* Clear the transfer complete flag */
 846:../Drivers/STM32L4xx_HAL_Driver/Src/stm32l4xx_hal_dma.c ****     hdma->DmaBaseAddress->IFCR = (DMA_ISR_TCIF1 << (hdma->ChannelIndex & 0x1CU));
 847:../Drivers/STM32L4xx_HAL_Driver/Src/stm32l4xx_hal_dma.c **** 
 848:../Drivers/STM32L4xx_HAL_Driver/Src/stm32l4xx_hal_dma.c ****     /* Process Unlocked */
 849:../Drivers/STM32L4xx_HAL_Driver/Src/stm32l4xx_hal_dma.c ****     __HAL_UNLOCK(hdma);
 850:../Drivers/STM32L4xx_HAL_Driver/Src/stm32l4xx_hal_dma.c **** 
 851:../Drivers/STM32L4xx_HAL_Driver/Src/stm32l4xx_hal_dma.c ****     if(hdma->XferCpltCallback != NULL)
 852:../Drivers/STM32L4xx_HAL_Driver/Src/stm32l4xx_hal_dma.c ****     {
 853:../Drivers/STM32L4xx_HAL_Driver/Src/stm32l4xx_hal_dma.c ****       /* Transfer complete callback */
 854:../Drivers/STM32L4xx_HAL_Driver/Src/stm32l4xx_hal_dma.c ****       hdma->XferCpltCallback(hdma);
 855:../Drivers/STM32L4xx_HAL_Driver/Src/stm32l4xx_hal_dma.c ****     }
 856:../Drivers/STM32L4xx_HAL_Driver/Src/stm32l4xx_hal_dma.c ****   }
 857:../Drivers/STM32L4xx_HAL_Driver/Src/stm32l4xx_hal_dma.c **** 
 858:../Drivers/STM32L4xx_HAL_Driver/Src/stm32l4xx_hal_dma.c ****   /* Transfer Error Interrupt management **************************************/
 859:../Drivers/STM32L4xx_HAL_Driver/Src/stm32l4xx_hal_dma.c ****   else if (((flag_it & (DMA_FLAG_TE1 << (hdma->ChannelIndex & 0x1CU))) != 0U) && ((source_it & DMA_
 860:../Drivers/STM32L4xx_HAL_Driver/Src/stm32l4xx_hal_dma.c ****   {
 861:../Drivers/STM32L4xx_HAL_Driver/Src/stm32l4xx_hal_dma.c ****     /* When a DMA transfer error occurs */
 862:../Drivers/STM32L4xx_HAL_Driver/Src/stm32l4xx_hal_dma.c ****     /* A hardware clear of its EN bits is performed */
 863:../Drivers/STM32L4xx_HAL_Driver/Src/stm32l4xx_hal_dma.c ****     /* Disable ALL DMA IT */
 864:../Drivers/STM32L4xx_HAL_Driver/Src/stm32l4xx_hal_dma.c ****     __HAL_DMA_DISABLE_IT(hdma, (DMA_IT_TC | DMA_IT_HT | DMA_IT_TE));
 865:../Drivers/STM32L4xx_HAL_Driver/Src/stm32l4xx_hal_dma.c **** 
 866:../Drivers/STM32L4xx_HAL_Driver/Src/stm32l4xx_hal_dma.c ****     /* Clear all flags */
 867:../Drivers/STM32L4xx_HAL_Driver/Src/stm32l4xx_hal_dma.c ****     hdma->DmaBaseAddress->IFCR = (DMA_ISR_GIF1 << (hdma->ChannelIndex & 0x1CU));
 868:../Drivers/STM32L4xx_HAL_Driver/Src/stm32l4xx_hal_dma.c **** 
 869:../Drivers/STM32L4xx_HAL_Driver/Src/stm32l4xx_hal_dma.c ****     /* Update error code */
 870:../Drivers/STM32L4xx_HAL_Driver/Src/stm32l4xx_hal_dma.c ****     hdma->ErrorCode = HAL_DMA_ERROR_TE;
 871:../Drivers/STM32L4xx_HAL_Driver/Src/stm32l4xx_hal_dma.c **** 
 872:../Drivers/STM32L4xx_HAL_Driver/Src/stm32l4xx_hal_dma.c ****     /* Change the DMA state */
 873:../Drivers/STM32L4xx_HAL_Driver/Src/stm32l4xx_hal_dma.c ****     hdma->State = HAL_DMA_STATE_READY;
ARM GAS  C:\Users\hoodc\AppData\Local\Temp\cc4eu5v8.s 			page 26


 874:../Drivers/STM32L4xx_HAL_Driver/Src/stm32l4xx_hal_dma.c **** 
 875:../Drivers/STM32L4xx_HAL_Driver/Src/stm32l4xx_hal_dma.c ****     /* Process Unlocked */
 876:../Drivers/STM32L4xx_HAL_Driver/Src/stm32l4xx_hal_dma.c ****     __HAL_UNLOCK(hdma);
 877:../Drivers/STM32L4xx_HAL_Driver/Src/stm32l4xx_hal_dma.c **** 
 878:../Drivers/STM32L4xx_HAL_Driver/Src/stm32l4xx_hal_dma.c ****     if (hdma->XferErrorCallback != NULL)
 879:../Drivers/STM32L4xx_HAL_Driver/Src/stm32l4xx_hal_dma.c ****     {
 880:../Drivers/STM32L4xx_HAL_Driver/Src/stm32l4xx_hal_dma.c ****       /* Transfer error callback */
 881:../Drivers/STM32L4xx_HAL_Driver/Src/stm32l4xx_hal_dma.c ****       hdma->XferErrorCallback(hdma);
 882:../Drivers/STM32L4xx_HAL_Driver/Src/stm32l4xx_hal_dma.c ****     }
 883:../Drivers/STM32L4xx_HAL_Driver/Src/stm32l4xx_hal_dma.c ****   }
 884:../Drivers/STM32L4xx_HAL_Driver/Src/stm32l4xx_hal_dma.c ****   else
 885:../Drivers/STM32L4xx_HAL_Driver/Src/stm32l4xx_hal_dma.c ****   {
 886:../Drivers/STM32L4xx_HAL_Driver/Src/stm32l4xx_hal_dma.c ****     /* Nothing To Do */
 887:../Drivers/STM32L4xx_HAL_Driver/Src/stm32l4xx_hal_dma.c ****   }
 888:../Drivers/STM32L4xx_HAL_Driver/Src/stm32l4xx_hal_dma.c ****   return;
 889:../Drivers/STM32L4xx_HAL_Driver/Src/stm32l4xx_hal_dma.c **** }
 890:../Drivers/STM32L4xx_HAL_Driver/Src/stm32l4xx_hal_dma.c **** 
 891:../Drivers/STM32L4xx_HAL_Driver/Src/stm32l4xx_hal_dma.c **** /**
 892:../Drivers/STM32L4xx_HAL_Driver/Src/stm32l4xx_hal_dma.c ****   * @brief  Register callbacks
 893:../Drivers/STM32L4xx_HAL_Driver/Src/stm32l4xx_hal_dma.c ****   * @param  hdma                 pointer to a DMA_HandleTypeDef structure that contains
 894:../Drivers/STM32L4xx_HAL_Driver/Src/stm32l4xx_hal_dma.c ****   *                               the configuration information for the specified DMA Channel.
 895:../Drivers/STM32L4xx_HAL_Driver/Src/stm32l4xx_hal_dma.c ****   * @param  CallbackID           User Callback identifer
 896:../Drivers/STM32L4xx_HAL_Driver/Src/stm32l4xx_hal_dma.c ****   *                               a HAL_DMA_CallbackIDTypeDef ENUM as parameter.
 897:../Drivers/STM32L4xx_HAL_Driver/Src/stm32l4xx_hal_dma.c ****   * @param  pCallback            pointer to private callbacsk function which has pointer to
 898:../Drivers/STM32L4xx_HAL_Driver/Src/stm32l4xx_hal_dma.c ****   *                               a DMA_HandleTypeDef structure as parameter.
 899:../Drivers/STM32L4xx_HAL_Driver/Src/stm32l4xx_hal_dma.c ****   * @retval HAL status
 900:../Drivers/STM32L4xx_HAL_Driver/Src/stm32l4xx_hal_dma.c ****   */
 901:../Drivers/STM32L4xx_HAL_Driver/Src/stm32l4xx_hal_dma.c **** HAL_StatusTypeDef HAL_DMA_RegisterCallback(DMA_HandleTypeDef *hdma, HAL_DMA_CallbackIDTypeDef Callb
 902:../Drivers/STM32L4xx_HAL_Driver/Src/stm32l4xx_hal_dma.c **** {
 903:../Drivers/STM32L4xx_HAL_Driver/Src/stm32l4xx_hal_dma.c ****   HAL_StatusTypeDef status = HAL_OK;
 904:../Drivers/STM32L4xx_HAL_Driver/Src/stm32l4xx_hal_dma.c **** 
 905:../Drivers/STM32L4xx_HAL_Driver/Src/stm32l4xx_hal_dma.c ****   /* Process locked */
 906:../Drivers/STM32L4xx_HAL_Driver/Src/stm32l4xx_hal_dma.c ****   __HAL_LOCK(hdma);
 907:../Drivers/STM32L4xx_HAL_Driver/Src/stm32l4xx_hal_dma.c **** 
 908:../Drivers/STM32L4xx_HAL_Driver/Src/stm32l4xx_hal_dma.c ****   if(HAL_DMA_STATE_READY == hdma->State)
 909:../Drivers/STM32L4xx_HAL_Driver/Src/stm32l4xx_hal_dma.c ****   {
 910:../Drivers/STM32L4xx_HAL_Driver/Src/stm32l4xx_hal_dma.c ****     switch (CallbackID)
 911:../Drivers/STM32L4xx_HAL_Driver/Src/stm32l4xx_hal_dma.c ****     {
 912:../Drivers/STM32L4xx_HAL_Driver/Src/stm32l4xx_hal_dma.c ****      case  HAL_DMA_XFER_CPLT_CB_ID:
 913:../Drivers/STM32L4xx_HAL_Driver/Src/stm32l4xx_hal_dma.c ****            hdma->XferCpltCallback = pCallback;
 914:../Drivers/STM32L4xx_HAL_Driver/Src/stm32l4xx_hal_dma.c ****            break;
 915:../Drivers/STM32L4xx_HAL_Driver/Src/stm32l4xx_hal_dma.c **** 
 916:../Drivers/STM32L4xx_HAL_Driver/Src/stm32l4xx_hal_dma.c ****      case  HAL_DMA_XFER_HALFCPLT_CB_ID:
 917:../Drivers/STM32L4xx_HAL_Driver/Src/stm32l4xx_hal_dma.c ****            hdma->XferHalfCpltCallback = pCallback;
 918:../Drivers/STM32L4xx_HAL_Driver/Src/stm32l4xx_hal_dma.c ****            break;
 919:../Drivers/STM32L4xx_HAL_Driver/Src/stm32l4xx_hal_dma.c **** 
 920:../Drivers/STM32L4xx_HAL_Driver/Src/stm32l4xx_hal_dma.c ****      case  HAL_DMA_XFER_ERROR_CB_ID:
 921:../Drivers/STM32L4xx_HAL_Driver/Src/stm32l4xx_hal_dma.c ****            hdma->XferErrorCallback = pCallback;
 922:../Drivers/STM32L4xx_HAL_Driver/Src/stm32l4xx_hal_dma.c ****            break;
 923:../Drivers/STM32L4xx_HAL_Driver/Src/stm32l4xx_hal_dma.c **** 
 924:../Drivers/STM32L4xx_HAL_Driver/Src/stm32l4xx_hal_dma.c ****      case  HAL_DMA_XFER_ABORT_CB_ID:
 925:../Drivers/STM32L4xx_HAL_Driver/Src/stm32l4xx_hal_dma.c ****            hdma->XferAbortCallback = pCallback;
 926:../Drivers/STM32L4xx_HAL_Driver/Src/stm32l4xx_hal_dma.c ****            break;
 927:../Drivers/STM32L4xx_HAL_Driver/Src/stm32l4xx_hal_dma.c **** 
 928:../Drivers/STM32L4xx_HAL_Driver/Src/stm32l4xx_hal_dma.c ****      default:
 929:../Drivers/STM32L4xx_HAL_Driver/Src/stm32l4xx_hal_dma.c ****            status = HAL_ERROR;
 930:../Drivers/STM32L4xx_HAL_Driver/Src/stm32l4xx_hal_dma.c ****            break;
ARM GAS  C:\Users\hoodc\AppData\Local\Temp\cc4eu5v8.s 			page 27


 931:../Drivers/STM32L4xx_HAL_Driver/Src/stm32l4xx_hal_dma.c ****     }
 932:../Drivers/STM32L4xx_HAL_Driver/Src/stm32l4xx_hal_dma.c ****   }
 933:../Drivers/STM32L4xx_HAL_Driver/Src/stm32l4xx_hal_dma.c ****   else
 934:../Drivers/STM32L4xx_HAL_Driver/Src/stm32l4xx_hal_dma.c ****   {
 935:../Drivers/STM32L4xx_HAL_Driver/Src/stm32l4xx_hal_dma.c ****     status = HAL_ERROR;
 936:../Drivers/STM32L4xx_HAL_Driver/Src/stm32l4xx_hal_dma.c ****   }
 937:../Drivers/STM32L4xx_HAL_Driver/Src/stm32l4xx_hal_dma.c **** 
 938:../Drivers/STM32L4xx_HAL_Driver/Src/stm32l4xx_hal_dma.c ****   /* Release Lock */
 939:../Drivers/STM32L4xx_HAL_Driver/Src/stm32l4xx_hal_dma.c ****   __HAL_UNLOCK(hdma);
 940:../Drivers/STM32L4xx_HAL_Driver/Src/stm32l4xx_hal_dma.c **** 
 941:../Drivers/STM32L4xx_HAL_Driver/Src/stm32l4xx_hal_dma.c ****   return status;
 942:../Drivers/STM32L4xx_HAL_Driver/Src/stm32l4xx_hal_dma.c **** }
 943:../Drivers/STM32L4xx_HAL_Driver/Src/stm32l4xx_hal_dma.c **** 
 944:../Drivers/STM32L4xx_HAL_Driver/Src/stm32l4xx_hal_dma.c **** /**
 945:../Drivers/STM32L4xx_HAL_Driver/Src/stm32l4xx_hal_dma.c ****   * @brief  UnRegister callbacks
 946:../Drivers/STM32L4xx_HAL_Driver/Src/stm32l4xx_hal_dma.c ****   * @param  hdma                 pointer to a DMA_HandleTypeDef structure that contains
 947:../Drivers/STM32L4xx_HAL_Driver/Src/stm32l4xx_hal_dma.c ****   *                               the configuration information for the specified DMA Channel.
 948:../Drivers/STM32L4xx_HAL_Driver/Src/stm32l4xx_hal_dma.c ****   * @param  CallbackID           User Callback identifer
 949:../Drivers/STM32L4xx_HAL_Driver/Src/stm32l4xx_hal_dma.c ****   *                               a HAL_DMA_CallbackIDTypeDef ENUM as parameter.
 950:../Drivers/STM32L4xx_HAL_Driver/Src/stm32l4xx_hal_dma.c ****   * @retval HAL status
 951:../Drivers/STM32L4xx_HAL_Driver/Src/stm32l4xx_hal_dma.c ****   */
 952:../Drivers/STM32L4xx_HAL_Driver/Src/stm32l4xx_hal_dma.c **** HAL_StatusTypeDef HAL_DMA_UnRegisterCallback(DMA_HandleTypeDef *hdma, HAL_DMA_CallbackIDTypeDef Cal
 953:../Drivers/STM32L4xx_HAL_Driver/Src/stm32l4xx_hal_dma.c **** {
 954:../Drivers/STM32L4xx_HAL_Driver/Src/stm32l4xx_hal_dma.c ****   HAL_StatusTypeDef status = HAL_OK;
 955:../Drivers/STM32L4xx_HAL_Driver/Src/stm32l4xx_hal_dma.c **** 
 956:../Drivers/STM32L4xx_HAL_Driver/Src/stm32l4xx_hal_dma.c ****     /* Process locked */
 957:../Drivers/STM32L4xx_HAL_Driver/Src/stm32l4xx_hal_dma.c ****   __HAL_LOCK(hdma);
 958:../Drivers/STM32L4xx_HAL_Driver/Src/stm32l4xx_hal_dma.c **** 
 959:../Drivers/STM32L4xx_HAL_Driver/Src/stm32l4xx_hal_dma.c ****   if(HAL_DMA_STATE_READY == hdma->State)
 960:../Drivers/STM32L4xx_HAL_Driver/Src/stm32l4xx_hal_dma.c ****   {
 961:../Drivers/STM32L4xx_HAL_Driver/Src/stm32l4xx_hal_dma.c ****     switch (CallbackID)
 962:../Drivers/STM32L4xx_HAL_Driver/Src/stm32l4xx_hal_dma.c ****     {
 963:../Drivers/STM32L4xx_HAL_Driver/Src/stm32l4xx_hal_dma.c ****      case  HAL_DMA_XFER_CPLT_CB_ID:
 964:../Drivers/STM32L4xx_HAL_Driver/Src/stm32l4xx_hal_dma.c ****            hdma->XferCpltCallback = NULL;
 965:../Drivers/STM32L4xx_HAL_Driver/Src/stm32l4xx_hal_dma.c ****            break;
 966:../Drivers/STM32L4xx_HAL_Driver/Src/stm32l4xx_hal_dma.c **** 
 967:../Drivers/STM32L4xx_HAL_Driver/Src/stm32l4xx_hal_dma.c ****      case  HAL_DMA_XFER_HALFCPLT_CB_ID:
 968:../Drivers/STM32L4xx_HAL_Driver/Src/stm32l4xx_hal_dma.c ****            hdma->XferHalfCpltCallback = NULL;
 969:../Drivers/STM32L4xx_HAL_Driver/Src/stm32l4xx_hal_dma.c ****            break;
 970:../Drivers/STM32L4xx_HAL_Driver/Src/stm32l4xx_hal_dma.c **** 
 971:../Drivers/STM32L4xx_HAL_Driver/Src/stm32l4xx_hal_dma.c ****      case  HAL_DMA_XFER_ERROR_CB_ID:
 972:../Drivers/STM32L4xx_HAL_Driver/Src/stm32l4xx_hal_dma.c ****            hdma->XferErrorCallback = NULL;
 973:../Drivers/STM32L4xx_HAL_Driver/Src/stm32l4xx_hal_dma.c ****            break;
 974:../Drivers/STM32L4xx_HAL_Driver/Src/stm32l4xx_hal_dma.c **** 
 975:../Drivers/STM32L4xx_HAL_Driver/Src/stm32l4xx_hal_dma.c ****      case  HAL_DMA_XFER_ABORT_CB_ID:
 976:../Drivers/STM32L4xx_HAL_Driver/Src/stm32l4xx_hal_dma.c ****            hdma->XferAbortCallback = NULL;
 977:../Drivers/STM32L4xx_HAL_Driver/Src/stm32l4xx_hal_dma.c ****            break;
 978:../Drivers/STM32L4xx_HAL_Driver/Src/stm32l4xx_hal_dma.c **** 
 979:../Drivers/STM32L4xx_HAL_Driver/Src/stm32l4xx_hal_dma.c ****     case   HAL_DMA_XFER_ALL_CB_ID:
 980:../Drivers/STM32L4xx_HAL_Driver/Src/stm32l4xx_hal_dma.c ****            hdma->XferCpltCallback = NULL;
 981:../Drivers/STM32L4xx_HAL_Driver/Src/stm32l4xx_hal_dma.c ****            hdma->XferHalfCpltCallback = NULL;
 982:../Drivers/STM32L4xx_HAL_Driver/Src/stm32l4xx_hal_dma.c ****            hdma->XferErrorCallback = NULL;
 983:../Drivers/STM32L4xx_HAL_Driver/Src/stm32l4xx_hal_dma.c ****            hdma->XferAbortCallback = NULL;
 984:../Drivers/STM32L4xx_HAL_Driver/Src/stm32l4xx_hal_dma.c ****            break;
 985:../Drivers/STM32L4xx_HAL_Driver/Src/stm32l4xx_hal_dma.c **** 
 986:../Drivers/STM32L4xx_HAL_Driver/Src/stm32l4xx_hal_dma.c ****     default:
 987:../Drivers/STM32L4xx_HAL_Driver/Src/stm32l4xx_hal_dma.c ****            status = HAL_ERROR;
ARM GAS  C:\Users\hoodc\AppData\Local\Temp\cc4eu5v8.s 			page 28


 988:../Drivers/STM32L4xx_HAL_Driver/Src/stm32l4xx_hal_dma.c ****            break;
 989:../Drivers/STM32L4xx_HAL_Driver/Src/stm32l4xx_hal_dma.c ****     }
 990:../Drivers/STM32L4xx_HAL_Driver/Src/stm32l4xx_hal_dma.c ****   }
 991:../Drivers/STM32L4xx_HAL_Driver/Src/stm32l4xx_hal_dma.c ****   else
 992:../Drivers/STM32L4xx_HAL_Driver/Src/stm32l4xx_hal_dma.c ****   {
 993:../Drivers/STM32L4xx_HAL_Driver/Src/stm32l4xx_hal_dma.c ****     status = HAL_ERROR;
 994:../Drivers/STM32L4xx_HAL_Driver/Src/stm32l4xx_hal_dma.c ****   }
 995:../Drivers/STM32L4xx_HAL_Driver/Src/stm32l4xx_hal_dma.c **** 
 996:../Drivers/STM32L4xx_HAL_Driver/Src/stm32l4xx_hal_dma.c ****   /* Release Lock */
 997:../Drivers/STM32L4xx_HAL_Driver/Src/stm32l4xx_hal_dma.c ****   __HAL_UNLOCK(hdma);
 998:../Drivers/STM32L4xx_HAL_Driver/Src/stm32l4xx_hal_dma.c **** 
 999:../Drivers/STM32L4xx_HAL_Driver/Src/stm32l4xx_hal_dma.c ****   return status;
1000:../Drivers/STM32L4xx_HAL_Driver/Src/stm32l4xx_hal_dma.c **** }
1001:../Drivers/STM32L4xx_HAL_Driver/Src/stm32l4xx_hal_dma.c **** 
1002:../Drivers/STM32L4xx_HAL_Driver/Src/stm32l4xx_hal_dma.c **** /**
1003:../Drivers/STM32L4xx_HAL_Driver/Src/stm32l4xx_hal_dma.c ****   * @}
1004:../Drivers/STM32L4xx_HAL_Driver/Src/stm32l4xx_hal_dma.c ****   */
1005:../Drivers/STM32L4xx_HAL_Driver/Src/stm32l4xx_hal_dma.c **** 
1006:../Drivers/STM32L4xx_HAL_Driver/Src/stm32l4xx_hal_dma.c **** 
1007:../Drivers/STM32L4xx_HAL_Driver/Src/stm32l4xx_hal_dma.c **** 
1008:../Drivers/STM32L4xx_HAL_Driver/Src/stm32l4xx_hal_dma.c **** /** @defgroup DMA_Exported_Functions_Group3 Peripheral State and Errors functions
1009:../Drivers/STM32L4xx_HAL_Driver/Src/stm32l4xx_hal_dma.c ****  *  @brief    Peripheral State and Errors functions
1010:../Drivers/STM32L4xx_HAL_Driver/Src/stm32l4xx_hal_dma.c ****  *
1011:../Drivers/STM32L4xx_HAL_Driver/Src/stm32l4xx_hal_dma.c **** @verbatim
1012:../Drivers/STM32L4xx_HAL_Driver/Src/stm32l4xx_hal_dma.c ****  ===============================================================================
1013:../Drivers/STM32L4xx_HAL_Driver/Src/stm32l4xx_hal_dma.c ****             ##### Peripheral State and Errors functions #####
1014:../Drivers/STM32L4xx_HAL_Driver/Src/stm32l4xx_hal_dma.c ****  ===============================================================================
1015:../Drivers/STM32L4xx_HAL_Driver/Src/stm32l4xx_hal_dma.c ****     [..]
1016:../Drivers/STM32L4xx_HAL_Driver/Src/stm32l4xx_hal_dma.c ****     This subsection provides functions allowing to
1017:../Drivers/STM32L4xx_HAL_Driver/Src/stm32l4xx_hal_dma.c ****       (+) Check the DMA state
1018:../Drivers/STM32L4xx_HAL_Driver/Src/stm32l4xx_hal_dma.c ****       (+) Get error code
1019:../Drivers/STM32L4xx_HAL_Driver/Src/stm32l4xx_hal_dma.c **** 
1020:../Drivers/STM32L4xx_HAL_Driver/Src/stm32l4xx_hal_dma.c **** @endverbatim
1021:../Drivers/STM32L4xx_HAL_Driver/Src/stm32l4xx_hal_dma.c ****   * @{
1022:../Drivers/STM32L4xx_HAL_Driver/Src/stm32l4xx_hal_dma.c ****   */
1023:../Drivers/STM32L4xx_HAL_Driver/Src/stm32l4xx_hal_dma.c **** 
1024:../Drivers/STM32L4xx_HAL_Driver/Src/stm32l4xx_hal_dma.c **** /**
1025:../Drivers/STM32L4xx_HAL_Driver/Src/stm32l4xx_hal_dma.c ****   * @brief  Return the DMA handle state.
1026:../Drivers/STM32L4xx_HAL_Driver/Src/stm32l4xx_hal_dma.c ****   * @param  hdma pointer to a DMA_HandleTypeDef structure that contains
1027:../Drivers/STM32L4xx_HAL_Driver/Src/stm32l4xx_hal_dma.c ****   *               the configuration information for the specified DMA Channel.
1028:../Drivers/STM32L4xx_HAL_Driver/Src/stm32l4xx_hal_dma.c ****   * @retval HAL state
1029:../Drivers/STM32L4xx_HAL_Driver/Src/stm32l4xx_hal_dma.c ****   */
1030:../Drivers/STM32L4xx_HAL_Driver/Src/stm32l4xx_hal_dma.c **** HAL_DMA_StateTypeDef HAL_DMA_GetState(DMA_HandleTypeDef *hdma)
1031:../Drivers/STM32L4xx_HAL_Driver/Src/stm32l4xx_hal_dma.c **** {
1032:../Drivers/STM32L4xx_HAL_Driver/Src/stm32l4xx_hal_dma.c ****   /* Return DMA handle state */
1033:../Drivers/STM32L4xx_HAL_Driver/Src/stm32l4xx_hal_dma.c ****   return hdma->State;
1034:../Drivers/STM32L4xx_HAL_Driver/Src/stm32l4xx_hal_dma.c **** }
1035:../Drivers/STM32L4xx_HAL_Driver/Src/stm32l4xx_hal_dma.c **** 
1036:../Drivers/STM32L4xx_HAL_Driver/Src/stm32l4xx_hal_dma.c **** /**
1037:../Drivers/STM32L4xx_HAL_Driver/Src/stm32l4xx_hal_dma.c ****   * @brief  Return the DMA error code.
1038:../Drivers/STM32L4xx_HAL_Driver/Src/stm32l4xx_hal_dma.c ****   * @param  hdma : pointer to a DMA_HandleTypeDef structure that contains
1039:../Drivers/STM32L4xx_HAL_Driver/Src/stm32l4xx_hal_dma.c ****   *              the configuration information for the specified DMA Channel.
1040:../Drivers/STM32L4xx_HAL_Driver/Src/stm32l4xx_hal_dma.c ****   * @retval DMA Error Code
1041:../Drivers/STM32L4xx_HAL_Driver/Src/stm32l4xx_hal_dma.c ****   */
1042:../Drivers/STM32L4xx_HAL_Driver/Src/stm32l4xx_hal_dma.c **** uint32_t HAL_DMA_GetError(DMA_HandleTypeDef *hdma)
1043:../Drivers/STM32L4xx_HAL_Driver/Src/stm32l4xx_hal_dma.c **** {
1044:../Drivers/STM32L4xx_HAL_Driver/Src/stm32l4xx_hal_dma.c ****   return hdma->ErrorCode;
ARM GAS  C:\Users\hoodc\AppData\Local\Temp\cc4eu5v8.s 			page 29


1045:../Drivers/STM32L4xx_HAL_Driver/Src/stm32l4xx_hal_dma.c **** }
1046:../Drivers/STM32L4xx_HAL_Driver/Src/stm32l4xx_hal_dma.c **** 
1047:../Drivers/STM32L4xx_HAL_Driver/Src/stm32l4xx_hal_dma.c **** /**
1048:../Drivers/STM32L4xx_HAL_Driver/Src/stm32l4xx_hal_dma.c ****   * @}
1049:../Drivers/STM32L4xx_HAL_Driver/Src/stm32l4xx_hal_dma.c ****   */
1050:../Drivers/STM32L4xx_HAL_Driver/Src/stm32l4xx_hal_dma.c **** 
1051:../Drivers/STM32L4xx_HAL_Driver/Src/stm32l4xx_hal_dma.c **** /**
1052:../Drivers/STM32L4xx_HAL_Driver/Src/stm32l4xx_hal_dma.c ****   * @}
1053:../Drivers/STM32L4xx_HAL_Driver/Src/stm32l4xx_hal_dma.c ****   */
1054:../Drivers/STM32L4xx_HAL_Driver/Src/stm32l4xx_hal_dma.c **** 
1055:../Drivers/STM32L4xx_HAL_Driver/Src/stm32l4xx_hal_dma.c **** /** @addtogroup DMA_Private_Functions
1056:../Drivers/STM32L4xx_HAL_Driver/Src/stm32l4xx_hal_dma.c ****   * @{
1057:../Drivers/STM32L4xx_HAL_Driver/Src/stm32l4xx_hal_dma.c ****   */
1058:../Drivers/STM32L4xx_HAL_Driver/Src/stm32l4xx_hal_dma.c **** 
1059:../Drivers/STM32L4xx_HAL_Driver/Src/stm32l4xx_hal_dma.c **** /**
1060:../Drivers/STM32L4xx_HAL_Driver/Src/stm32l4xx_hal_dma.c ****   * @brief  Sets the DMA Transfer parameter.
1061:../Drivers/STM32L4xx_HAL_Driver/Src/stm32l4xx_hal_dma.c ****   * @param  hdma       pointer to a DMA_HandleTypeDef structure that contains
1062:../Drivers/STM32L4xx_HAL_Driver/Src/stm32l4xx_hal_dma.c ****   *                     the configuration information for the specified DMA Channel.
1063:../Drivers/STM32L4xx_HAL_Driver/Src/stm32l4xx_hal_dma.c ****   * @param  SrcAddress The source memory Buffer address
1064:../Drivers/STM32L4xx_HAL_Driver/Src/stm32l4xx_hal_dma.c ****   * @param  DstAddress The destination memory Buffer address
1065:../Drivers/STM32L4xx_HAL_Driver/Src/stm32l4xx_hal_dma.c ****   * @param  DataLength The length of data to be transferred from source to destination
1066:../Drivers/STM32L4xx_HAL_Driver/Src/stm32l4xx_hal_dma.c ****   * @retval HAL status
1067:../Drivers/STM32L4xx_HAL_Driver/Src/stm32l4xx_hal_dma.c ****   */
1068:../Drivers/STM32L4xx_HAL_Driver/Src/stm32l4xx_hal_dma.c **** static void DMA_SetConfig(DMA_HandleTypeDef *hdma, uint32_t SrcAddress, uint32_t DstAddress, uint32
 511              		.loc 1 1068 13 view .LVU172
 512              	.LBB5:
1069:../Drivers/STM32L4xx_HAL_Driver/Src/stm32l4xx_hal_dma.c **** {
1070:../Drivers/STM32L4xx_HAL_Driver/Src/stm32l4xx_hal_dma.c **** #if defined(DMAMUX1)
1071:../Drivers/STM32L4xx_HAL_Driver/Src/stm32l4xx_hal_dma.c ****   /* Clear the DMAMUX synchro overrun flag */
1072:../Drivers/STM32L4xx_HAL_Driver/Src/stm32l4xx_hal_dma.c ****   hdma->DMAmuxChannelStatus->CFR = hdma->DMAmuxChannelStatusMask;
1073:../Drivers/STM32L4xx_HAL_Driver/Src/stm32l4xx_hal_dma.c **** 
1074:../Drivers/STM32L4xx_HAL_Driver/Src/stm32l4xx_hal_dma.c ****   if(hdma->DMAmuxRequestGen != 0U)
1075:../Drivers/STM32L4xx_HAL_Driver/Src/stm32l4xx_hal_dma.c ****   {
1076:../Drivers/STM32L4xx_HAL_Driver/Src/stm32l4xx_hal_dma.c ****     /* Clear the DMAMUX request generator overrun flag */
1077:../Drivers/STM32L4xx_HAL_Driver/Src/stm32l4xx_hal_dma.c ****     hdma->DMAmuxRequestGenStatus->RGCFR = hdma->DMAmuxRequestGenStatusMask;
1078:../Drivers/STM32L4xx_HAL_Driver/Src/stm32l4xx_hal_dma.c ****   }
1079:../Drivers/STM32L4xx_HAL_Driver/Src/stm32l4xx_hal_dma.c **** #endif
1080:../Drivers/STM32L4xx_HAL_Driver/Src/stm32l4xx_hal_dma.c **** 
1081:../Drivers/STM32L4xx_HAL_Driver/Src/stm32l4xx_hal_dma.c ****   /* Clear all flags */
1082:../Drivers/STM32L4xx_HAL_Driver/Src/stm32l4xx_hal_dma.c ****   hdma->DmaBaseAddress->IFCR = (DMA_ISR_GIF1 << (hdma->ChannelIndex & 0x1CU));
 513              		.loc 1 1082 3 view .LVU173
 514              		.loc 1 1082 69 is_stmt 0 view .LVU174
 515 020a 446C     		ldr	r4, [r0, #68]
 516 020c 04F01C0C 		and	ip, r4, #28
 517              		.loc 1 1082 46 view .LVU175
 518 0210 0124     		movs	r4, #1
 519 0212 04FA0CF4 		lsl	r4, r4, ip
 520              		.loc 1 1082 30 view .LVU176
 521 0216 056C     		ldr	r5, [r0, #64]
 522 0218 6C60     		str	r4, [r5, #4]
1083:../Drivers/STM32L4xx_HAL_Driver/Src/stm32l4xx_hal_dma.c **** 
1084:../Drivers/STM32L4xx_HAL_Driver/Src/stm32l4xx_hal_dma.c ****   /* Configure DMA Channel data length */
1085:../Drivers/STM32L4xx_HAL_Driver/Src/stm32l4xx_hal_dma.c ****   hdma->Instance->CNDTR = DataLength;
 523              		.loc 1 1085 3 is_stmt 1 view .LVU177
 524              		.loc 1 1085 7 is_stmt 0 view .LVU178
 525 021a 0468     		ldr	r4, [r0]
 526              		.loc 1 1085 25 view .LVU179
ARM GAS  C:\Users\hoodc\AppData\Local\Temp\cc4eu5v8.s 			page 30


 527 021c 6360     		str	r3, [r4, #4]
1086:../Drivers/STM32L4xx_HAL_Driver/Src/stm32l4xx_hal_dma.c **** 
1087:../Drivers/STM32L4xx_HAL_Driver/Src/stm32l4xx_hal_dma.c ****   /* Memory to Peripheral */
1088:../Drivers/STM32L4xx_HAL_Driver/Src/stm32l4xx_hal_dma.c ****   if((hdma->Init.Direction) == DMA_MEMORY_TO_PERIPH)
 528              		.loc 1 1088 3 is_stmt 1 view .LVU180
 529              		.loc 1 1088 5 is_stmt 0 view .LVU181
 530 021e 8368     		ldr	r3, [r0, #8]
 531              	.LVL25:
 532              		.loc 1 1088 5 view .LVU182
 533 0220 102B     		cmp	r3, #16
 534 0222 0AD0     		beq	.L28
1089:../Drivers/STM32L4xx_HAL_Driver/Src/stm32l4xx_hal_dma.c ****   {
1090:../Drivers/STM32L4xx_HAL_Driver/Src/stm32l4xx_hal_dma.c ****     /* Configure DMA Channel destination address */
1091:../Drivers/STM32L4xx_HAL_Driver/Src/stm32l4xx_hal_dma.c ****     hdma->Instance->CPAR = DstAddress;
1092:../Drivers/STM32L4xx_HAL_Driver/Src/stm32l4xx_hal_dma.c **** 
1093:../Drivers/STM32L4xx_HAL_Driver/Src/stm32l4xx_hal_dma.c ****     /* Configure DMA Channel source address */
1094:../Drivers/STM32L4xx_HAL_Driver/Src/stm32l4xx_hal_dma.c ****     hdma->Instance->CMAR = SrcAddress;
1095:../Drivers/STM32L4xx_HAL_Driver/Src/stm32l4xx_hal_dma.c ****   }
1096:../Drivers/STM32L4xx_HAL_Driver/Src/stm32l4xx_hal_dma.c ****   /* Peripheral to Memory */
1097:../Drivers/STM32L4xx_HAL_Driver/Src/stm32l4xx_hal_dma.c ****   else
1098:../Drivers/STM32L4xx_HAL_Driver/Src/stm32l4xx_hal_dma.c ****   {
1099:../Drivers/STM32L4xx_HAL_Driver/Src/stm32l4xx_hal_dma.c ****     /* Configure DMA Channel source address */
1100:../Drivers/STM32L4xx_HAL_Driver/Src/stm32l4xx_hal_dma.c ****     hdma->Instance->CPAR = SrcAddress;
 535              		.loc 1 1100 5 is_stmt 1 view .LVU183
 536              		.loc 1 1100 9 is_stmt 0 view .LVU184
 537 0224 0368     		ldr	r3, [r0]
 538              		.loc 1 1100 26 view .LVU185
 539 0226 9960     		str	r1, [r3, #8]
 540              	.LVL26:
1101:../Drivers/STM32L4xx_HAL_Driver/Src/stm32l4xx_hal_dma.c **** 
1102:../Drivers/STM32L4xx_HAL_Driver/Src/stm32l4xx_hal_dma.c ****     /* Configure DMA Channel destination address */
1103:../Drivers/STM32L4xx_HAL_Driver/Src/stm32l4xx_hal_dma.c ****     hdma->Instance->CMAR = DstAddress;
 541              		.loc 1 1103 5 is_stmt 1 view .LVU186
 542              		.loc 1 1103 9 is_stmt 0 view .LVU187
 543 0228 0368     		ldr	r3, [r0]
 544              		.loc 1 1103 26 view .LVU188
 545 022a DA60     		str	r2, [r3, #12]
 546              	.L25:
 547              	.LVL27:
 548              		.loc 1 1103 26 view .LVU189
 549              	.LBE5:
 550              	.LBE4:
 453:../Drivers/STM32L4xx_HAL_Driver/Src/stm32l4xx_hal_dma.c ****   }
 551              		.loc 1 453 5 is_stmt 1 view .LVU190
 552 022c 0268     		ldr	r2, [r0]
 553              	.LVL28:
 453:../Drivers/STM32L4xx_HAL_Driver/Src/stm32l4xx_hal_dma.c ****   }
 554              		.loc 1 453 5 is_stmt 0 view .LVU191
 555 022e 1368     		ldr	r3, [r2]
 556 0230 43F00103 		orr	r3, r3, #1
 557 0234 1360     		str	r3, [r2]
 432:../Drivers/STM32L4xx_HAL_Driver/Src/stm32l4xx_hal_dma.c **** 
 558              		.loc 1 432 21 view .LVU192
 559 0236 0020     		movs	r0, #0
 560              	.LVL29:
 432:../Drivers/STM32L4xx_HAL_Driver/Src/stm32l4xx_hal_dma.c **** 
 561              		.loc 1 432 21 view .LVU193
ARM GAS  C:\Users\hoodc\AppData\Local\Temp\cc4eu5v8.s 			page 31


 562 0238 DBE7     		b	.L22
 563              	.LVL30:
 564              	.L28:
 565              	.LBB7:
 566              	.LBB6:
1091:../Drivers/STM32L4xx_HAL_Driver/Src/stm32l4xx_hal_dma.c **** 
 567              		.loc 1 1091 5 is_stmt 1 view .LVU194
1091:../Drivers/STM32L4xx_HAL_Driver/Src/stm32l4xx_hal_dma.c **** 
 568              		.loc 1 1091 9 is_stmt 0 view .LVU195
 569 023a 0368     		ldr	r3, [r0]
1091:../Drivers/STM32L4xx_HAL_Driver/Src/stm32l4xx_hal_dma.c **** 
 570              		.loc 1 1091 26 view .LVU196
 571 023c 9A60     		str	r2, [r3, #8]
 572              	.LVL31:
1094:../Drivers/STM32L4xx_HAL_Driver/Src/stm32l4xx_hal_dma.c ****   }
 573              		.loc 1 1094 5 is_stmt 1 view .LVU197
1094:../Drivers/STM32L4xx_HAL_Driver/Src/stm32l4xx_hal_dma.c ****   }
 574              		.loc 1 1094 9 is_stmt 0 view .LVU198
 575 023e 0368     		ldr	r3, [r0]
1094:../Drivers/STM32L4xx_HAL_Driver/Src/stm32l4xx_hal_dma.c ****   }
 576              		.loc 1 1094 26 view .LVU199
 577 0240 D960     		str	r1, [r3, #12]
 578 0242 F3E7     		b	.L25
 579              	.LVL32:
 580              	.L26:
1094:../Drivers/STM32L4xx_HAL_Driver/Src/stm32l4xx_hal_dma.c ****   }
 581              		.loc 1 1094 26 view .LVU200
 582              	.LBE6:
 583              	.LBE7:
 438:../Drivers/STM32L4xx_HAL_Driver/Src/stm32l4xx_hal_dma.c **** 
 584              		.loc 1 438 3 view .LVU201
 585 0244 0220     		movs	r0, #2
 586              	.LVL33:
 438:../Drivers/STM32L4xx_HAL_Driver/Src/stm32l4xx_hal_dma.c **** 
 587              		.loc 1 438 3 view .LVU202
 588 0246 D4E7     		b	.L22
 589              		.cfi_endproc
 590              	.LFE135:
 591              		.size	HAL_DMA_Start, .-HAL_DMA_Start
 592              		.align	1
 593              		.global	HAL_DMA_Start_IT
 594              		.syntax unified
 595              		.thumb
 596              		.thumb_func
 597              		.fpu softvfp
 598              		.type	HAL_DMA_Start_IT, %function
 599              	HAL_DMA_Start_IT:
 600              	.LVL34:
 601              	.LFB136:
 474:../Drivers/STM32L4xx_HAL_Driver/Src/stm32l4xx_hal_dma.c ****   HAL_StatusTypeDef status = HAL_OK;
 602              		.loc 1 474 1 is_stmt 1 view -0
 603              		.cfi_startproc
 604              		@ args = 0, pretend = 0, frame = 0
 605              		@ frame_needed = 0, uses_anonymous_args = 0
 606              		@ link register save eliminated.
 474:../Drivers/STM32L4xx_HAL_Driver/Src/stm32l4xx_hal_dma.c ****   HAL_StatusTypeDef status = HAL_OK;
 607              		.loc 1 474 1 is_stmt 0 view .LVU204
ARM GAS  C:\Users\hoodc\AppData\Local\Temp\cc4eu5v8.s 			page 32


 608 0248 30B4     		push	{r4, r5}
 609              	.LCFI9:
 610              		.cfi_def_cfa_offset 8
 611              		.cfi_offset 4, -8
 612              		.cfi_offset 5, -4
 475:../Drivers/STM32L4xx_HAL_Driver/Src/stm32l4xx_hal_dma.c **** 
 613              		.loc 1 475 3 is_stmt 1 view .LVU205
 614              	.LVL35:
 478:../Drivers/STM32L4xx_HAL_Driver/Src/stm32l4xx_hal_dma.c **** 
 615              		.loc 1 478 3 view .LVU206
 481:../Drivers/STM32L4xx_HAL_Driver/Src/stm32l4xx_hal_dma.c **** 
 616              		.loc 1 481 3 view .LVU207
 481:../Drivers/STM32L4xx_HAL_Driver/Src/stm32l4xx_hal_dma.c **** 
 617              		.loc 1 481 3 view .LVU208
 618 024a 90F824C0 		ldrb	ip, [r0, #36]	@ zero_extendqisi2
 619 024e BCF1010F 		cmp	ip, #1
 620 0252 49D0     		beq	.L36
 481:../Drivers/STM32L4xx_HAL_Driver/Src/stm32l4xx_hal_dma.c **** 
 621              		.loc 1 481 3 discriminator 2 view .LVU209
 622 0254 4FF0010C 		mov	ip, #1
 623 0258 80F824C0 		strb	ip, [r0, #36]
 481:../Drivers/STM32L4xx_HAL_Driver/Src/stm32l4xx_hal_dma.c **** 
 624              		.loc 1 481 3 discriminator 2 view .LVU210
 483:../Drivers/STM32L4xx_HAL_Driver/Src/stm32l4xx_hal_dma.c ****   {
 625              		.loc 1 483 3 discriminator 2 view .LVU211
 483:../Drivers/STM32L4xx_HAL_Driver/Src/stm32l4xx_hal_dma.c ****   {
 626              		.loc 1 483 33 is_stmt 0 discriminator 2 view .LVU212
 627 025c 90F825C0 		ldrb	ip, [r0, #37]	@ zero_extendqisi2
 628 0260 5FFA8CFC 		uxtb	ip, ip
 483:../Drivers/STM32L4xx_HAL_Driver/Src/stm32l4xx_hal_dma.c ****   {
 629              		.loc 1 483 5 discriminator 2 view .LVU213
 630 0264 BCF1010F 		cmp	ip, #1
 631 0268 05D0     		beq	.L37
 532:../Drivers/STM32L4xx_HAL_Driver/Src/stm32l4xx_hal_dma.c **** 
 632              		.loc 1 532 5 is_stmt 1 view .LVU214
 532:../Drivers/STM32L4xx_HAL_Driver/Src/stm32l4xx_hal_dma.c **** 
 633              		.loc 1 532 5 view .LVU215
 634 026a 0023     		movs	r3, #0
 635              	.LVL36:
 532:../Drivers/STM32L4xx_HAL_Driver/Src/stm32l4xx_hal_dma.c **** 
 636              		.loc 1 532 5 is_stmt 0 view .LVU216
 637 026c 80F82430 		strb	r3, [r0, #36]
 532:../Drivers/STM32L4xx_HAL_Driver/Src/stm32l4xx_hal_dma.c **** 
 638              		.loc 1 532 5 is_stmt 1 view .LVU217
 535:../Drivers/STM32L4xx_HAL_Driver/Src/stm32l4xx_hal_dma.c ****   }
 639              		.loc 1 535 5 view .LVU218
 640              	.LVL37:
 535:../Drivers/STM32L4xx_HAL_Driver/Src/stm32l4xx_hal_dma.c ****   }
 641              		.loc 1 535 12 is_stmt 0 view .LVU219
 642 0270 0220     		movs	r0, #2
 643              	.LVL38:
 644              	.L30:
 538:../Drivers/STM32L4xx_HAL_Driver/Src/stm32l4xx_hal_dma.c **** 
 645              		.loc 1 538 1 view .LVU220
 646 0272 30BC     		pop	{r4, r5}
 647              	.LCFI10:
 648              		.cfi_remember_state
ARM GAS  C:\Users\hoodc\AppData\Local\Temp\cc4eu5v8.s 			page 33


 649              		.cfi_restore 5
 650              		.cfi_restore 4
 651              		.cfi_def_cfa_offset 0
 652 0274 7047     		bx	lr
 653              	.LVL39:
 654              	.L37:
 655              	.LCFI11:
 656              		.cfi_restore_state
 486:../Drivers/STM32L4xx_HAL_Driver/Src/stm32l4xx_hal_dma.c ****     hdma->ErrorCode = HAL_DMA_ERROR_NONE;
 657              		.loc 1 486 5 is_stmt 1 view .LVU221
 486:../Drivers/STM32L4xx_HAL_Driver/Src/stm32l4xx_hal_dma.c ****     hdma->ErrorCode = HAL_DMA_ERROR_NONE;
 658              		.loc 1 486 17 is_stmt 0 view .LVU222
 659 0276 0224     		movs	r4, #2
 660 0278 80F82540 		strb	r4, [r0, #37]
 487:../Drivers/STM32L4xx_HAL_Driver/Src/stm32l4xx_hal_dma.c **** 
 661              		.loc 1 487 5 is_stmt 1 view .LVU223
 487:../Drivers/STM32L4xx_HAL_Driver/Src/stm32l4xx_hal_dma.c **** 
 662              		.loc 1 487 21 is_stmt 0 view .LVU224
 663 027c 0024     		movs	r4, #0
 664 027e C463     		str	r4, [r0, #60]
 490:../Drivers/STM32L4xx_HAL_Driver/Src/stm32l4xx_hal_dma.c **** 
 665              		.loc 1 490 5 is_stmt 1 view .LVU225
 666 0280 0568     		ldr	r5, [r0]
 667 0282 2C68     		ldr	r4, [r5]
 668 0284 24F00104 		bic	r4, r4, #1
 669 0288 2C60     		str	r4, [r5]
 493:../Drivers/STM32L4xx_HAL_Driver/Src/stm32l4xx_hal_dma.c **** 
 670              		.loc 1 493 5 view .LVU226
 671              	.LVL40:
 672              	.LBB10:
 673              	.LBI10:
1068:../Drivers/STM32L4xx_HAL_Driver/Src/stm32l4xx_hal_dma.c **** {
 674              		.loc 1 1068 13 view .LVU227
 675              	.LBB11:
1082:../Drivers/STM32L4xx_HAL_Driver/Src/stm32l4xx_hal_dma.c **** 
 676              		.loc 1 1082 3 view .LVU228
1082:../Drivers/STM32L4xx_HAL_Driver/Src/stm32l4xx_hal_dma.c **** 
 677              		.loc 1 1082 69 is_stmt 0 view .LVU229
 678 028a 446C     		ldr	r4, [r0, #68]
 679 028c 04F01C0C 		and	ip, r4, #28
1082:../Drivers/STM32L4xx_HAL_Driver/Src/stm32l4xx_hal_dma.c **** 
 680              		.loc 1 1082 46 view .LVU230
 681 0290 0124     		movs	r4, #1
 682 0292 04FA0CF4 		lsl	r4, r4, ip
1082:../Drivers/STM32L4xx_HAL_Driver/Src/stm32l4xx_hal_dma.c **** 
 683              		.loc 1 1082 30 view .LVU231
 684 0296 056C     		ldr	r5, [r0, #64]
 685 0298 6C60     		str	r4, [r5, #4]
1085:../Drivers/STM32L4xx_HAL_Driver/Src/stm32l4xx_hal_dma.c **** 
 686              		.loc 1 1085 3 is_stmt 1 view .LVU232
1085:../Drivers/STM32L4xx_HAL_Driver/Src/stm32l4xx_hal_dma.c **** 
 687              		.loc 1 1085 7 is_stmt 0 view .LVU233
 688 029a 0468     		ldr	r4, [r0]
1085:../Drivers/STM32L4xx_HAL_Driver/Src/stm32l4xx_hal_dma.c **** 
 689              		.loc 1 1085 25 view .LVU234
 690 029c 6360     		str	r3, [r4, #4]
1088:../Drivers/STM32L4xx_HAL_Driver/Src/stm32l4xx_hal_dma.c ****   {
ARM GAS  C:\Users\hoodc\AppData\Local\Temp\cc4eu5v8.s 			page 34


 691              		.loc 1 1088 3 is_stmt 1 view .LVU235
1088:../Drivers/STM32L4xx_HAL_Driver/Src/stm32l4xx_hal_dma.c ****   {
 692              		.loc 1 1088 5 is_stmt 0 view .LVU236
 693 029e 8368     		ldr	r3, [r0, #8]
 694              	.LVL41:
1088:../Drivers/STM32L4xx_HAL_Driver/Src/stm32l4xx_hal_dma.c ****   {
 695              		.loc 1 1088 5 view .LVU237
 696 02a0 102B     		cmp	r3, #16
 697 02a2 11D0     		beq	.L38
1100:../Drivers/STM32L4xx_HAL_Driver/Src/stm32l4xx_hal_dma.c **** 
 698              		.loc 1 1100 5 is_stmt 1 view .LVU238
1100:../Drivers/STM32L4xx_HAL_Driver/Src/stm32l4xx_hal_dma.c **** 
 699              		.loc 1 1100 9 is_stmt 0 view .LVU239
 700 02a4 0368     		ldr	r3, [r0]
1100:../Drivers/STM32L4xx_HAL_Driver/Src/stm32l4xx_hal_dma.c **** 
 701              		.loc 1 1100 26 view .LVU240
 702 02a6 9960     		str	r1, [r3, #8]
 703              	.LVL42:
 704              		.loc 1 1103 5 is_stmt 1 view .LVU241
 705              		.loc 1 1103 9 is_stmt 0 view .LVU242
 706 02a8 0368     		ldr	r3, [r0]
 707              		.loc 1 1103 26 view .LVU243
 708 02aa DA60     		str	r2, [r3, #12]
 709              	.L33:
 710              	.LVL43:
 711              		.loc 1 1103 26 view .LVU244
 712              	.LBE11:
 713              	.LBE10:
 497:../Drivers/STM32L4xx_HAL_Driver/Src/stm32l4xx_hal_dma.c ****     {
 714              		.loc 1 497 5 is_stmt 1 view .LVU245
 497:../Drivers/STM32L4xx_HAL_Driver/Src/stm32l4xx_hal_dma.c ****     {
 715              		.loc 1 497 7 is_stmt 0 view .LVU246
 716 02ac 036B     		ldr	r3, [r0, #48]
 717 02ae 83B1     		cbz	r3, .L34
 500:../Drivers/STM32L4xx_HAL_Driver/Src/stm32l4xx_hal_dma.c ****     }
 718              		.loc 1 500 7 is_stmt 1 view .LVU247
 719 02b0 0268     		ldr	r2, [r0]
 720              	.LVL44:
 500:../Drivers/STM32L4xx_HAL_Driver/Src/stm32l4xx_hal_dma.c ****     }
 721              		.loc 1 500 7 is_stmt 0 view .LVU248
 722 02b2 1368     		ldr	r3, [r2]
 723 02b4 43F00E03 		orr	r3, r3, #14
 724 02b8 1360     		str	r3, [r2]
 725              	.L35:
 527:../Drivers/STM32L4xx_HAL_Driver/Src/stm32l4xx_hal_dma.c ****   }
 726              		.loc 1 527 5 is_stmt 1 view .LVU249
 727 02ba 0268     		ldr	r2, [r0]
 728 02bc 1368     		ldr	r3, [r2]
 729 02be 43F00103 		orr	r3, r3, #1
 730 02c2 1360     		str	r3, [r2]
 475:../Drivers/STM32L4xx_HAL_Driver/Src/stm32l4xx_hal_dma.c **** 
 731              		.loc 1 475 21 is_stmt 0 view .LVU250
 732 02c4 0020     		movs	r0, #0
 733              	.LVL45:
 475:../Drivers/STM32L4xx_HAL_Driver/Src/stm32l4xx_hal_dma.c **** 
 734              		.loc 1 475 21 view .LVU251
 735 02c6 D4E7     		b	.L30
ARM GAS  C:\Users\hoodc\AppData\Local\Temp\cc4eu5v8.s 			page 35


 736              	.LVL46:
 737              	.L38:
 738              	.LBB13:
 739              	.LBB12:
1091:../Drivers/STM32L4xx_HAL_Driver/Src/stm32l4xx_hal_dma.c **** 
 740              		.loc 1 1091 5 is_stmt 1 view .LVU252
1091:../Drivers/STM32L4xx_HAL_Driver/Src/stm32l4xx_hal_dma.c **** 
 741              		.loc 1 1091 9 is_stmt 0 view .LVU253
 742 02c8 0368     		ldr	r3, [r0]
1091:../Drivers/STM32L4xx_HAL_Driver/Src/stm32l4xx_hal_dma.c **** 
 743              		.loc 1 1091 26 view .LVU254
 744 02ca 9A60     		str	r2, [r3, #8]
 745              	.LVL47:
1094:../Drivers/STM32L4xx_HAL_Driver/Src/stm32l4xx_hal_dma.c ****   }
 746              		.loc 1 1094 5 is_stmt 1 view .LVU255
1094:../Drivers/STM32L4xx_HAL_Driver/Src/stm32l4xx_hal_dma.c ****   }
 747              		.loc 1 1094 9 is_stmt 0 view .LVU256
 748 02cc 0368     		ldr	r3, [r0]
1094:../Drivers/STM32L4xx_HAL_Driver/Src/stm32l4xx_hal_dma.c ****   }
 749              		.loc 1 1094 26 view .LVU257
 750 02ce D960     		str	r1, [r3, #12]
 751 02d0 ECE7     		b	.L33
 752              	.LVL48:
 753              	.L34:
1094:../Drivers/STM32L4xx_HAL_Driver/Src/stm32l4xx_hal_dma.c ****   }
 754              		.loc 1 1094 26 view .LVU258
 755              	.LBE12:
 756              	.LBE13:
 504:../Drivers/STM32L4xx_HAL_Driver/Src/stm32l4xx_hal_dma.c ****       __HAL_DMA_ENABLE_IT(hdma, (DMA_IT_TC | DMA_IT_TE));
 757              		.loc 1 504 7 is_stmt 1 view .LVU259
 758 02d2 0268     		ldr	r2, [r0]
 759              	.LVL49:
 504:../Drivers/STM32L4xx_HAL_Driver/Src/stm32l4xx_hal_dma.c ****       __HAL_DMA_ENABLE_IT(hdma, (DMA_IT_TC | DMA_IT_TE));
 760              		.loc 1 504 7 is_stmt 0 view .LVU260
 761 02d4 1368     		ldr	r3, [r2]
 762 02d6 23F00403 		bic	r3, r3, #4
 763 02da 1360     		str	r3, [r2]
 505:../Drivers/STM32L4xx_HAL_Driver/Src/stm32l4xx_hal_dma.c ****     }
 764              		.loc 1 505 7 is_stmt 1 view .LVU261
 765 02dc 0268     		ldr	r2, [r0]
 766 02de 1368     		ldr	r3, [r2]
 767 02e0 43F00A03 		orr	r3, r3, #10
 768 02e4 1360     		str	r3, [r2]
 769 02e6 E8E7     		b	.L35
 770              	.LVL50:
 771              	.L36:
 481:../Drivers/STM32L4xx_HAL_Driver/Src/stm32l4xx_hal_dma.c **** 
 772              		.loc 1 481 3 is_stmt 0 view .LVU262
 773 02e8 0220     		movs	r0, #2
 774              	.LVL51:
 481:../Drivers/STM32L4xx_HAL_Driver/Src/stm32l4xx_hal_dma.c **** 
 775              		.loc 1 481 3 view .LVU263
 776 02ea C2E7     		b	.L30
 777              		.cfi_endproc
 778              	.LFE136:
 779              		.size	HAL_DMA_Start_IT, .-HAL_DMA_Start_IT
 780              		.align	1
ARM GAS  C:\Users\hoodc\AppData\Local\Temp\cc4eu5v8.s 			page 36


 781              		.global	HAL_DMA_Abort
 782              		.syntax unified
 783              		.thumb
 784              		.thumb_func
 785              		.fpu softvfp
 786              		.type	HAL_DMA_Abort, %function
 787              	HAL_DMA_Abort:
 788              	.LVL52:
 789              	.LFB137:
 547:../Drivers/STM32L4xx_HAL_Driver/Src/stm32l4xx_hal_dma.c ****   HAL_StatusTypeDef status = HAL_OK;
 790              		.loc 1 547 1 is_stmt 1 view -0
 791              		.cfi_startproc
 792              		@ args = 0, pretend = 0, frame = 0
 793              		@ frame_needed = 0, uses_anonymous_args = 0
 794              		@ link register save eliminated.
 548:../Drivers/STM32L4xx_HAL_Driver/Src/stm32l4xx_hal_dma.c **** 
 795              		.loc 1 548 3 view .LVU265
 551:../Drivers/STM32L4xx_HAL_Driver/Src/stm32l4xx_hal_dma.c ****   {
 796              		.loc 1 551 3 view .LVU266
 551:../Drivers/STM32L4xx_HAL_Driver/Src/stm32l4xx_hal_dma.c ****   {
 797              		.loc 1 551 10 is_stmt 0 view .LVU267
 798 02ec 90F82530 		ldrb	r3, [r0, #37]	@ zero_extendqisi2
 799 02f0 DBB2     		uxtb	r3, r3
 551:../Drivers/STM32L4xx_HAL_Driver/Src/stm32l4xx_hal_dma.c ****   {
 800              		.loc 1 551 5 view .LVU268
 801 02f2 022B     		cmp	r3, #2
 802 02f4 06D0     		beq	.L40
 553:../Drivers/STM32L4xx_HAL_Driver/Src/stm32l4xx_hal_dma.c **** 
 803              		.loc 1 553 5 is_stmt 1 view .LVU269
 553:../Drivers/STM32L4xx_HAL_Driver/Src/stm32l4xx_hal_dma.c **** 
 804              		.loc 1 553 21 is_stmt 0 view .LVU270
 805 02f6 0423     		movs	r3, #4
 806 02f8 C363     		str	r3, [r0, #60]
 556:../Drivers/STM32L4xx_HAL_Driver/Src/stm32l4xx_hal_dma.c **** 
 807              		.loc 1 556 5 is_stmt 1 view .LVU271
 556:../Drivers/STM32L4xx_HAL_Driver/Src/stm32l4xx_hal_dma.c **** 
 808              		.loc 1 556 5 view .LVU272
 809 02fa 0023     		movs	r3, #0
 810 02fc 80F82430 		strb	r3, [r0, #36]
 556:../Drivers/STM32L4xx_HAL_Driver/Src/stm32l4xx_hal_dma.c **** 
 811              		.loc 1 556 5 view .LVU273
 558:../Drivers/STM32L4xx_HAL_Driver/Src/stm32l4xx_hal_dma.c ****   }
 812              		.loc 1 558 5 view .LVU274
 558:../Drivers/STM32L4xx_HAL_Driver/Src/stm32l4xx_hal_dma.c ****   }
 813              		.loc 1 558 12 is_stmt 0 view .LVU275
 814 0300 0120     		movs	r0, #1
 815              	.LVL53:
 558:../Drivers/STM32L4xx_HAL_Driver/Src/stm32l4xx_hal_dma.c ****   }
 816              		.loc 1 558 12 view .LVU276
 817 0302 7047     		bx	lr
 818              	.LVL54:
 819              	.L40:
 563:../Drivers/STM32L4xx_HAL_Driver/Src/stm32l4xx_hal_dma.c **** 
 820              		.loc 1 563 5 is_stmt 1 view .LVU277
 821 0304 0268     		ldr	r2, [r0]
 822 0306 1368     		ldr	r3, [r2]
 823 0308 23F00E03 		bic	r3, r3, #14
ARM GAS  C:\Users\hoodc\AppData\Local\Temp\cc4eu5v8.s 			page 37


 824 030c 1360     		str	r3, [r2]
 571:../Drivers/STM32L4xx_HAL_Driver/Src/stm32l4xx_hal_dma.c **** 
 825              		.loc 1 571 5 view .LVU278
 826 030e 0268     		ldr	r2, [r0]
 827 0310 1368     		ldr	r3, [r2]
 828 0312 23F00103 		bic	r3, r3, #1
 829 0316 1360     		str	r3, [r2]
 574:../Drivers/STM32L4xx_HAL_Driver/Src/stm32l4xx_hal_dma.c **** 
 830              		.loc 1 574 5 view .LVU279
 574:../Drivers/STM32L4xx_HAL_Driver/Src/stm32l4xx_hal_dma.c **** 
 831              		.loc 1 574 9 is_stmt 0 view .LVU280
 832 0318 016C     		ldr	r1, [r0, #64]
 574:../Drivers/STM32L4xx_HAL_Driver/Src/stm32l4xx_hal_dma.c **** 
 833              		.loc 1 574 71 view .LVU281
 834 031a 436C     		ldr	r3, [r0, #68]
 835 031c 03F01C03 		and	r3, r3, #28
 574:../Drivers/STM32L4xx_HAL_Driver/Src/stm32l4xx_hal_dma.c **** 
 836              		.loc 1 574 48 view .LVU282
 837 0320 0122     		movs	r2, #1
 838 0322 02FA03F3 		lsl	r3, r2, r3
 574:../Drivers/STM32L4xx_HAL_Driver/Src/stm32l4xx_hal_dma.c **** 
 839              		.loc 1 574 32 view .LVU283
 840 0326 4B60     		str	r3, [r1, #4]
 593:../Drivers/STM32L4xx_HAL_Driver/Src/stm32l4xx_hal_dma.c **** 
 841              		.loc 1 593 5 is_stmt 1 view .LVU284
 593:../Drivers/STM32L4xx_HAL_Driver/Src/stm32l4xx_hal_dma.c **** 
 842              		.loc 1 593 17 is_stmt 0 view .LVU285
 843 0328 80F82520 		strb	r2, [r0, #37]
 596:../Drivers/STM32L4xx_HAL_Driver/Src/stm32l4xx_hal_dma.c **** 
 844              		.loc 1 596 5 is_stmt 1 view .LVU286
 596:../Drivers/STM32L4xx_HAL_Driver/Src/stm32l4xx_hal_dma.c **** 
 845              		.loc 1 596 5 view .LVU287
 846 032c 0023     		movs	r3, #0
 847 032e 80F82430 		strb	r3, [r0, #36]
 596:../Drivers/STM32L4xx_HAL_Driver/Src/stm32l4xx_hal_dma.c **** 
 848              		.loc 1 596 5 view .LVU288
 598:../Drivers/STM32L4xx_HAL_Driver/Src/stm32l4xx_hal_dma.c ****   }
 849              		.loc 1 598 5 view .LVU289
 598:../Drivers/STM32L4xx_HAL_Driver/Src/stm32l4xx_hal_dma.c ****   }
 850              		.loc 1 598 12 is_stmt 0 view .LVU290
 851 0332 1846     		mov	r0, r3
 852              	.LVL55:
 600:../Drivers/STM32L4xx_HAL_Driver/Src/stm32l4xx_hal_dma.c **** 
 853              		.loc 1 600 1 view .LVU291
 854 0334 7047     		bx	lr
 855              		.cfi_endproc
 856              	.LFE137:
 857              		.size	HAL_DMA_Abort, .-HAL_DMA_Abort
 858              		.align	1
 859              		.global	HAL_DMA_Abort_IT
 860              		.syntax unified
 861              		.thumb
 862              		.thumb_func
 863              		.fpu softvfp
 864              		.type	HAL_DMA_Abort_IT, %function
 865              	HAL_DMA_Abort_IT:
 866              	.LVL56:
ARM GAS  C:\Users\hoodc\AppData\Local\Temp\cc4eu5v8.s 			page 38


 867              	.LFB138:
 609:../Drivers/STM32L4xx_HAL_Driver/Src/stm32l4xx_hal_dma.c ****   HAL_StatusTypeDef status = HAL_OK;
 868              		.loc 1 609 1 is_stmt 1 view -0
 869              		.cfi_startproc
 870              		@ args = 0, pretend = 0, frame = 0
 871              		@ frame_needed = 0, uses_anonymous_args = 0
 609:../Drivers/STM32L4xx_HAL_Driver/Src/stm32l4xx_hal_dma.c ****   HAL_StatusTypeDef status = HAL_OK;
 872              		.loc 1 609 1 is_stmt 0 view .LVU293
 873 0336 08B5     		push	{r3, lr}
 874              	.LCFI12:
 875              		.cfi_def_cfa_offset 8
 876              		.cfi_offset 3, -8
 877              		.cfi_offset 14, -4
 610:../Drivers/STM32L4xx_HAL_Driver/Src/stm32l4xx_hal_dma.c **** 
 878              		.loc 1 610 3 is_stmt 1 view .LVU294
 879              	.LVL57:
 612:../Drivers/STM32L4xx_HAL_Driver/Src/stm32l4xx_hal_dma.c ****   {
 880              		.loc 1 612 3 view .LVU295
 612:../Drivers/STM32L4xx_HAL_Driver/Src/stm32l4xx_hal_dma.c ****   {
 881              		.loc 1 612 32 is_stmt 0 view .LVU296
 882 0338 90F82530 		ldrb	r3, [r0, #37]	@ zero_extendqisi2
 883 033c DBB2     		uxtb	r3, r3
 612:../Drivers/STM32L4xx_HAL_Driver/Src/stm32l4xx_hal_dma.c ****   {
 884              		.loc 1 612 5 view .LVU297
 885 033e 022B     		cmp	r3, #2
 886 0340 03D0     		beq	.L43
 615:../Drivers/STM32L4xx_HAL_Driver/Src/stm32l4xx_hal_dma.c **** 
 887              		.loc 1 615 5 is_stmt 1 view .LVU298
 615:../Drivers/STM32L4xx_HAL_Driver/Src/stm32l4xx_hal_dma.c **** 
 888              		.loc 1 615 21 is_stmt 0 view .LVU299
 889 0342 0423     		movs	r3, #4
 890 0344 C363     		str	r3, [r0, #60]
 617:../Drivers/STM32L4xx_HAL_Driver/Src/stm32l4xx_hal_dma.c ****   }
 891              		.loc 1 617 5 is_stmt 1 view .LVU300
 892              	.LVL58:
 617:../Drivers/STM32L4xx_HAL_Driver/Src/stm32l4xx_hal_dma.c ****   }
 893              		.loc 1 617 12 is_stmt 0 view .LVU301
 894 0346 0120     		movs	r0, #1
 895              	.LVL59:
 896              	.L44:
 664:../Drivers/STM32L4xx_HAL_Driver/Src/stm32l4xx_hal_dma.c **** }
 897              		.loc 1 664 3 is_stmt 1 view .LVU302
 665:../Drivers/STM32L4xx_HAL_Driver/Src/stm32l4xx_hal_dma.c **** 
 898              		.loc 1 665 1 is_stmt 0 view .LVU303
 899 0348 08BD     		pop	{r3, pc}
 900              	.LVL60:
 901              	.L43:
 622:../Drivers/STM32L4xx_HAL_Driver/Src/stm32l4xx_hal_dma.c **** 
 902              		.loc 1 622 5 is_stmt 1 view .LVU304
 903 034a 0268     		ldr	r2, [r0]
 904 034c 1368     		ldr	r3, [r2]
 905 034e 23F00E03 		bic	r3, r3, #14
 906 0352 1360     		str	r3, [r2]
 625:../Drivers/STM32L4xx_HAL_Driver/Src/stm32l4xx_hal_dma.c **** 
 907              		.loc 1 625 5 view .LVU305
 908 0354 0268     		ldr	r2, [r0]
 909 0356 1368     		ldr	r3, [r2]
ARM GAS  C:\Users\hoodc\AppData\Local\Temp\cc4eu5v8.s 			page 39


 910 0358 23F00103 		bic	r3, r3, #1
 911 035c 1360     		str	r3, [r2]
 649:../Drivers/STM32L4xx_HAL_Driver/Src/stm32l4xx_hal_dma.c **** #endif /* DMAMUX1 */
 912              		.loc 1 649 5 view .LVU306
 649:../Drivers/STM32L4xx_HAL_Driver/Src/stm32l4xx_hal_dma.c **** #endif /* DMAMUX1 */
 913              		.loc 1 649 9 is_stmt 0 view .LVU307
 914 035e 016C     		ldr	r1, [r0, #64]
 649:../Drivers/STM32L4xx_HAL_Driver/Src/stm32l4xx_hal_dma.c **** #endif /* DMAMUX1 */
 915              		.loc 1 649 71 view .LVU308
 916 0360 436C     		ldr	r3, [r0, #68]
 917 0362 03F01C03 		and	r3, r3, #28
 649:../Drivers/STM32L4xx_HAL_Driver/Src/stm32l4xx_hal_dma.c **** #endif /* DMAMUX1 */
 918              		.loc 1 649 48 view .LVU309
 919 0366 0122     		movs	r2, #1
 920 0368 02FA03F3 		lsl	r3, r2, r3
 649:../Drivers/STM32L4xx_HAL_Driver/Src/stm32l4xx_hal_dma.c **** #endif /* DMAMUX1 */
 921              		.loc 1 649 32 view .LVU310
 922 036c 4B60     		str	r3, [r1, #4]
 653:../Drivers/STM32L4xx_HAL_Driver/Src/stm32l4xx_hal_dma.c **** 
 923              		.loc 1 653 5 is_stmt 1 view .LVU311
 653:../Drivers/STM32L4xx_HAL_Driver/Src/stm32l4xx_hal_dma.c **** 
 924              		.loc 1 653 17 is_stmt 0 view .LVU312
 925 036e 80F82520 		strb	r2, [r0, #37]
 656:../Drivers/STM32L4xx_HAL_Driver/Src/stm32l4xx_hal_dma.c **** 
 926              		.loc 1 656 5 is_stmt 1 view .LVU313
 656:../Drivers/STM32L4xx_HAL_Driver/Src/stm32l4xx_hal_dma.c **** 
 927              		.loc 1 656 5 view .LVU314
 928 0372 0023     		movs	r3, #0
 929 0374 80F82430 		strb	r3, [r0, #36]
 656:../Drivers/STM32L4xx_HAL_Driver/Src/stm32l4xx_hal_dma.c **** 
 930              		.loc 1 656 5 view .LVU315
 659:../Drivers/STM32L4xx_HAL_Driver/Src/stm32l4xx_hal_dma.c ****     {
 931              		.loc 1 659 5 view .LVU316
 659:../Drivers/STM32L4xx_HAL_Driver/Src/stm32l4xx_hal_dma.c ****     {
 932              		.loc 1 659 12 is_stmt 0 view .LVU317
 933 0378 836B     		ldr	r3, [r0, #56]
 659:../Drivers/STM32L4xx_HAL_Driver/Src/stm32l4xx_hal_dma.c ****     {
 934              		.loc 1 659 7 view .LVU318
 935 037a 13B1     		cbz	r3, .L45
 661:../Drivers/STM32L4xx_HAL_Driver/Src/stm32l4xx_hal_dma.c ****     }
 936              		.loc 1 661 7 is_stmt 1 view .LVU319
 937 037c 9847     		blx	r3
 938              	.LVL61:
 610:../Drivers/STM32L4xx_HAL_Driver/Src/stm32l4xx_hal_dma.c **** 
 939              		.loc 1 610 21 is_stmt 0 view .LVU320
 940 037e 0020     		movs	r0, #0
 941 0380 E2E7     		b	.L44
 942              	.LVL62:
 943              	.L45:
 610:../Drivers/STM32L4xx_HAL_Driver/Src/stm32l4xx_hal_dma.c **** 
 944              		.loc 1 610 21 view .LVU321
 945 0382 0020     		movs	r0, #0
 946              	.LVL63:
 610:../Drivers/STM32L4xx_HAL_Driver/Src/stm32l4xx_hal_dma.c **** 
 947              		.loc 1 610 21 view .LVU322
 948 0384 E0E7     		b	.L44
 949              		.cfi_endproc
ARM GAS  C:\Users\hoodc\AppData\Local\Temp\cc4eu5v8.s 			page 40


 950              	.LFE138:
 951              		.size	HAL_DMA_Abort_IT, .-HAL_DMA_Abort_IT
 952              		.align	1
 953              		.global	HAL_DMA_PollForTransfer
 954              		.syntax unified
 955              		.thumb
 956              		.thumb_func
 957              		.fpu softvfp
 958              		.type	HAL_DMA_PollForTransfer, %function
 959              	HAL_DMA_PollForTransfer:
 960              	.LVL64:
 961              	.LFB139:
 676:../Drivers/STM32L4xx_HAL_Driver/Src/stm32l4xx_hal_dma.c ****   uint32_t temp;
 962              		.loc 1 676 1 is_stmt 1 view -0
 963              		.cfi_startproc
 964              		@ args = 0, pretend = 0, frame = 0
 965              		@ frame_needed = 0, uses_anonymous_args = 0
 676:../Drivers/STM32L4xx_HAL_Driver/Src/stm32l4xx_hal_dma.c ****   uint32_t temp;
 966              		.loc 1 676 1 is_stmt 0 view .LVU324
 967 0386 2DE9F843 		push	{r3, r4, r5, r6, r7, r8, r9, lr}
 968              	.LCFI13:
 969              		.cfi_def_cfa_offset 32
 970              		.cfi_offset 3, -32
 971              		.cfi_offset 4, -28
 972              		.cfi_offset 5, -24
 973              		.cfi_offset 6, -20
 974              		.cfi_offset 7, -16
 975              		.cfi_offset 8, -12
 976              		.cfi_offset 9, -8
 977              		.cfi_offset 14, -4
 978 038a 0446     		mov	r4, r0
 979 038c 8846     		mov	r8, r1
 980 038e 1546     		mov	r5, r2
 677:../Drivers/STM32L4xx_HAL_Driver/Src/stm32l4xx_hal_dma.c ****   uint32_t tickstart;
 981              		.loc 1 677 3 is_stmt 1 view .LVU325
 678:../Drivers/STM32L4xx_HAL_Driver/Src/stm32l4xx_hal_dma.c **** 
 982              		.loc 1 678 3 view .LVU326
 680:../Drivers/STM32L4xx_HAL_Driver/Src/stm32l4xx_hal_dma.c ****   {
 983              		.loc 1 680 3 view .LVU327
 680:../Drivers/STM32L4xx_HAL_Driver/Src/stm32l4xx_hal_dma.c ****   {
 984              		.loc 1 680 32 is_stmt 0 view .LVU328
 985 0390 90F82530 		ldrb	r3, [r0, #37]	@ zero_extendqisi2
 986 0394 DBB2     		uxtb	r3, r3
 680:../Drivers/STM32L4xx_HAL_Driver/Src/stm32l4xx_hal_dma.c ****   {
 987              		.loc 1 680 5 view .LVU329
 988 0396 022B     		cmp	r3, #2
 989 0398 07D0     		beq	.L47
 683:../Drivers/STM32L4xx_HAL_Driver/Src/stm32l4xx_hal_dma.c ****     __HAL_UNLOCK(hdma);
 990              		.loc 1 683 5 is_stmt 1 view .LVU330
 683:../Drivers/STM32L4xx_HAL_Driver/Src/stm32l4xx_hal_dma.c ****     __HAL_UNLOCK(hdma);
 991              		.loc 1 683 21 is_stmt 0 view .LVU331
 992 039a 0423     		movs	r3, #4
 993 039c C363     		str	r3, [r0, #60]
 684:../Drivers/STM32L4xx_HAL_Driver/Src/stm32l4xx_hal_dma.c ****     return HAL_ERROR;
 994              		.loc 1 684 5 is_stmt 1 view .LVU332
 684:../Drivers/STM32L4xx_HAL_Driver/Src/stm32l4xx_hal_dma.c ****     return HAL_ERROR;
 995              		.loc 1 684 5 view .LVU333
ARM GAS  C:\Users\hoodc\AppData\Local\Temp\cc4eu5v8.s 			page 41


 996 039e 0023     		movs	r3, #0
 997 03a0 80F82430 		strb	r3, [r0, #36]
 684:../Drivers/STM32L4xx_HAL_Driver/Src/stm32l4xx_hal_dma.c ****     return HAL_ERROR;
 998              		.loc 1 684 5 view .LVU334
 685:../Drivers/STM32L4xx_HAL_Driver/Src/stm32l4xx_hal_dma.c ****   }
 999              		.loc 1 685 5 view .LVU335
 685:../Drivers/STM32L4xx_HAL_Driver/Src/stm32l4xx_hal_dma.c ****   }
 1000              		.loc 1 685 12 is_stmt 0 view .LVU336
 1001 03a4 0120     		movs	r0, #1
 1002              	.LVL65:
 1003              	.L48:
 797:../Drivers/STM32L4xx_HAL_Driver/Src/stm32l4xx_hal_dma.c **** 
 1004              		.loc 1 797 1 view .LVU337
 1005 03a6 BDE8F883 		pop	{r3, r4, r5, r6, r7, r8, r9, pc}
 1006              	.LVL66:
 1007              	.L47:
 689:../Drivers/STM32L4xx_HAL_Driver/Src/stm32l4xx_hal_dma.c ****   {
 1008              		.loc 1 689 3 is_stmt 1 view .LVU338
 689:../Drivers/STM32L4xx_HAL_Driver/Src/stm32l4xx_hal_dma.c ****   {
 1009              		.loc 1 689 12 is_stmt 0 view .LVU339
 1010 03aa 0368     		ldr	r3, [r0]
 689:../Drivers/STM32L4xx_HAL_Driver/Src/stm32l4xx_hal_dma.c ****   {
 1011              		.loc 1 689 22 view .LVU340
 1012 03ac 1B68     		ldr	r3, [r3]
 689:../Drivers/STM32L4xx_HAL_Driver/Src/stm32l4xx_hal_dma.c ****   {
 1013              		.loc 1 689 6 view .LVU341
 1014 03ae 13F0200F 		tst	r3, #32
 1015 03b2 2AD1     		bne	.L61
 696:../Drivers/STM32L4xx_HAL_Driver/Src/stm32l4xx_hal_dma.c ****   {
 1016              		.loc 1 696 3 is_stmt 1 view .LVU342
 696:../Drivers/STM32L4xx_HAL_Driver/Src/stm32l4xx_hal_dma.c ****   {
 1017              		.loc 1 696 6 is_stmt 0 view .LVU343
 1018 03b4 71BB     		cbnz	r1, .L50
 699:../Drivers/STM32L4xx_HAL_Driver/Src/stm32l4xx_hal_dma.c ****   }
 1019              		.loc 1 699 5 is_stmt 1 view .LVU344
 699:../Drivers/STM32L4xx_HAL_Driver/Src/stm32l4xx_hal_dma.c ****   }
 1020              		.loc 1 699 48 is_stmt 0 view .LVU345
 1021 03b6 466C     		ldr	r6, [r0, #68]
 1022 03b8 06F01C06 		and	r6, r6, #28
 699:../Drivers/STM32L4xx_HAL_Driver/Src/stm32l4xx_hal_dma.c ****   }
 1023              		.loc 1 699 10 view .LVU346
 1024 03bc 0223     		movs	r3, #2
 1025 03be 03FA06F6 		lsl	r6, r3, r6
 1026              	.LVL67:
 1027              	.L51:
 708:../Drivers/STM32L4xx_HAL_Driver/Src/stm32l4xx_hal_dma.c **** 
 1028              		.loc 1 708 3 is_stmt 1 view .LVU347
 708:../Drivers/STM32L4xx_HAL_Driver/Src/stm32l4xx_hal_dma.c **** 
 1029              		.loc 1 708 15 is_stmt 0 view .LVU348
 1030 03c2 FFF7FEFF 		bl	HAL_GetTick
 1031              	.LVL68:
 708:../Drivers/STM32L4xx_HAL_Driver/Src/stm32l4xx_hal_dma.c **** 
 1032              		.loc 1 708 15 view .LVU349
 1033 03c6 8146     		mov	r9, r0
 1034              	.LVL69:
 710:../Drivers/STM32L4xx_HAL_Driver/Src/stm32l4xx_hal_dma.c ****   {
 1035              		.loc 1 710 3 is_stmt 1 view .LVU350
ARM GAS  C:\Users\hoodc\AppData\Local\Temp\cc4eu5v8.s 			page 42


 712:../Drivers/STM32L4xx_HAL_Driver/Src/stm32l4xx_hal_dma.c ****     {
 1036              		.loc 1 712 51 is_stmt 0 view .LVU351
 1037 03c8 0827     		movs	r7, #8
 1038              	.LVL70:
 1039              	.L52:
 710:../Drivers/STM32L4xx_HAL_Driver/Src/stm32l4xx_hal_dma.c ****   {
 1040              		.loc 1 710 14 view .LVU352
 1041 03ca 226C     		ldr	r2, [r4, #64]
 1042              	.L54:
 710:../Drivers/STM32L4xx_HAL_Driver/Src/stm32l4xx_hal_dma.c ****   {
 1043              		.loc 1 710 8 is_stmt 1 view .LVU353
 710:../Drivers/STM32L4xx_HAL_Driver/Src/stm32l4xx_hal_dma.c ****   {
 1044              		.loc 1 710 30 is_stmt 0 view .LVU354
 1045 03cc 1368     		ldr	r3, [r2]
 710:../Drivers/STM32L4xx_HAL_Driver/Src/stm32l4xx_hal_dma.c ****   {
 1046              		.loc 1 710 8 view .LVU355
 1047 03ce 3342     		tst	r3, r6
 1048 03d0 32D1     		bne	.L62
 712:../Drivers/STM32L4xx_HAL_Driver/Src/stm32l4xx_hal_dma.c ****     {
 1049              		.loc 1 712 5 is_stmt 1 view .LVU356
 712:../Drivers/STM32L4xx_HAL_Driver/Src/stm32l4xx_hal_dma.c ****     {
 1050              		.loc 1 712 29 is_stmt 0 view .LVU357
 1051 03d2 1168     		ldr	r1, [r2]
 712:../Drivers/STM32L4xx_HAL_Driver/Src/stm32l4xx_hal_dma.c ****     {
 1052              		.loc 1 712 73 view .LVU358
 1053 03d4 636C     		ldr	r3, [r4, #68]
 1054 03d6 03F01C03 		and	r3, r3, #28
 712:../Drivers/STM32L4xx_HAL_Driver/Src/stm32l4xx_hal_dma.c ****     {
 1055              		.loc 1 712 51 view .LVU359
 1056 03da 07FA03F0 		lsl	r0, r7, r3
 712:../Drivers/STM32L4xx_HAL_Driver/Src/stm32l4xx_hal_dma.c ****     {
 1057              		.loc 1 712 7 view .LVU360
 1058 03de 0842     		tst	r0, r1
 1059 03e0 1FD1     		bne	.L63
 731:../Drivers/STM32L4xx_HAL_Driver/Src/stm32l4xx_hal_dma.c ****     {
 1060              		.loc 1 731 5 is_stmt 1 view .LVU361
 731:../Drivers/STM32L4xx_HAL_Driver/Src/stm32l4xx_hal_dma.c ****     {
 1061              		.loc 1 731 7 is_stmt 0 view .LVU362
 1062 03e2 B5F1FF3F 		cmp	r5, #-1
 1063 03e6 F1D0     		beq	.L54
 733:../Drivers/STM32L4xx_HAL_Driver/Src/stm32l4xx_hal_dma.c ****       {
 1064              		.loc 1 733 7 is_stmt 1 view .LVU363
 733:../Drivers/STM32L4xx_HAL_Driver/Src/stm32l4xx_hal_dma.c ****       {
 1065              		.loc 1 733 12 is_stmt 0 view .LVU364
 1066 03e8 FFF7FEFF 		bl	HAL_GetTick
 1067              	.LVL71:
 733:../Drivers/STM32L4xx_HAL_Driver/Src/stm32l4xx_hal_dma.c ****       {
 1068              		.loc 1 733 26 view .LVU365
 1069 03ec A0EB0900 		sub	r0, r0, r9
 733:../Drivers/STM32L4xx_HAL_Driver/Src/stm32l4xx_hal_dma.c ****       {
 1070              		.loc 1 733 9 view .LVU366
 1071 03f0 A842     		cmp	r0, r5
 1072 03f2 01D8     		bhi	.L55
 733:../Drivers/STM32L4xx_HAL_Driver/Src/stm32l4xx_hal_dma.c ****       {
 1073              		.loc 1 733 50 discriminator 1 view .LVU367
 1074 03f4 002D     		cmp	r5, #0
 1075 03f6 E8D1     		bne	.L52
ARM GAS  C:\Users\hoodc\AppData\Local\Temp\cc4eu5v8.s 			page 43


 1076              	.L55:
 736:../Drivers/STM32L4xx_HAL_Driver/Src/stm32l4xx_hal_dma.c **** 
 1077              		.loc 1 736 9 is_stmt 1 view .LVU368
 736:../Drivers/STM32L4xx_HAL_Driver/Src/stm32l4xx_hal_dma.c **** 
 1078              		.loc 1 736 25 is_stmt 0 view .LVU369
 1079 03f8 2023     		movs	r3, #32
 1080 03fa E363     		str	r3, [r4, #60]
 739:../Drivers/STM32L4xx_HAL_Driver/Src/stm32l4xx_hal_dma.c **** 
 1081              		.loc 1 739 9 is_stmt 1 view .LVU370
 739:../Drivers/STM32L4xx_HAL_Driver/Src/stm32l4xx_hal_dma.c **** 
 1082              		.loc 1 739 21 is_stmt 0 view .LVU371
 1083 03fc 0120     		movs	r0, #1
 1084 03fe 84F82500 		strb	r0, [r4, #37]
 742:../Drivers/STM32L4xx_HAL_Driver/Src/stm32l4xx_hal_dma.c **** 
 1085              		.loc 1 742 9 is_stmt 1 view .LVU372
 742:../Drivers/STM32L4xx_HAL_Driver/Src/stm32l4xx_hal_dma.c **** 
 1086              		.loc 1 742 9 view .LVU373
 1087 0402 0023     		movs	r3, #0
 1088 0404 84F82430 		strb	r3, [r4, #36]
 742:../Drivers/STM32L4xx_HAL_Driver/Src/stm32l4xx_hal_dma.c **** 
 1089              		.loc 1 742 9 view .LVU374
 744:../Drivers/STM32L4xx_HAL_Driver/Src/stm32l4xx_hal_dma.c ****       }
 1090              		.loc 1 744 9 view .LVU375
 744:../Drivers/STM32L4xx_HAL_Driver/Src/stm32l4xx_hal_dma.c ****       }
 1091              		.loc 1 744 16 is_stmt 0 view .LVU376
 1092 0408 CDE7     		b	.L48
 1093              	.LVL72:
 1094              	.L61:
 691:../Drivers/STM32L4xx_HAL_Driver/Src/stm32l4xx_hal_dma.c ****     return HAL_ERROR;
 1095              		.loc 1 691 5 is_stmt 1 view .LVU377
 691:../Drivers/STM32L4xx_HAL_Driver/Src/stm32l4xx_hal_dma.c ****     return HAL_ERROR;
 1096              		.loc 1 691 21 is_stmt 0 view .LVU378
 1097 040a 4FF48073 		mov	r3, #256
 1098 040e C363     		str	r3, [r0, #60]
 692:../Drivers/STM32L4xx_HAL_Driver/Src/stm32l4xx_hal_dma.c ****   }
 1099              		.loc 1 692 5 is_stmt 1 view .LVU379
 692:../Drivers/STM32L4xx_HAL_Driver/Src/stm32l4xx_hal_dma.c ****   }
 1100              		.loc 1 692 12 is_stmt 0 view .LVU380
 1101 0410 0120     		movs	r0, #1
 1102              	.LVL73:
 692:../Drivers/STM32L4xx_HAL_Driver/Src/stm32l4xx_hal_dma.c ****   }
 1103              		.loc 1 692 12 view .LVU381
 1104 0412 C8E7     		b	.L48
 1105              	.LVL74:
 1106              	.L50:
 704:../Drivers/STM32L4xx_HAL_Driver/Src/stm32l4xx_hal_dma.c ****   }
 1107              		.loc 1 704 5 is_stmt 1 view .LVU382
 704:../Drivers/STM32L4xx_HAL_Driver/Src/stm32l4xx_hal_dma.c ****   }
 1108              		.loc 1 704 48 is_stmt 0 view .LVU383
 1109 0414 466C     		ldr	r6, [r0, #68]
 1110 0416 06F01C06 		and	r6, r6, #28
 704:../Drivers/STM32L4xx_HAL_Driver/Src/stm32l4xx_hal_dma.c ****   }
 1111              		.loc 1 704 10 view .LVU384
 1112 041a 0423     		movs	r3, #4
 1113 041c 03FA06F6 		lsl	r6, r3, r6
 1114              	.LVL75:
 704:../Drivers/STM32L4xx_HAL_Driver/Src/stm32l4xx_hal_dma.c ****   }
ARM GAS  C:\Users\hoodc\AppData\Local\Temp\cc4eu5v8.s 			page 44


 1115              		.loc 1 704 10 view .LVU385
 1116 0420 CFE7     		b	.L51
 1117              	.LVL76:
 1118              	.L63:
 717:../Drivers/STM32L4xx_HAL_Driver/Src/stm32l4xx_hal_dma.c **** 
 1119              		.loc 1 717 7 is_stmt 1 view .LVU386
 717:../Drivers/STM32L4xx_HAL_Driver/Src/stm32l4xx_hal_dma.c **** 
 1120              		.loc 1 717 50 is_stmt 0 view .LVU387
 1121 0422 0120     		movs	r0, #1
 1122 0424 00FA03F3 		lsl	r3, r0, r3
 717:../Drivers/STM32L4xx_HAL_Driver/Src/stm32l4xx_hal_dma.c **** 
 1123              		.loc 1 717 34 view .LVU388
 1124 0428 5360     		str	r3, [r2, #4]
 720:../Drivers/STM32L4xx_HAL_Driver/Src/stm32l4xx_hal_dma.c **** 
 1125              		.loc 1 720 7 is_stmt 1 view .LVU389
 720:../Drivers/STM32L4xx_HAL_Driver/Src/stm32l4xx_hal_dma.c **** 
 1126              		.loc 1 720 23 is_stmt 0 view .LVU390
 1127 042a E063     		str	r0, [r4, #60]
 723:../Drivers/STM32L4xx_HAL_Driver/Src/stm32l4xx_hal_dma.c **** 
 1128              		.loc 1 723 7 is_stmt 1 view .LVU391
 723:../Drivers/STM32L4xx_HAL_Driver/Src/stm32l4xx_hal_dma.c **** 
 1129              		.loc 1 723 18 is_stmt 0 view .LVU392
 1130 042c 84F82500 		strb	r0, [r4, #37]
 726:../Drivers/STM32L4xx_HAL_Driver/Src/stm32l4xx_hal_dma.c **** 
 1131              		.loc 1 726 7 is_stmt 1 view .LVU393
 726:../Drivers/STM32L4xx_HAL_Driver/Src/stm32l4xx_hal_dma.c **** 
 1132              		.loc 1 726 7 view .LVU394
 1133 0430 0023     		movs	r3, #0
 1134 0432 84F82430 		strb	r3, [r4, #36]
 726:../Drivers/STM32L4xx_HAL_Driver/Src/stm32l4xx_hal_dma.c **** 
 1135              		.loc 1 726 7 view .LVU395
 728:../Drivers/STM32L4xx_HAL_Driver/Src/stm32l4xx_hal_dma.c ****     }
 1136              		.loc 1 728 7 view .LVU396
 728:../Drivers/STM32L4xx_HAL_Driver/Src/stm32l4xx_hal_dma.c ****     }
 1137              		.loc 1 728 14 is_stmt 0 view .LVU397
 1138 0436 B6E7     		b	.L48
 1139              	.L62:
 778:../Drivers/STM32L4xx_HAL_Driver/Src/stm32l4xx_hal_dma.c ****   {
 1140              		.loc 1 778 3 is_stmt 1 view .LVU398
 778:../Drivers/STM32L4xx_HAL_Driver/Src/stm32l4xx_hal_dma.c ****   {
 1141              		.loc 1 778 5 is_stmt 0 view .LVU399
 1142 0438 B8F1000F 		cmp	r8, #0
 1143 043c 0CD1     		bne	.L57
 781:../Drivers/STM32L4xx_HAL_Driver/Src/stm32l4xx_hal_dma.c **** 
 1144              		.loc 1 781 5 is_stmt 1 view .LVU400
 781:../Drivers/STM32L4xx_HAL_Driver/Src/stm32l4xx_hal_dma.c **** 
 1145              		.loc 1 781 70 is_stmt 0 view .LVU401
 1146 043e 636C     		ldr	r3, [r4, #68]
 1147 0440 03F01C01 		and	r1, r3, #28
 781:../Drivers/STM32L4xx_HAL_Driver/Src/stm32l4xx_hal_dma.c **** 
 1148              		.loc 1 781 48 view .LVU402
 1149 0444 0223     		movs	r3, #2
 1150 0446 8B40     		lsls	r3, r3, r1
 781:../Drivers/STM32L4xx_HAL_Driver/Src/stm32l4xx_hal_dma.c **** 
 1151              		.loc 1 781 32 view .LVU403
 1152 0448 5360     		str	r3, [r2, #4]
 785:../Drivers/STM32L4xx_HAL_Driver/Src/stm32l4xx_hal_dma.c ****   }
ARM GAS  C:\Users\hoodc\AppData\Local\Temp\cc4eu5v8.s 			page 45


 1153              		.loc 1 785 5 is_stmt 1 view .LVU404
 785:../Drivers/STM32L4xx_HAL_Driver/Src/stm32l4xx_hal_dma.c ****   }
 1154              		.loc 1 785 17 is_stmt 0 view .LVU405
 1155 044a 0123     		movs	r3, #1
 1156 044c 84F82530 		strb	r3, [r4, #37]
 1157              	.L58:
 794:../Drivers/STM32L4xx_HAL_Driver/Src/stm32l4xx_hal_dma.c **** 
 1158              		.loc 1 794 3 is_stmt 1 view .LVU406
 794:../Drivers/STM32L4xx_HAL_Driver/Src/stm32l4xx_hal_dma.c **** 
 1159              		.loc 1 794 3 view .LVU407
 1160 0450 0020     		movs	r0, #0
 1161 0452 84F82400 		strb	r0, [r4, #36]
 794:../Drivers/STM32L4xx_HAL_Driver/Src/stm32l4xx_hal_dma.c **** 
 1162              		.loc 1 794 3 view .LVU408
 796:../Drivers/STM32L4xx_HAL_Driver/Src/stm32l4xx_hal_dma.c **** }
 1163              		.loc 1 796 3 view .LVU409
 796:../Drivers/STM32L4xx_HAL_Driver/Src/stm32l4xx_hal_dma.c **** }
 1164              		.loc 1 796 10 is_stmt 0 view .LVU410
 1165 0456 A6E7     		b	.L48
 1166              	.L57:
 790:../Drivers/STM32L4xx_HAL_Driver/Src/stm32l4xx_hal_dma.c ****   }
 1167              		.loc 1 790 5 is_stmt 1 view .LVU411
 790:../Drivers/STM32L4xx_HAL_Driver/Src/stm32l4xx_hal_dma.c ****   }
 1168              		.loc 1 790 71 is_stmt 0 view .LVU412
 1169 0458 636C     		ldr	r3, [r4, #68]
 1170 045a 03F01C01 		and	r1, r3, #28
 790:../Drivers/STM32L4xx_HAL_Driver/Src/stm32l4xx_hal_dma.c ****   }
 1171              		.loc 1 790 48 view .LVU413
 1172 045e 0423     		movs	r3, #4
 1173 0460 8B40     		lsls	r3, r3, r1
 790:../Drivers/STM32L4xx_HAL_Driver/Src/stm32l4xx_hal_dma.c ****   }
 1174              		.loc 1 790 32 view .LVU414
 1175 0462 5360     		str	r3, [r2, #4]
 1176 0464 F4E7     		b	.L58
 1177              		.cfi_endproc
 1178              	.LFE139:
 1179              		.size	HAL_DMA_PollForTransfer, .-HAL_DMA_PollForTransfer
 1180              		.align	1
 1181              		.global	HAL_DMA_IRQHandler
 1182              		.syntax unified
 1183              		.thumb
 1184              		.thumb_func
 1185              		.fpu softvfp
 1186              		.type	HAL_DMA_IRQHandler, %function
 1187              	HAL_DMA_IRQHandler:
 1188              	.LVL77:
 1189              	.LFB140:
 806:../Drivers/STM32L4xx_HAL_Driver/Src/stm32l4xx_hal_dma.c ****   uint32_t flag_it = hdma->DmaBaseAddress->ISR;
 1190              		.loc 1 806 1 is_stmt 1 view -0
 1191              		.cfi_startproc
 1192              		@ args = 0, pretend = 0, frame = 0
 1193              		@ frame_needed = 0, uses_anonymous_args = 0
 806:../Drivers/STM32L4xx_HAL_Driver/Src/stm32l4xx_hal_dma.c ****   uint32_t flag_it = hdma->DmaBaseAddress->ISR;
 1194              		.loc 1 806 1 is_stmt 0 view .LVU416
 1195 0466 38B5     		push	{r3, r4, r5, lr}
 1196              	.LCFI14:
 1197              		.cfi_def_cfa_offset 16
ARM GAS  C:\Users\hoodc\AppData\Local\Temp\cc4eu5v8.s 			page 46


 1198              		.cfi_offset 3, -16
 1199              		.cfi_offset 4, -12
 1200              		.cfi_offset 5, -8
 1201              		.cfi_offset 14, -4
 807:../Drivers/STM32L4xx_HAL_Driver/Src/stm32l4xx_hal_dma.c ****   uint32_t source_it = hdma->Instance->CCR;
 1202              		.loc 1 807 3 is_stmt 1 view .LVU417
 807:../Drivers/STM32L4xx_HAL_Driver/Src/stm32l4xx_hal_dma.c ****   uint32_t source_it = hdma->Instance->CCR;
 1203              		.loc 1 807 26 is_stmt 0 view .LVU418
 1204 0468 036C     		ldr	r3, [r0, #64]
 807:../Drivers/STM32L4xx_HAL_Driver/Src/stm32l4xx_hal_dma.c ****   uint32_t source_it = hdma->Instance->CCR;
 1205              		.loc 1 807 12 view .LVU419
 1206 046a 1968     		ldr	r1, [r3]
 1207              	.LVL78:
 808:../Drivers/STM32L4xx_HAL_Driver/Src/stm32l4xx_hal_dma.c **** 
 1208              		.loc 1 808 3 is_stmt 1 view .LVU420
 808:../Drivers/STM32L4xx_HAL_Driver/Src/stm32l4xx_hal_dma.c **** 
 1209              		.loc 1 808 28 is_stmt 0 view .LVU421
 1210 046c 0468     		ldr	r4, [r0]
 808:../Drivers/STM32L4xx_HAL_Driver/Src/stm32l4xx_hal_dma.c **** 
 1211              		.loc 1 808 12 view .LVU422
 1212 046e 2568     		ldr	r5, [r4]
 1213              	.LVL79:
 811:../Drivers/STM32L4xx_HAL_Driver/Src/stm32l4xx_hal_dma.c ****   {
 1214              		.loc 1 811 3 is_stmt 1 view .LVU423
 811:../Drivers/STM32L4xx_HAL_Driver/Src/stm32l4xx_hal_dma.c ****   {
 1215              		.loc 1 811 56 is_stmt 0 view .LVU424
 1216 0470 436C     		ldr	r3, [r0, #68]
 1217 0472 03F01C03 		and	r3, r3, #28
 811:../Drivers/STM32L4xx_HAL_Driver/Src/stm32l4xx_hal_dma.c ****   {
 1218              		.loc 1 811 33 view .LVU425
 1219 0476 0422     		movs	r2, #4
 1220 0478 9A40     		lsls	r2, r2, r3
 811:../Drivers/STM32L4xx_HAL_Driver/Src/stm32l4xx_hal_dma.c ****   {
 1221              		.loc 1 811 6 view .LVU426
 1222 047a 0A42     		tst	r2, r1
 1223 047c 15D0     		beq	.L65
 811:../Drivers/STM32L4xx_HAL_Driver/Src/stm32l4xx_hal_dma.c ****   {
 1224              		.loc 1 811 74 discriminator 1 view .LVU427
 1225 047e 15F0040F 		tst	r5, #4
 1226 0482 12D0     		beq	.L65
 814:../Drivers/STM32L4xx_HAL_Driver/Src/stm32l4xx_hal_dma.c ****       {
 1227              		.loc 1 814 7 is_stmt 1 view .LVU428
 814:../Drivers/STM32L4xx_HAL_Driver/Src/stm32l4xx_hal_dma.c ****       {
 1228              		.loc 1 814 25 is_stmt 0 view .LVU429
 1229 0484 2368     		ldr	r3, [r4]
 814:../Drivers/STM32L4xx_HAL_Driver/Src/stm32l4xx_hal_dma.c ****       {
 1230              		.loc 1 814 9 view .LVU430
 1231 0486 13F0200F 		tst	r3, #32
 1232 048a 03D1     		bne	.L66
 817:../Drivers/STM32L4xx_HAL_Driver/Src/stm32l4xx_hal_dma.c ****       }
 1233              		.loc 1 817 9 is_stmt 1 view .LVU431
 1234 048c 2368     		ldr	r3, [r4]
 1235 048e 23F00403 		bic	r3, r3, #4
 1236 0492 2360     		str	r3, [r4]
 1237              	.L66:
 820:../Drivers/STM32L4xx_HAL_Driver/Src/stm32l4xx_hal_dma.c **** 
 1238              		.loc 1 820 7 view .LVU432
ARM GAS  C:\Users\hoodc\AppData\Local\Temp\cc4eu5v8.s 			page 47


 820:../Drivers/STM32L4xx_HAL_Driver/Src/stm32l4xx_hal_dma.c **** 
 1239              		.loc 1 820 11 is_stmt 0 view .LVU433
 1240 0494 016C     		ldr	r1, [r0, #64]
 1241              	.LVL80:
 820:../Drivers/STM32L4xx_HAL_Driver/Src/stm32l4xx_hal_dma.c **** 
 1242              		.loc 1 820 73 view .LVU434
 1243 0496 436C     		ldr	r3, [r0, #68]
 1244 0498 03F01C02 		and	r2, r3, #28
 820:../Drivers/STM32L4xx_HAL_Driver/Src/stm32l4xx_hal_dma.c **** 
 1245              		.loc 1 820 50 view .LVU435
 1246 049c 0423     		movs	r3, #4
 1247 049e 9340     		lsls	r3, r3, r2
 820:../Drivers/STM32L4xx_HAL_Driver/Src/stm32l4xx_hal_dma.c **** 
 1248              		.loc 1 820 34 view .LVU436
 1249 04a0 4B60     		str	r3, [r1, #4]
 825:../Drivers/STM32L4xx_HAL_Driver/Src/stm32l4xx_hal_dma.c ****       {
 1250              		.loc 1 825 7 is_stmt 1 view .LVU437
 825:../Drivers/STM32L4xx_HAL_Driver/Src/stm32l4xx_hal_dma.c ****       {
 1251              		.loc 1 825 14 is_stmt 0 view .LVU438
 1252 04a2 036B     		ldr	r3, [r0, #48]
 825:../Drivers/STM32L4xx_HAL_Driver/Src/stm32l4xx_hal_dma.c ****       {
 1253              		.loc 1 825 9 view .LVU439
 1254 04a4 03B1     		cbz	r3, .L64
 828:../Drivers/STM32L4xx_HAL_Driver/Src/stm32l4xx_hal_dma.c ****       }
 1255              		.loc 1 828 9 is_stmt 1 view .LVU440
 1256 04a6 9847     		blx	r3
 1257              	.LVL81:
 1258              	.L64:
 889:../Drivers/STM32L4xx_HAL_Driver/Src/stm32l4xx_hal_dma.c **** 
 1259              		.loc 1 889 1 is_stmt 0 view .LVU441
 1260 04a8 38BD     		pop	{r3, r4, r5, pc}
 1261              	.LVL82:
 1262              	.L65:
 833:../Drivers/STM32L4xx_HAL_Driver/Src/stm32l4xx_hal_dma.c ****   {
 1263              		.loc 1 833 8 is_stmt 1 view .LVU442
 833:../Drivers/STM32L4xx_HAL_Driver/Src/stm32l4xx_hal_dma.c ****   {
 1264              		.loc 1 833 38 is_stmt 0 view .LVU443
 1265 04aa 0222     		movs	r2, #2
 1266 04ac 9A40     		lsls	r2, r2, r3
 833:../Drivers/STM32L4xx_HAL_Driver/Src/stm32l4xx_hal_dma.c ****   {
 1267              		.loc 1 833 11 view .LVU444
 1268 04ae 0A42     		tst	r2, r1
 1269 04b0 1CD0     		beq	.L68
 833:../Drivers/STM32L4xx_HAL_Driver/Src/stm32l4xx_hal_dma.c ****   {
 1270              		.loc 1 833 79 discriminator 1 view .LVU445
 1271 04b2 15F0020F 		tst	r5, #2
 1272 04b6 19D0     		beq	.L68
 835:../Drivers/STM32L4xx_HAL_Driver/Src/stm32l4xx_hal_dma.c ****     {
 1273              		.loc 1 835 5 is_stmt 1 view .LVU446
 835:../Drivers/STM32L4xx_HAL_Driver/Src/stm32l4xx_hal_dma.c ****     {
 1274              		.loc 1 835 23 is_stmt 0 view .LVU447
 1275 04b8 2368     		ldr	r3, [r4]
 835:../Drivers/STM32L4xx_HAL_Driver/Src/stm32l4xx_hal_dma.c ****     {
 1276              		.loc 1 835 7 view .LVU448
 1277 04ba 13F0200F 		tst	r3, #32
 1278 04be 06D1     		bne	.L69
 840:../Drivers/STM32L4xx_HAL_Driver/Src/stm32l4xx_hal_dma.c **** 
ARM GAS  C:\Users\hoodc\AppData\Local\Temp\cc4eu5v8.s 			page 48


 1279              		.loc 1 840 7 is_stmt 1 view .LVU449
 1280 04c0 2368     		ldr	r3, [r4]
 1281 04c2 23F00A03 		bic	r3, r3, #10
 1282 04c6 2360     		str	r3, [r4]
 843:../Drivers/STM32L4xx_HAL_Driver/Src/stm32l4xx_hal_dma.c ****     }
 1283              		.loc 1 843 7 view .LVU450
 843:../Drivers/STM32L4xx_HAL_Driver/Src/stm32l4xx_hal_dma.c ****     }
 1284              		.loc 1 843 19 is_stmt 0 view .LVU451
 1285 04c8 0123     		movs	r3, #1
 1286 04ca 80F82530 		strb	r3, [r0, #37]
 1287              	.L69:
 846:../Drivers/STM32L4xx_HAL_Driver/Src/stm32l4xx_hal_dma.c **** 
 1288              		.loc 1 846 5 is_stmt 1 view .LVU452
 846:../Drivers/STM32L4xx_HAL_Driver/Src/stm32l4xx_hal_dma.c **** 
 1289              		.loc 1 846 9 is_stmt 0 view .LVU453
 1290 04ce 016C     		ldr	r1, [r0, #64]
 1291              	.LVL83:
 846:../Drivers/STM32L4xx_HAL_Driver/Src/stm32l4xx_hal_dma.c **** 
 1292              		.loc 1 846 72 view .LVU454
 1293 04d0 436C     		ldr	r3, [r0, #68]
 1294 04d2 03F01C02 		and	r2, r3, #28
 846:../Drivers/STM32L4xx_HAL_Driver/Src/stm32l4xx_hal_dma.c **** 
 1295              		.loc 1 846 49 view .LVU455
 1296 04d6 0223     		movs	r3, #2
 1297 04d8 9340     		lsls	r3, r3, r2
 846:../Drivers/STM32L4xx_HAL_Driver/Src/stm32l4xx_hal_dma.c **** 
 1298              		.loc 1 846 32 view .LVU456
 1299 04da 4B60     		str	r3, [r1, #4]
 849:../Drivers/STM32L4xx_HAL_Driver/Src/stm32l4xx_hal_dma.c **** 
 1300              		.loc 1 849 5 is_stmt 1 view .LVU457
 849:../Drivers/STM32L4xx_HAL_Driver/Src/stm32l4xx_hal_dma.c **** 
 1301              		.loc 1 849 5 view .LVU458
 1302 04dc 0023     		movs	r3, #0
 1303 04de 80F82430 		strb	r3, [r0, #36]
 849:../Drivers/STM32L4xx_HAL_Driver/Src/stm32l4xx_hal_dma.c **** 
 1304              		.loc 1 849 5 view .LVU459
 851:../Drivers/STM32L4xx_HAL_Driver/Src/stm32l4xx_hal_dma.c ****     {
 1305              		.loc 1 851 5 view .LVU460
 851:../Drivers/STM32L4xx_HAL_Driver/Src/stm32l4xx_hal_dma.c ****     {
 1306              		.loc 1 851 12 is_stmt 0 view .LVU461
 1307 04e2 C36A     		ldr	r3, [r0, #44]
 851:../Drivers/STM32L4xx_HAL_Driver/Src/stm32l4xx_hal_dma.c ****     {
 1308              		.loc 1 851 7 view .LVU462
 1309 04e4 002B     		cmp	r3, #0
 1310 04e6 DFD0     		beq	.L64
 854:../Drivers/STM32L4xx_HAL_Driver/Src/stm32l4xx_hal_dma.c ****     }
 1311              		.loc 1 854 7 is_stmt 1 view .LVU463
 1312 04e8 9847     		blx	r3
 1313              	.LVL84:
 854:../Drivers/STM32L4xx_HAL_Driver/Src/stm32l4xx_hal_dma.c ****     }
 1314              		.loc 1 854 7 is_stmt 0 view .LVU464
 1315 04ea DDE7     		b	.L64
 1316              	.LVL85:
 1317              	.L68:
 859:../Drivers/STM32L4xx_HAL_Driver/Src/stm32l4xx_hal_dma.c ****   {
 1318              		.loc 1 859 8 is_stmt 1 view .LVU465
 859:../Drivers/STM32L4xx_HAL_Driver/Src/stm32l4xx_hal_dma.c ****   {
ARM GAS  C:\Users\hoodc\AppData\Local\Temp\cc4eu5v8.s 			page 49


 1319              		.loc 1 859 38 is_stmt 0 view .LVU466
 1320 04ec 0822     		movs	r2, #8
 1321 04ee 02FA03F3 		lsl	r3, r2, r3
 859:../Drivers/STM32L4xx_HAL_Driver/Src/stm32l4xx_hal_dma.c ****   {
 1322              		.loc 1 859 11 view .LVU467
 1323 04f2 0B42     		tst	r3, r1
 1324 04f4 D8D0     		beq	.L64
 859:../Drivers/STM32L4xx_HAL_Driver/Src/stm32l4xx_hal_dma.c ****   {
 1325              		.loc 1 859 79 discriminator 1 view .LVU468
 1326 04f6 15F0080F 		tst	r5, #8
 1327 04fa D5D0     		beq	.L64
 864:../Drivers/STM32L4xx_HAL_Driver/Src/stm32l4xx_hal_dma.c **** 
 1328              		.loc 1 864 5 is_stmt 1 view .LVU469
 1329 04fc 2368     		ldr	r3, [r4]
 1330 04fe 23F00E03 		bic	r3, r3, #14
 1331 0502 2360     		str	r3, [r4]
 867:../Drivers/STM32L4xx_HAL_Driver/Src/stm32l4xx_hal_dma.c **** 
 1332              		.loc 1 867 5 view .LVU470
 867:../Drivers/STM32L4xx_HAL_Driver/Src/stm32l4xx_hal_dma.c **** 
 1333              		.loc 1 867 9 is_stmt 0 view .LVU471
 1334 0504 016C     		ldr	r1, [r0, #64]
 1335              	.LVL86:
 867:../Drivers/STM32L4xx_HAL_Driver/Src/stm32l4xx_hal_dma.c **** 
 1336              		.loc 1 867 71 view .LVU472
 1337 0506 436C     		ldr	r3, [r0, #68]
 1338 0508 03F01C03 		and	r3, r3, #28
 867:../Drivers/STM32L4xx_HAL_Driver/Src/stm32l4xx_hal_dma.c **** 
 1339              		.loc 1 867 48 view .LVU473
 1340 050c 0122     		movs	r2, #1
 1341 050e 02FA03F3 		lsl	r3, r2, r3
 867:../Drivers/STM32L4xx_HAL_Driver/Src/stm32l4xx_hal_dma.c **** 
 1342              		.loc 1 867 32 view .LVU474
 1343 0512 4B60     		str	r3, [r1, #4]
 870:../Drivers/STM32L4xx_HAL_Driver/Src/stm32l4xx_hal_dma.c **** 
 1344              		.loc 1 870 5 is_stmt 1 view .LVU475
 870:../Drivers/STM32L4xx_HAL_Driver/Src/stm32l4xx_hal_dma.c **** 
 1345              		.loc 1 870 21 is_stmt 0 view .LVU476
 1346 0514 C263     		str	r2, [r0, #60]
 873:../Drivers/STM32L4xx_HAL_Driver/Src/stm32l4xx_hal_dma.c **** 
 1347              		.loc 1 873 5 is_stmt 1 view .LVU477
 873:../Drivers/STM32L4xx_HAL_Driver/Src/stm32l4xx_hal_dma.c **** 
 1348              		.loc 1 873 17 is_stmt 0 view .LVU478
 1349 0516 80F82520 		strb	r2, [r0, #37]
 876:../Drivers/STM32L4xx_HAL_Driver/Src/stm32l4xx_hal_dma.c **** 
 1350              		.loc 1 876 5 is_stmt 1 view .LVU479
 876:../Drivers/STM32L4xx_HAL_Driver/Src/stm32l4xx_hal_dma.c **** 
 1351              		.loc 1 876 5 view .LVU480
 1352 051a 0023     		movs	r3, #0
 1353 051c 80F82430 		strb	r3, [r0, #36]
 876:../Drivers/STM32L4xx_HAL_Driver/Src/stm32l4xx_hal_dma.c **** 
 1354              		.loc 1 876 5 view .LVU481
 878:../Drivers/STM32L4xx_HAL_Driver/Src/stm32l4xx_hal_dma.c ****     {
 1355              		.loc 1 878 5 view .LVU482
 878:../Drivers/STM32L4xx_HAL_Driver/Src/stm32l4xx_hal_dma.c ****     {
 1356              		.loc 1 878 13 is_stmt 0 view .LVU483
 1357 0520 436B     		ldr	r3, [r0, #52]
 878:../Drivers/STM32L4xx_HAL_Driver/Src/stm32l4xx_hal_dma.c ****     {
ARM GAS  C:\Users\hoodc\AppData\Local\Temp\cc4eu5v8.s 			page 50


 1358              		.loc 1 878 8 view .LVU484
 1359 0522 002B     		cmp	r3, #0
 1360 0524 C0D0     		beq	.L64
 881:../Drivers/STM32L4xx_HAL_Driver/Src/stm32l4xx_hal_dma.c ****     }
 1361              		.loc 1 881 7 is_stmt 1 view .LVU485
 1362 0526 9847     		blx	r3
 1363              	.LVL87:
 887:../Drivers/STM32L4xx_HAL_Driver/Src/stm32l4xx_hal_dma.c ****   return;
 1364              		.loc 1 887 3 view .LVU486
 888:../Drivers/STM32L4xx_HAL_Driver/Src/stm32l4xx_hal_dma.c **** }
 1365              		.loc 1 888 3 view .LVU487
 1366 0528 BEE7     		b	.L64
 1367              		.cfi_endproc
 1368              	.LFE140:
 1369              		.size	HAL_DMA_IRQHandler, .-HAL_DMA_IRQHandler
 1370              		.align	1
 1371              		.global	HAL_DMA_RegisterCallback
 1372              		.syntax unified
 1373              		.thumb
 1374              		.thumb_func
 1375              		.fpu softvfp
 1376              		.type	HAL_DMA_RegisterCallback, %function
 1377              	HAL_DMA_RegisterCallback:
 1378              	.LVL88:
 1379              	.LFB141:
 902:../Drivers/STM32L4xx_HAL_Driver/Src/stm32l4xx_hal_dma.c ****   HAL_StatusTypeDef status = HAL_OK;
 1380              		.loc 1 902 1 view -0
 1381              		.cfi_startproc
 1382              		@ args = 0, pretend = 0, frame = 0
 1383              		@ frame_needed = 0, uses_anonymous_args = 0
 1384              		@ link register save eliminated.
 902:../Drivers/STM32L4xx_HAL_Driver/Src/stm32l4xx_hal_dma.c ****   HAL_StatusTypeDef status = HAL_OK;
 1385              		.loc 1 902 1 is_stmt 0 view .LVU489
 1386 052a 0346     		mov	r3, r0
 903:../Drivers/STM32L4xx_HAL_Driver/Src/stm32l4xx_hal_dma.c **** 
 1387              		.loc 1 903 3 is_stmt 1 view .LVU490
 1388              	.LVL89:
 906:../Drivers/STM32L4xx_HAL_Driver/Src/stm32l4xx_hal_dma.c **** 
 1389              		.loc 1 906 3 view .LVU491
 906:../Drivers/STM32L4xx_HAL_Driver/Src/stm32l4xx_hal_dma.c **** 
 1390              		.loc 1 906 3 view .LVU492
 1391 052c 90F82400 		ldrb	r0, [r0, #36]	@ zero_extendqisi2
 1392              	.LVL90:
 906:../Drivers/STM32L4xx_HAL_Driver/Src/stm32l4xx_hal_dma.c **** 
 1393              		.loc 1 906 3 is_stmt 0 view .LVU493
 1394 0530 0128     		cmp	r0, #1
 1395 0532 1BD0     		beq	.L78
 906:../Drivers/STM32L4xx_HAL_Driver/Src/stm32l4xx_hal_dma.c **** 
 1396              		.loc 1 906 3 is_stmt 1 discriminator 2 view .LVU494
 906:../Drivers/STM32L4xx_HAL_Driver/Src/stm32l4xx_hal_dma.c **** 
 1397              		.loc 1 906 3 discriminator 2 view .LVU495
 908:../Drivers/STM32L4xx_HAL_Driver/Src/stm32l4xx_hal_dma.c ****   {
 1398              		.loc 1 908 3 discriminator 2 view .LVU496
 908:../Drivers/STM32L4xx_HAL_Driver/Src/stm32l4xx_hal_dma.c ****   {
 1399              		.loc 1 908 33 is_stmt 0 discriminator 2 view .LVU497
 1400 0534 93F82500 		ldrb	r0, [r3, #37]	@ zero_extendqisi2
 1401 0538 C0B2     		uxtb	r0, r0
ARM GAS  C:\Users\hoodc\AppData\Local\Temp\cc4eu5v8.s 			page 51


 908:../Drivers/STM32L4xx_HAL_Driver/Src/stm32l4xx_hal_dma.c ****   {
 1402              		.loc 1 908 5 discriminator 2 view .LVU498
 1403 053a 0128     		cmp	r0, #1
 1404 053c 04D0     		beq	.L80
 935:../Drivers/STM32L4xx_HAL_Driver/Src/stm32l4xx_hal_dma.c ****   }
 1405              		.loc 1 935 12 view .LVU499
 1406 053e 0120     		movs	r0, #1
 1407              	.L72:
 1408              	.LVL91:
 939:../Drivers/STM32L4xx_HAL_Driver/Src/stm32l4xx_hal_dma.c **** 
 1409              		.loc 1 939 3 is_stmt 1 view .LVU500
 939:../Drivers/STM32L4xx_HAL_Driver/Src/stm32l4xx_hal_dma.c **** 
 1410              		.loc 1 939 3 view .LVU501
 1411 0540 0022     		movs	r2, #0
 1412              	.LVL92:
 939:../Drivers/STM32L4xx_HAL_Driver/Src/stm32l4xx_hal_dma.c **** 
 1413              		.loc 1 939 3 is_stmt 0 view .LVU502
 1414 0542 83F82420 		strb	r2, [r3, #36]
 939:../Drivers/STM32L4xx_HAL_Driver/Src/stm32l4xx_hal_dma.c **** 
 1415              		.loc 1 939 3 is_stmt 1 view .LVU503
 941:../Drivers/STM32L4xx_HAL_Driver/Src/stm32l4xx_hal_dma.c **** }
 1416              		.loc 1 941 3 view .LVU504
 941:../Drivers/STM32L4xx_HAL_Driver/Src/stm32l4xx_hal_dma.c **** }
 1417              		.loc 1 941 10 is_stmt 0 view .LVU505
 1418 0546 7047     		bx	lr
 1419              	.LVL93:
 1420              	.L80:
 910:../Drivers/STM32L4xx_HAL_Driver/Src/stm32l4xx_hal_dma.c ****     {
 1421              		.loc 1 910 5 is_stmt 1 view .LVU506
 1422 0548 0329     		cmp	r1, #3
 1423 054a F9D8     		bhi	.L72
 1424 054c DFE801F0 		tbb	[pc, r1]
 1425              	.L74:
 1426 0550 02       		.byte	(.L77-.L74)/2
 1427 0551 05       		.byte	(.L76-.L74)/2
 1428 0552 08       		.byte	(.L75-.L74)/2
 1429 0553 0B       		.byte	(.L73-.L74)/2
 1430              		.p2align 1
 1431              	.L77:
 913:../Drivers/STM32L4xx_HAL_Driver/Src/stm32l4xx_hal_dma.c ****            break;
 1432              		.loc 1 913 12 view .LVU507
 913:../Drivers/STM32L4xx_HAL_Driver/Src/stm32l4xx_hal_dma.c ****            break;
 1433              		.loc 1 913 35 is_stmt 0 view .LVU508
 1434 0554 DA62     		str	r2, [r3, #44]
 914:../Drivers/STM32L4xx_HAL_Driver/Src/stm32l4xx_hal_dma.c **** 
 1435              		.loc 1 914 12 is_stmt 1 view .LVU509
 903:../Drivers/STM32L4xx_HAL_Driver/Src/stm32l4xx_hal_dma.c **** 
 1436              		.loc 1 903 21 is_stmt 0 view .LVU510
 1437 0556 0846     		mov	r0, r1
 914:../Drivers/STM32L4xx_HAL_Driver/Src/stm32l4xx_hal_dma.c **** 
 1438              		.loc 1 914 12 view .LVU511
 1439 0558 F2E7     		b	.L72
 1440              	.L76:
 917:../Drivers/STM32L4xx_HAL_Driver/Src/stm32l4xx_hal_dma.c ****            break;
 1441              		.loc 1 917 12 is_stmt 1 view .LVU512
 917:../Drivers/STM32L4xx_HAL_Driver/Src/stm32l4xx_hal_dma.c ****            break;
 1442              		.loc 1 917 39 is_stmt 0 view .LVU513
ARM GAS  C:\Users\hoodc\AppData\Local\Temp\cc4eu5v8.s 			page 52


 1443 055a 1A63     		str	r2, [r3, #48]
 918:../Drivers/STM32L4xx_HAL_Driver/Src/stm32l4xx_hal_dma.c **** 
 1444              		.loc 1 918 12 is_stmt 1 view .LVU514
 903:../Drivers/STM32L4xx_HAL_Driver/Src/stm32l4xx_hal_dma.c **** 
 1445              		.loc 1 903 21 is_stmt 0 view .LVU515
 1446 055c 0020     		movs	r0, #0
 918:../Drivers/STM32L4xx_HAL_Driver/Src/stm32l4xx_hal_dma.c **** 
 1447              		.loc 1 918 12 view .LVU516
 1448 055e EFE7     		b	.L72
 1449              	.L75:
 921:../Drivers/STM32L4xx_HAL_Driver/Src/stm32l4xx_hal_dma.c ****            break;
 1450              		.loc 1 921 12 is_stmt 1 view .LVU517
 921:../Drivers/STM32L4xx_HAL_Driver/Src/stm32l4xx_hal_dma.c ****            break;
 1451              		.loc 1 921 36 is_stmt 0 view .LVU518
 1452 0560 5A63     		str	r2, [r3, #52]
 922:../Drivers/STM32L4xx_HAL_Driver/Src/stm32l4xx_hal_dma.c **** 
 1453              		.loc 1 922 12 is_stmt 1 view .LVU519
 903:../Drivers/STM32L4xx_HAL_Driver/Src/stm32l4xx_hal_dma.c **** 
 1454              		.loc 1 903 21 is_stmt 0 view .LVU520
 1455 0562 0020     		movs	r0, #0
 922:../Drivers/STM32L4xx_HAL_Driver/Src/stm32l4xx_hal_dma.c **** 
 1456              		.loc 1 922 12 view .LVU521
 1457 0564 ECE7     		b	.L72
 1458              	.L73:
 925:../Drivers/STM32L4xx_HAL_Driver/Src/stm32l4xx_hal_dma.c ****            break;
 1459              		.loc 1 925 12 is_stmt 1 view .LVU522
 925:../Drivers/STM32L4xx_HAL_Driver/Src/stm32l4xx_hal_dma.c ****            break;
 1460              		.loc 1 925 36 is_stmt 0 view .LVU523
 1461 0566 9A63     		str	r2, [r3, #56]
 926:../Drivers/STM32L4xx_HAL_Driver/Src/stm32l4xx_hal_dma.c **** 
 1462              		.loc 1 926 12 is_stmt 1 view .LVU524
 903:../Drivers/STM32L4xx_HAL_Driver/Src/stm32l4xx_hal_dma.c **** 
 1463              		.loc 1 903 21 is_stmt 0 view .LVU525
 1464 0568 0020     		movs	r0, #0
 926:../Drivers/STM32L4xx_HAL_Driver/Src/stm32l4xx_hal_dma.c **** 
 1465              		.loc 1 926 12 view .LVU526
 1466 056a E9E7     		b	.L72
 1467              	.L78:
 906:../Drivers/STM32L4xx_HAL_Driver/Src/stm32l4xx_hal_dma.c **** 
 1468              		.loc 1 906 3 view .LVU527
 1469 056c 0220     		movs	r0, #2
 942:../Drivers/STM32L4xx_HAL_Driver/Src/stm32l4xx_hal_dma.c **** 
 1470              		.loc 1 942 1 view .LVU528
 1471 056e 7047     		bx	lr
 1472              		.cfi_endproc
 1473              	.LFE141:
 1474              		.size	HAL_DMA_RegisterCallback, .-HAL_DMA_RegisterCallback
 1475              		.align	1
 1476              		.global	HAL_DMA_UnRegisterCallback
 1477              		.syntax unified
 1478              		.thumb
 1479              		.thumb_func
 1480              		.fpu softvfp
 1481              		.type	HAL_DMA_UnRegisterCallback, %function
 1482              	HAL_DMA_UnRegisterCallback:
 1483              	.LVL94:
 1484              	.LFB142:
ARM GAS  C:\Users\hoodc\AppData\Local\Temp\cc4eu5v8.s 			page 53


 953:../Drivers/STM32L4xx_HAL_Driver/Src/stm32l4xx_hal_dma.c ****   HAL_StatusTypeDef status = HAL_OK;
 1485              		.loc 1 953 1 is_stmt 1 view -0
 1486              		.cfi_startproc
 1487              		@ args = 0, pretend = 0, frame = 0
 1488              		@ frame_needed = 0, uses_anonymous_args = 0
 1489              		@ link register save eliminated.
 953:../Drivers/STM32L4xx_HAL_Driver/Src/stm32l4xx_hal_dma.c ****   HAL_StatusTypeDef status = HAL_OK;
 1490              		.loc 1 953 1 is_stmt 0 view .LVU530
 1491 0570 0346     		mov	r3, r0
 954:../Drivers/STM32L4xx_HAL_Driver/Src/stm32l4xx_hal_dma.c **** 
 1492              		.loc 1 954 3 is_stmt 1 view .LVU531
 1493              	.LVL95:
 957:../Drivers/STM32L4xx_HAL_Driver/Src/stm32l4xx_hal_dma.c **** 
 1494              		.loc 1 957 3 view .LVU532
 957:../Drivers/STM32L4xx_HAL_Driver/Src/stm32l4xx_hal_dma.c **** 
 1495              		.loc 1 957 3 view .LVU533
 1496 0572 90F82420 		ldrb	r2, [r0, #36]	@ zero_extendqisi2
 1497 0576 012A     		cmp	r2, #1
 1498 0578 26D0     		beq	.L90
 957:../Drivers/STM32L4xx_HAL_Driver/Src/stm32l4xx_hal_dma.c **** 
 1499              		.loc 1 957 3 discriminator 2 view .LVU534
 1500 057a 0122     		movs	r2, #1
 1501 057c 80F82420 		strb	r2, [r0, #36]
 957:../Drivers/STM32L4xx_HAL_Driver/Src/stm32l4xx_hal_dma.c **** 
 1502              		.loc 1 957 3 discriminator 2 view .LVU535
 959:../Drivers/STM32L4xx_HAL_Driver/Src/stm32l4xx_hal_dma.c ****   {
 1503              		.loc 1 959 3 discriminator 2 view .LVU536
 959:../Drivers/STM32L4xx_HAL_Driver/Src/stm32l4xx_hal_dma.c ****   {
 1504              		.loc 1 959 33 is_stmt 0 discriminator 2 view .LVU537
 1505 0580 90F82500 		ldrb	r0, [r0, #37]	@ zero_extendqisi2
 1506              	.LVL96:
 959:../Drivers/STM32L4xx_HAL_Driver/Src/stm32l4xx_hal_dma.c ****   {
 1507              		.loc 1 959 33 discriminator 2 view .LVU538
 1508 0584 C0B2     		uxtb	r0, r0
 959:../Drivers/STM32L4xx_HAL_Driver/Src/stm32l4xx_hal_dma.c ****   {
 1509              		.loc 1 959 5 discriminator 2 view .LVU539
 1510 0586 9042     		cmp	r0, r2
 1511 0588 04D0     		beq	.L92
 993:../Drivers/STM32L4xx_HAL_Driver/Src/stm32l4xx_hal_dma.c ****   }
 1512              		.loc 1 993 12 view .LVU540
 1513 058a 0120     		movs	r0, #1
 1514              	.L83:
 1515              	.LVL97:
 997:../Drivers/STM32L4xx_HAL_Driver/Src/stm32l4xx_hal_dma.c **** 
 1516              		.loc 1 997 3 is_stmt 1 view .LVU541
 997:../Drivers/STM32L4xx_HAL_Driver/Src/stm32l4xx_hal_dma.c **** 
 1517              		.loc 1 997 3 view .LVU542
 1518 058c 0022     		movs	r2, #0
 1519 058e 83F82420 		strb	r2, [r3, #36]
 997:../Drivers/STM32L4xx_HAL_Driver/Src/stm32l4xx_hal_dma.c **** 
 1520              		.loc 1 997 3 view .LVU543
 999:../Drivers/STM32L4xx_HAL_Driver/Src/stm32l4xx_hal_dma.c **** }
 1521              		.loc 1 999 3 view .LVU544
 999:../Drivers/STM32L4xx_HAL_Driver/Src/stm32l4xx_hal_dma.c **** }
 1522              		.loc 1 999 10 is_stmt 0 view .LVU545
 1523 0592 7047     		bx	lr
 1524              	.LVL98:
ARM GAS  C:\Users\hoodc\AppData\Local\Temp\cc4eu5v8.s 			page 54


 1525              	.L92:
 961:../Drivers/STM32L4xx_HAL_Driver/Src/stm32l4xx_hal_dma.c ****     {
 1526              		.loc 1 961 5 is_stmt 1 view .LVU546
 1527 0594 0429     		cmp	r1, #4
 1528 0596 F9D8     		bhi	.L83
 1529 0598 DFE801F0 		tbb	[pc, r1]
 1530              	.L85:
 1531 059c 03       		.byte	(.L89-.L85)/2
 1532 059d 07       		.byte	(.L88-.L85)/2
 1533 059e 0A       		.byte	(.L87-.L85)/2
 1534 059f 0D       		.byte	(.L86-.L85)/2
 1535 05a0 10       		.byte	(.L84-.L85)/2
 1536 05a1 00       		.p2align 1
 1537              	.L89:
 964:../Drivers/STM32L4xx_HAL_Driver/Src/stm32l4xx_hal_dma.c ****            break;
 1538              		.loc 1 964 12 view .LVU547
 964:../Drivers/STM32L4xx_HAL_Driver/Src/stm32l4xx_hal_dma.c ****            break;
 1539              		.loc 1 964 35 is_stmt 0 view .LVU548
 1540 05a2 0022     		movs	r2, #0
 1541 05a4 DA62     		str	r2, [r3, #44]
 965:../Drivers/STM32L4xx_HAL_Driver/Src/stm32l4xx_hal_dma.c **** 
 1542              		.loc 1 965 12 is_stmt 1 view .LVU549
 954:../Drivers/STM32L4xx_HAL_Driver/Src/stm32l4xx_hal_dma.c **** 
 1543              		.loc 1 954 21 is_stmt 0 view .LVU550
 1544 05a6 0846     		mov	r0, r1
 965:../Drivers/STM32L4xx_HAL_Driver/Src/stm32l4xx_hal_dma.c **** 
 1545              		.loc 1 965 12 view .LVU551
 1546 05a8 F0E7     		b	.L83
 1547              	.L88:
 968:../Drivers/STM32L4xx_HAL_Driver/Src/stm32l4xx_hal_dma.c ****            break;
 1548              		.loc 1 968 12 is_stmt 1 view .LVU552
 968:../Drivers/STM32L4xx_HAL_Driver/Src/stm32l4xx_hal_dma.c ****            break;
 1549              		.loc 1 968 39 is_stmt 0 view .LVU553
 1550 05aa 0020     		movs	r0, #0
 1551 05ac 1863     		str	r0, [r3, #48]
 969:../Drivers/STM32L4xx_HAL_Driver/Src/stm32l4xx_hal_dma.c **** 
 1552              		.loc 1 969 12 is_stmt 1 view .LVU554
 1553 05ae EDE7     		b	.L83
 1554              	.L87:
 972:../Drivers/STM32L4xx_HAL_Driver/Src/stm32l4xx_hal_dma.c ****            break;
 1555              		.loc 1 972 12 view .LVU555
 972:../Drivers/STM32L4xx_HAL_Driver/Src/stm32l4xx_hal_dma.c ****            break;
 1556              		.loc 1 972 36 is_stmt 0 view .LVU556
 1557 05b0 0020     		movs	r0, #0
 1558 05b2 5863     		str	r0, [r3, #52]
 973:../Drivers/STM32L4xx_HAL_Driver/Src/stm32l4xx_hal_dma.c **** 
 1559              		.loc 1 973 12 is_stmt 1 view .LVU557
 1560 05b4 EAE7     		b	.L83
 1561              	.L86:
 976:../Drivers/STM32L4xx_HAL_Driver/Src/stm32l4xx_hal_dma.c ****            break;
 1562              		.loc 1 976 12 view .LVU558
 976:../Drivers/STM32L4xx_HAL_Driver/Src/stm32l4xx_hal_dma.c ****            break;
 1563              		.loc 1 976 36 is_stmt 0 view .LVU559
 1564 05b6 0020     		movs	r0, #0
 1565 05b8 9863     		str	r0, [r3, #56]
 977:../Drivers/STM32L4xx_HAL_Driver/Src/stm32l4xx_hal_dma.c **** 
 1566              		.loc 1 977 12 is_stmt 1 view .LVU560
ARM GAS  C:\Users\hoodc\AppData\Local\Temp\cc4eu5v8.s 			page 55


 1567 05ba E7E7     		b	.L83
 1568              	.L84:
 980:../Drivers/STM32L4xx_HAL_Driver/Src/stm32l4xx_hal_dma.c ****            hdma->XferHalfCpltCallback = NULL;
 1569              		.loc 1 980 12 view .LVU561
 980:../Drivers/STM32L4xx_HAL_Driver/Src/stm32l4xx_hal_dma.c ****            hdma->XferHalfCpltCallback = NULL;
 1570              		.loc 1 980 35 is_stmt 0 view .LVU562
 1571 05bc 0020     		movs	r0, #0
 1572 05be D862     		str	r0, [r3, #44]
 981:../Drivers/STM32L4xx_HAL_Driver/Src/stm32l4xx_hal_dma.c ****            hdma->XferErrorCallback = NULL;
 1573              		.loc 1 981 12 is_stmt 1 view .LVU563
 981:../Drivers/STM32L4xx_HAL_Driver/Src/stm32l4xx_hal_dma.c ****            hdma->XferErrorCallback = NULL;
 1574              		.loc 1 981 39 is_stmt 0 view .LVU564
 1575 05c0 1863     		str	r0, [r3, #48]
 982:../Drivers/STM32L4xx_HAL_Driver/Src/stm32l4xx_hal_dma.c ****            hdma->XferAbortCallback = NULL;
 1576              		.loc 1 982 12 is_stmt 1 view .LVU565
 982:../Drivers/STM32L4xx_HAL_Driver/Src/stm32l4xx_hal_dma.c ****            hdma->XferAbortCallback = NULL;
 1577              		.loc 1 982 36 is_stmt 0 view .LVU566
 1578 05c2 5863     		str	r0, [r3, #52]
 983:../Drivers/STM32L4xx_HAL_Driver/Src/stm32l4xx_hal_dma.c ****            break;
 1579              		.loc 1 983 12 is_stmt 1 view .LVU567
 983:../Drivers/STM32L4xx_HAL_Driver/Src/stm32l4xx_hal_dma.c ****            break;
 1580              		.loc 1 983 36 is_stmt 0 view .LVU568
 1581 05c4 9863     		str	r0, [r3, #56]
 984:../Drivers/STM32L4xx_HAL_Driver/Src/stm32l4xx_hal_dma.c **** 
 1582              		.loc 1 984 12 is_stmt 1 view .LVU569
 1583 05c6 E1E7     		b	.L83
 1584              	.LVL99:
 1585              	.L90:
 957:../Drivers/STM32L4xx_HAL_Driver/Src/stm32l4xx_hal_dma.c **** 
 1586              		.loc 1 957 3 is_stmt 0 view .LVU570
 1587 05c8 0220     		movs	r0, #2
 1588              	.LVL100:
1000:../Drivers/STM32L4xx_HAL_Driver/Src/stm32l4xx_hal_dma.c **** 
 1589              		.loc 1 1000 1 view .LVU571
 1590 05ca 7047     		bx	lr
 1591              		.cfi_endproc
 1592              	.LFE142:
 1593              		.size	HAL_DMA_UnRegisterCallback, .-HAL_DMA_UnRegisterCallback
 1594              		.align	1
 1595              		.global	HAL_DMA_GetState
 1596              		.syntax unified
 1597              		.thumb
 1598              		.thumb_func
 1599              		.fpu softvfp
 1600              		.type	HAL_DMA_GetState, %function
 1601              	HAL_DMA_GetState:
 1602              	.LVL101:
 1603              	.LFB143:
1031:../Drivers/STM32L4xx_HAL_Driver/Src/stm32l4xx_hal_dma.c ****   /* Return DMA handle state */
 1604              		.loc 1 1031 1 is_stmt 1 view -0
 1605              		.cfi_startproc
 1606              		@ args = 0, pretend = 0, frame = 0
 1607              		@ frame_needed = 0, uses_anonymous_args = 0
 1608              		@ link register save eliminated.
1033:../Drivers/STM32L4xx_HAL_Driver/Src/stm32l4xx_hal_dma.c **** }
 1609              		.loc 1 1033 3 view .LVU573
1033:../Drivers/STM32L4xx_HAL_Driver/Src/stm32l4xx_hal_dma.c **** }
ARM GAS  C:\Users\hoodc\AppData\Local\Temp\cc4eu5v8.s 			page 56


 1610              		.loc 1 1033 14 is_stmt 0 view .LVU574
 1611 05cc 90F82500 		ldrb	r0, [r0, #37]	@ zero_extendqisi2
 1612              	.LVL102:
1034:../Drivers/STM32L4xx_HAL_Driver/Src/stm32l4xx_hal_dma.c **** 
 1613              		.loc 1 1034 1 view .LVU575
 1614 05d0 7047     		bx	lr
 1615              		.cfi_endproc
 1616              	.LFE143:
 1617              		.size	HAL_DMA_GetState, .-HAL_DMA_GetState
 1618              		.align	1
 1619              		.global	HAL_DMA_GetError
 1620              		.syntax unified
 1621              		.thumb
 1622              		.thumb_func
 1623              		.fpu softvfp
 1624              		.type	HAL_DMA_GetError, %function
 1625              	HAL_DMA_GetError:
 1626              	.LVL103:
 1627              	.LFB144:
1043:../Drivers/STM32L4xx_HAL_Driver/Src/stm32l4xx_hal_dma.c ****   return hdma->ErrorCode;
 1628              		.loc 1 1043 1 is_stmt 1 view -0
 1629              		.cfi_startproc
 1630              		@ args = 0, pretend = 0, frame = 0
 1631              		@ frame_needed = 0, uses_anonymous_args = 0
 1632              		@ link register save eliminated.
1044:../Drivers/STM32L4xx_HAL_Driver/Src/stm32l4xx_hal_dma.c **** }
 1633              		.loc 1 1044 3 view .LVU577
1044:../Drivers/STM32L4xx_HAL_Driver/Src/stm32l4xx_hal_dma.c **** }
 1634              		.loc 1 1044 14 is_stmt 0 view .LVU578
 1635 05d2 C06B     		ldr	r0, [r0, #60]
 1636              	.LVL104:
1045:../Drivers/STM32L4xx_HAL_Driver/Src/stm32l4xx_hal_dma.c **** 
 1637              		.loc 1 1045 1 view .LVU579
 1638 05d4 7047     		bx	lr
 1639              		.cfi_endproc
 1640              	.LFE144:
 1641              		.size	HAL_DMA_GetError, .-HAL_DMA_GetError
 1642              	.Letext0:
 1643              		.file 2 "c:\\program files (x86)\\gnu arm embedded toolchain\\10 2020-q4-major\\arm-none-eabi\\inc
 1644              		.file 3 "c:\\program files (x86)\\gnu arm embedded toolchain\\10 2020-q4-major\\arm-none-eabi\\inc
 1645              		.file 4 "C:/Users/hoodc/AppData/Local/Arm/Packs/Keil/STM32L4xx_DFP/2.5.0/Drivers/CMSIS/Device/ST/S
 1646              		.file 5 "../Drivers/STM32L4xx_HAL_Driver/Inc/stm32l4xx_hal_def.h"
 1647              		.file 6 "../Drivers/STM32L4xx_HAL_Driver/Inc/stm32l4xx_hal_dma.h"
 1648              		.file 7 "../Drivers/STM32L4xx_HAL_Driver/Inc/stm32l4xx_hal.h"