ARM GAS  C:\Users\hoodc\AppData\Local\Temp\ccEDarNx.s 			page 1


   1              		.cpu cortex-m4
   2              		.eabi_attribute 20, 1
   3              		.eabi_attribute 21, 1
   4              		.eabi_attribute 23, 3
   5              		.eabi_attribute 24, 1
   6              		.eabi_attribute 25, 1
   7              		.eabi_attribute 26, 1
   8              		.eabi_attribute 30, 1
   9              		.eabi_attribute 34, 1
  10              		.eabi_attribute 18, 4
  11              		.file	"stm32l4xx_it.c"
  12              		.text
  13              	.Ltext0:
  14              		.cfi_sections	.debug_frame
  15              		.align	1
  16              		.global	NMI_Handler
  17              		.arch armv7e-m
  18              		.syntax unified
  19              		.thumb
  20              		.thumb_func
  21              		.fpu softvfp
  22              		.type	NMI_Handler, %function
  23              	NMI_Handler:
  24              	.LFB133:
  25              		.file 1 "../Src/stm32l4xx_it.c"
   1:../Src/stm32l4xx_it.c **** /* USER CODE BEGIN Header */
   2:../Src/stm32l4xx_it.c **** /**
   3:../Src/stm32l4xx_it.c ****   ******************************************************************************
   4:../Src/stm32l4xx_it.c ****   * @file    stm32l4xx_it.c
   5:../Src/stm32l4xx_it.c ****   * @brief   Interrupt Service Routines.
   6:../Src/stm32l4xx_it.c ****   ******************************************************************************
   7:../Src/stm32l4xx_it.c ****   * @attention
   8:../Src/stm32l4xx_it.c ****   *
   9:../Src/stm32l4xx_it.c ****   * <h2><center>&copy; Copyright (c) 2020 STMicroelectronics.
  10:../Src/stm32l4xx_it.c ****   * All rights reserved.</center></h2>
  11:../Src/stm32l4xx_it.c ****   *
  12:../Src/stm32l4xx_it.c ****   * This software component is licensed by ST under BSD 3-Clause license,
  13:../Src/stm32l4xx_it.c ****   * the "License"; You may not use this file except in compliance with the
  14:../Src/stm32l4xx_it.c ****   * License. You may obtain a copy of the License at:
  15:../Src/stm32l4xx_it.c ****   *                        opensource.org/licenses/BSD-3-Clause
  16:../Src/stm32l4xx_it.c ****   *
  17:../Src/stm32l4xx_it.c ****   ******************************************************************************
  18:../Src/stm32l4xx_it.c ****   */
  19:../Src/stm32l4xx_it.c **** /* USER CODE END Header */
  20:../Src/stm32l4xx_it.c **** 
  21:../Src/stm32l4xx_it.c **** /* Includes ------------------------------------------------------------------*/
  22:../Src/stm32l4xx_it.c **** #include "main.h"
  23:../Src/stm32l4xx_it.c **** #include "stm32l4xx_it.h"
  24:../Src/stm32l4xx_it.c **** 
  25:../Src/stm32l4xx_it.c **** #include "ublox_gps.h"
  26:../Src/stm32l4xx_it.c **** #include "ublox_r4.h"
  27:../Src/stm32l4xx_it.c **** 
  28:../Src/stm32l4xx_it.c **** extern UART_HandleTypeDef huart1, huart2;
  29:../Src/stm32l4xx_it.c **** extern uint8_t pass_through;
  30:../Src/stm32l4xx_it.c **** 
  31:../Src/stm32l4xx_it.c **** /******************************************************************************/
  32:../Src/stm32l4xx_it.c **** /*           Cortex-M4 Processor Interruption and Exception Handlers          */
ARM GAS  C:\Users\hoodc\AppData\Local\Temp\ccEDarNx.s 			page 2


  33:../Src/stm32l4xx_it.c **** /******************************************************************************/
  34:../Src/stm32l4xx_it.c **** /**
  35:../Src/stm32l4xx_it.c ****   * @brief This function handles Non maskable interrupt.
  36:../Src/stm32l4xx_it.c ****   */
  37:../Src/stm32l4xx_it.c **** void NMI_Handler(void)
  38:../Src/stm32l4xx_it.c **** {
  26              		.loc 1 38 1 view -0
  27              		.cfi_startproc
  28              		@ args = 0, pretend = 0, frame = 0
  29              		@ frame_needed = 0, uses_anonymous_args = 0
  30              		@ link register save eliminated.
  39:../Src/stm32l4xx_it.c ****   /* USER CODE BEGIN NonMaskableInt_IRQn 0 */
  40:../Src/stm32l4xx_it.c **** 
  41:../Src/stm32l4xx_it.c ****   /* USER CODE END NonMaskableInt_IRQn 0 */
  42:../Src/stm32l4xx_it.c ****   /* USER CODE BEGIN NonMaskableInt_IRQn 1 */
  43:../Src/stm32l4xx_it.c **** 
  44:../Src/stm32l4xx_it.c ****   /* USER CODE END NonMaskableInt_IRQn 1 */
  45:../Src/stm32l4xx_it.c **** }
  31              		.loc 1 45 1 view .LVU1
  32 0000 7047     		bx	lr
  33              		.cfi_endproc
  34              	.LFE133:
  35              		.size	NMI_Handler, .-NMI_Handler
  36              		.align	1
  37              		.global	HardFault_Handler
  38              		.syntax unified
  39              		.thumb
  40              		.thumb_func
  41              		.fpu softvfp
  42              		.type	HardFault_Handler, %function
  43              	HardFault_Handler:
  44              	.LFB134:
  46:../Src/stm32l4xx_it.c **** 
  47:../Src/stm32l4xx_it.c **** /**
  48:../Src/stm32l4xx_it.c ****   * @brief This function handles Hard fault interrupt.
  49:../Src/stm32l4xx_it.c ****   */
  50:../Src/stm32l4xx_it.c **** void HardFault_Handler(void)
  51:../Src/stm32l4xx_it.c **** {
  45              		.loc 1 51 1 view -0
  46              		.cfi_startproc
  47              		@ Volatile: function does not return.
  48              		@ args = 0, pretend = 0, frame = 0
  49              		@ frame_needed = 0, uses_anonymous_args = 0
  50              		@ link register save eliminated.
  51              	.L3:
  52:../Src/stm32l4xx_it.c ****   /* USER CODE BEGIN HardFault_IRQn 0 */
  53:../Src/stm32l4xx_it.c **** 
  54:../Src/stm32l4xx_it.c ****   /* USER CODE END HardFault_IRQn 0 */
  55:../Src/stm32l4xx_it.c ****   while (1)
  52              		.loc 1 55 3 discriminator 1 view .LVU3
  56:../Src/stm32l4xx_it.c ****   {
  57:../Src/stm32l4xx_it.c ****     /* USER CODE BEGIN W1_HardFault_IRQn 0 */
  58:../Src/stm32l4xx_it.c ****     /* USER CODE END W1_HardFault_IRQn 0 */
  59:../Src/stm32l4xx_it.c ****   }
  53              		.loc 1 59 3 discriminator 1 view .LVU4
  55:../Src/stm32l4xx_it.c ****   {
  54              		.loc 1 55 9 discriminator 1 view .LVU5
ARM GAS  C:\Users\hoodc\AppData\Local\Temp\ccEDarNx.s 			page 3


  55 0002 FEE7     		b	.L3
  56              		.cfi_endproc
  57              	.LFE134:
  58              		.size	HardFault_Handler, .-HardFault_Handler
  59              		.align	1
  60              		.global	MemManage_Handler
  61              		.syntax unified
  62              		.thumb
  63              		.thumb_func
  64              		.fpu softvfp
  65              		.type	MemManage_Handler, %function
  66              	MemManage_Handler:
  67              	.LFB135:
  60:../Src/stm32l4xx_it.c **** }
  61:../Src/stm32l4xx_it.c **** 
  62:../Src/stm32l4xx_it.c **** /**
  63:../Src/stm32l4xx_it.c ****   * @brief This function handles Memory management fault.
  64:../Src/stm32l4xx_it.c ****   */
  65:../Src/stm32l4xx_it.c **** void MemManage_Handler(void)
  66:../Src/stm32l4xx_it.c **** {
  68              		.loc 1 66 1 view -0
  69              		.cfi_startproc
  70              		@ Volatile: function does not return.
  71              		@ args = 0, pretend = 0, frame = 0
  72              		@ frame_needed = 0, uses_anonymous_args = 0
  73              		@ link register save eliminated.
  74              	.L5:
  67:../Src/stm32l4xx_it.c ****   /* USER CODE BEGIN MemoryManagement_IRQn 0 */
  68:../Src/stm32l4xx_it.c **** 
  69:../Src/stm32l4xx_it.c ****   /* USER CODE END MemoryManagement_IRQn 0 */
  70:../Src/stm32l4xx_it.c ****   while (1)
  75              		.loc 1 70 3 discriminator 1 view .LVU7
  71:../Src/stm32l4xx_it.c ****   {
  72:../Src/stm32l4xx_it.c ****     /* USER CODE BEGIN W1_MemoryManagement_IRQn 0 */
  73:../Src/stm32l4xx_it.c ****     /* USER CODE END W1_MemoryManagement_IRQn 0 */
  74:../Src/stm32l4xx_it.c ****   }
  76              		.loc 1 74 3 discriminator 1 view .LVU8
  70:../Src/stm32l4xx_it.c ****   {
  77              		.loc 1 70 9 discriminator 1 view .LVU9
  78 0004 FEE7     		b	.L5
  79              		.cfi_endproc
  80              	.LFE135:
  81              		.size	MemManage_Handler, .-MemManage_Handler
  82              		.align	1
  83              		.global	BusFault_Handler
  84              		.syntax unified
  85              		.thumb
  86              		.thumb_func
  87              		.fpu softvfp
  88              		.type	BusFault_Handler, %function
  89              	BusFault_Handler:
  90              	.LFB136:
  75:../Src/stm32l4xx_it.c **** }
  76:../Src/stm32l4xx_it.c **** 
  77:../Src/stm32l4xx_it.c **** /**
  78:../Src/stm32l4xx_it.c ****   * @brief This function handles Prefetch fault, memory access fault.
  79:../Src/stm32l4xx_it.c ****   */
ARM GAS  C:\Users\hoodc\AppData\Local\Temp\ccEDarNx.s 			page 4


  80:../Src/stm32l4xx_it.c **** void BusFault_Handler(void)
  81:../Src/stm32l4xx_it.c **** {
  91              		.loc 1 81 1 view -0
  92              		.cfi_startproc
  93              		@ Volatile: function does not return.
  94              		@ args = 0, pretend = 0, frame = 0
  95              		@ frame_needed = 0, uses_anonymous_args = 0
  96              		@ link register save eliminated.
  97              	.L7:
  82:../Src/stm32l4xx_it.c ****   /* USER CODE BEGIN BusFault_IRQn 0 */
  83:../Src/stm32l4xx_it.c **** 
  84:../Src/stm32l4xx_it.c ****   /* USER CODE END BusFault_IRQn 0 */
  85:../Src/stm32l4xx_it.c ****   while (1)
  98              		.loc 1 85 3 discriminator 1 view .LVU11
  86:../Src/stm32l4xx_it.c ****   {
  87:../Src/stm32l4xx_it.c ****     /* USER CODE BEGIN W1_BusFault_IRQn 0 */
  88:../Src/stm32l4xx_it.c ****     /* USER CODE END W1_BusFault_IRQn 0 */
  89:../Src/stm32l4xx_it.c ****   }
  99              		.loc 1 89 3 discriminator 1 view .LVU12
  85:../Src/stm32l4xx_it.c ****   {
 100              		.loc 1 85 9 discriminator 1 view .LVU13
 101 0006 FEE7     		b	.L7
 102              		.cfi_endproc
 103              	.LFE136:
 104              		.size	BusFault_Handler, .-BusFault_Handler
 105              		.align	1
 106              		.global	UsageFault_Handler
 107              		.syntax unified
 108              		.thumb
 109              		.thumb_func
 110              		.fpu softvfp
 111              		.type	UsageFault_Handler, %function
 112              	UsageFault_Handler:
 113              	.LFB137:
  90:../Src/stm32l4xx_it.c **** }
  91:../Src/stm32l4xx_it.c **** 
  92:../Src/stm32l4xx_it.c **** /**
  93:../Src/stm32l4xx_it.c ****   * @brief This function handles Undefined instruction or illegal state.
  94:../Src/stm32l4xx_it.c ****   */
  95:../Src/stm32l4xx_it.c **** void UsageFault_Handler(void)
  96:../Src/stm32l4xx_it.c **** {
 114              		.loc 1 96 1 view -0
 115              		.cfi_startproc
 116              		@ Volatile: function does not return.
 117              		@ args = 0, pretend = 0, frame = 0
 118              		@ frame_needed = 0, uses_anonymous_args = 0
 119              		@ link register save eliminated.
 120              	.L9:
  97:../Src/stm32l4xx_it.c ****   /* USER CODE BEGIN UsageFault_IRQn 0 */
  98:../Src/stm32l4xx_it.c **** 
  99:../Src/stm32l4xx_it.c ****   /* USER CODE END UsageFault_IRQn 0 */
 100:../Src/stm32l4xx_it.c ****   while (1)
 121              		.loc 1 100 3 discriminator 1 view .LVU15
 101:../Src/stm32l4xx_it.c ****   {
 102:../Src/stm32l4xx_it.c ****     /* USER CODE BEGIN W1_UsageFault_IRQn 0 */
 103:../Src/stm32l4xx_it.c ****     /* USER CODE END W1_UsageFault_IRQn 0 */
 104:../Src/stm32l4xx_it.c ****   }
ARM GAS  C:\Users\hoodc\AppData\Local\Temp\ccEDarNx.s 			page 5


 122              		.loc 1 104 3 discriminator 1 view .LVU16
 100:../Src/stm32l4xx_it.c ****   {
 123              		.loc 1 100 9 discriminator 1 view .LVU17
 124 0008 FEE7     		b	.L9
 125              		.cfi_endproc
 126              	.LFE137:
 127              		.size	UsageFault_Handler, .-UsageFault_Handler
 128              		.align	1
 129              		.global	SVC_Handler
 130              		.syntax unified
 131              		.thumb
 132              		.thumb_func
 133              		.fpu softvfp
 134              		.type	SVC_Handler, %function
 135              	SVC_Handler:
 136              	.LFB138:
 105:../Src/stm32l4xx_it.c **** }
 106:../Src/stm32l4xx_it.c **** 
 107:../Src/stm32l4xx_it.c **** /**
 108:../Src/stm32l4xx_it.c ****   * @brief This function handles System service call via SWI instruction.
 109:../Src/stm32l4xx_it.c ****   */
 110:../Src/stm32l4xx_it.c **** void SVC_Handler(void)
 111:../Src/stm32l4xx_it.c **** {
 137              		.loc 1 111 1 view -0
 138              		.cfi_startproc
 139              		@ args = 0, pretend = 0, frame = 0
 140              		@ frame_needed = 0, uses_anonymous_args = 0
 141              		@ link register save eliminated.
 112:../Src/stm32l4xx_it.c ****   /* USER CODE BEGIN SVCall_IRQn 0 */
 113:../Src/stm32l4xx_it.c **** 
 114:../Src/stm32l4xx_it.c ****   /* USER CODE END SVCall_IRQn 0 */
 115:../Src/stm32l4xx_it.c ****   /* USER CODE BEGIN SVCall_IRQn 1 */
 116:../Src/stm32l4xx_it.c **** 
 117:../Src/stm32l4xx_it.c ****   /* USER CODE END SVCall_IRQn 1 */
 118:../Src/stm32l4xx_it.c **** }
 142              		.loc 1 118 1 view .LVU19
 143 000a 7047     		bx	lr
 144              		.cfi_endproc
 145              	.LFE138:
 146              		.size	SVC_Handler, .-SVC_Handler
 147              		.align	1
 148              		.global	DebugMon_Handler
 149              		.syntax unified
 150              		.thumb
 151              		.thumb_func
 152              		.fpu softvfp
 153              		.type	DebugMon_Handler, %function
 154              	DebugMon_Handler:
 155              	.LFB139:
 119:../Src/stm32l4xx_it.c **** 
 120:../Src/stm32l4xx_it.c **** /**
 121:../Src/stm32l4xx_it.c ****   * @brief This function handles Debug monitor.
 122:../Src/stm32l4xx_it.c ****   */
 123:../Src/stm32l4xx_it.c **** void DebugMon_Handler(void)
 124:../Src/stm32l4xx_it.c **** {
 156              		.loc 1 124 1 view -0
 157              		.cfi_startproc
ARM GAS  C:\Users\hoodc\AppData\Local\Temp\ccEDarNx.s 			page 6


 158              		@ args = 0, pretend = 0, frame = 0
 159              		@ frame_needed = 0, uses_anonymous_args = 0
 160              		@ link register save eliminated.
 125:../Src/stm32l4xx_it.c ****   /* USER CODE BEGIN DebugMonitor_IRQn 0 */
 126:../Src/stm32l4xx_it.c **** 
 127:../Src/stm32l4xx_it.c ****   /* USER CODE END DebugMonitor_IRQn 0 */
 128:../Src/stm32l4xx_it.c ****   /* USER CODE BEGIN DebugMonitor_IRQn 1 */
 129:../Src/stm32l4xx_it.c **** 
 130:../Src/stm32l4xx_it.c ****   /* USER CODE END DebugMonitor_IRQn 1 */
 131:../Src/stm32l4xx_it.c **** }
 161              		.loc 1 131 1 view .LVU21
 162 000c 7047     		bx	lr
 163              		.cfi_endproc
 164              	.LFE139:
 165              		.size	DebugMon_Handler, .-DebugMon_Handler
 166              		.align	1
 167              		.global	PendSV_Handler
 168              		.syntax unified
 169              		.thumb
 170              		.thumb_func
 171              		.fpu softvfp
 172              		.type	PendSV_Handler, %function
 173              	PendSV_Handler:
 174              	.LFB140:
 132:../Src/stm32l4xx_it.c **** 
 133:../Src/stm32l4xx_it.c **** /**
 134:../Src/stm32l4xx_it.c ****   * @brief This function handles Pendable request for system service.
 135:../Src/stm32l4xx_it.c ****   */
 136:../Src/stm32l4xx_it.c **** void PendSV_Handler(void)
 137:../Src/stm32l4xx_it.c **** {
 175              		.loc 1 137 1 view -0
 176              		.cfi_startproc
 177              		@ args = 0, pretend = 0, frame = 0
 178              		@ frame_needed = 0, uses_anonymous_args = 0
 179              		@ link register save eliminated.
 138:../Src/stm32l4xx_it.c ****   /* USER CODE BEGIN PendSV_IRQn 0 */
 139:../Src/stm32l4xx_it.c **** 
 140:../Src/stm32l4xx_it.c ****   /* USER CODE END PendSV_IRQn 0 */
 141:../Src/stm32l4xx_it.c ****   /* USER CODE BEGIN PendSV_IRQn 1 */
 142:../Src/stm32l4xx_it.c **** 
 143:../Src/stm32l4xx_it.c ****   /* USER CODE END PendSV_IRQn 1 */
 144:../Src/stm32l4xx_it.c **** }
 180              		.loc 1 144 1 view .LVU23
 181 000e 7047     		bx	lr
 182              		.cfi_endproc
 183              	.LFE140:
 184              		.size	PendSV_Handler, .-PendSV_Handler
 185              		.align	1
 186              		.global	SysTick_Handler
 187              		.syntax unified
 188              		.thumb
 189              		.thumb_func
 190              		.fpu softvfp
 191              		.type	SysTick_Handler, %function
 192              	SysTick_Handler:
 193              	.LFB141:
 145:../Src/stm32l4xx_it.c **** 
ARM GAS  C:\Users\hoodc\AppData\Local\Temp\ccEDarNx.s 			page 7


 146:../Src/stm32l4xx_it.c **** /**
 147:../Src/stm32l4xx_it.c ****   * @brief This function handles System tick timer.
 148:../Src/stm32l4xx_it.c ****   */
 149:../Src/stm32l4xx_it.c **** void SysTick_Handler(void)
 150:../Src/stm32l4xx_it.c **** {
 194              		.loc 1 150 1 view -0
 195              		.cfi_startproc
 196              		@ args = 0, pretend = 0, frame = 0
 197              		@ frame_needed = 0, uses_anonymous_args = 0
 198 0010 08B5     		push	{r3, lr}
 199              	.LCFI0:
 200              		.cfi_def_cfa_offset 8
 201              		.cfi_offset 3, -8
 202              		.cfi_offset 14, -4
 151:../Src/stm32l4xx_it.c ****   /* USER CODE BEGIN SysTick_IRQn 0 */
 152:../Src/stm32l4xx_it.c **** 
 153:../Src/stm32l4xx_it.c ****   /* USER CODE END SysTick_IRQn 0 */
 154:../Src/stm32l4xx_it.c ****   HAL_IncTick();
 203              		.loc 1 154 3 view .LVU25
 204 0012 FFF7FEFF 		bl	HAL_IncTick
 205              	.LVL0:
 155:../Src/stm32l4xx_it.c ****   /* USER CODE BEGIN SysTick_IRQn 1 */
 156:../Src/stm32l4xx_it.c **** 
 157:../Src/stm32l4xx_it.c ****   /* USER CODE END SysTick_IRQn 1 */
 158:../Src/stm32l4xx_it.c **** }
 206              		.loc 1 158 1 is_stmt 0 view .LVU26
 207 0016 08BD     		pop	{r3, pc}
 208              		.cfi_endproc
 209              	.LFE141:
 210              		.size	SysTick_Handler, .-SysTick_Handler
 211              		.align	1
 212              		.global	USART1_IRQHandler
 213              		.syntax unified
 214              		.thumb
 215              		.thumb_func
 216              		.fpu softvfp
 217              		.type	USART1_IRQHandler, %function
 218              	USART1_IRQHandler:
 219              	.LFB142:
 159:../Src/stm32l4xx_it.c **** 
 160:../Src/stm32l4xx_it.c **** /******************************************************************************/
 161:../Src/stm32l4xx_it.c **** /* STM32L4xx Peripheral Interrupt Handlers                                    */
 162:../Src/stm32l4xx_it.c **** /* Add here the Interrupt Handlers for the used peripherals.                  */
 163:../Src/stm32l4xx_it.c **** /* For the available peripheral interrupt handler names,                      */
 164:../Src/stm32l4xx_it.c **** /* please refer to the startup file (startup_stm32l4xx.s).                    */
 165:../Src/stm32l4xx_it.c **** /******************************************************************************/
 166:../Src/stm32l4xx_it.c **** 
 167:../Src/stm32l4xx_it.c **** /**
 168:../Src/stm32l4xx_it.c ****   * @brief This function handles USART1 global interupt
 169:../Src/stm32l4xx_it.c ****   */
 170:../Src/stm32l4xx_it.c **** void USART1_IRQHandler(void)
 171:../Src/stm32l4xx_it.c **** {
 220              		.loc 1 171 1 is_stmt 1 view -0
 221              		.cfi_startproc
 222              		@ args = 0, pretend = 0, frame = 0
 223              		@ frame_needed = 0, uses_anonymous_args = 0
 224              		@ link register save eliminated.
ARM GAS  C:\Users\hoodc\AppData\Local\Temp\ccEDarNx.s 			page 8


 172:../Src/stm32l4xx_it.c **** #if PASS_THROUGH_UART
 173:../Src/stm32l4xx_it.c ****     uint32_t isrflags = huart1.Instance->ISR;
 225              		.loc 1 173 5 view .LVU28
 226              		.loc 1 173 31 is_stmt 0 view .LVU29
 227 0018 0B4B     		ldr	r3, .L18
 228 001a 1B68     		ldr	r3, [r3]
 229              		.loc 1 173 14 view .LVU30
 230 001c DA69     		ldr	r2, [r3, #28]
 231              	.LVL1:
 174:../Src/stm32l4xx_it.c ****     uint32_t errorflags = (isrflags & (uint32_t)(USART_ISR_PE | USART_ISR_FE | USART_ISR_ORE | USAR
 232              		.loc 1 174 5 is_stmt 1 view .LVU31
 175:../Src/stm32l4xx_it.c ****     // Handle these errors accordingly and throw away the whole message
 176:../Src/stm32l4xx_it.c ****     if (errorflags != 0x00)
 233              		.loc 1 176 5 view .LVU32
 234              		.loc 1 176 8 is_stmt 0 view .LVU33
 235 001e 40F60F01 		movw	r1, #2063
 236 0022 0A42     		tst	r2, r1
 237 0024 08D1     		bne	.L17
 177:../Src/stm32l4xx_it.c ****     {
 178:../Src/stm32l4xx_it.c ****       SET_BIT(huart1.Instance->ICR, 0xFFFF);              // Clear error ISR flags
 179:../Src/stm32l4xx_it.c ****       return;
 180:../Src/stm32l4xx_it.c ****     }
 181:../Src/stm32l4xx_it.c **** 
 182:../Src/stm32l4xx_it.c ****     // RX UART ISR
 183:../Src/stm32l4xx_it.c ****     if (isrflags & USART_ISR_RXNE)
 238              		.loc 1 183 5 is_stmt 1 view .LVU34
 239              		.loc 1 183 8 is_stmt 0 view .LVU35
 240 0026 12F0200F 		tst	r2, #32
 241 002a 04D0     		beq	.L14
 184:../Src/stm32l4xx_it.c ****       huart2.Instance->TDR = huart1.Instance->RDR; // Read out data
 242              		.loc 1 184 7 is_stmt 1 view .LVU36
 243              		.loc 1 184 13 is_stmt 0 view .LVU37
 244 002c 074A     		ldr	r2, .L18+4
 245              	.LVL2:
 246              		.loc 1 184 13 view .LVU38
 247 002e 1268     		ldr	r2, [r2]
 248              		.loc 1 184 45 view .LVU39
 249 0030 9B8C     		ldrh	r3, [r3, #36]
 250 0032 9BB2     		uxth	r3, r3
 251              		.loc 1 184 28 view .LVU40
 252 0034 1385     		strh	r3, [r2, #40]	@ movhi
 253              	.L14:
 185:../Src/stm32l4xx_it.c **** #else
 186:../Src/stm32l4xx_it.c ****     UBX_IRQ_Handler(&huart1);
 187:../Src/stm32l4xx_it.c **** #endif
 188:../Src/stm32l4xx_it.c **** 
 189:../Src/stm32l4xx_it.c **** }
 254              		.loc 1 189 1 view .LVU41
 255 0036 7047     		bx	lr
 256              	.LVL3:
 257              	.L17:
 178:../Src/stm32l4xx_it.c ****       return;
 258              		.loc 1 178 7 is_stmt 1 view .LVU42
 259 0038 1A6A     		ldr	r2, [r3, #32]
 260              	.LVL4:
 178:../Src/stm32l4xx_it.c ****       return;
 261              		.loc 1 178 7 is_stmt 0 view .LVU43
ARM GAS  C:\Users\hoodc\AppData\Local\Temp\ccEDarNx.s 			page 9


 262 003a 6FEA1242 		mvn	r2, r2, lsr #16
 263 003e 6FEA0242 		mvn	r2, r2, lsl #16
 264 0042 1A62     		str	r2, [r3, #32]
 179:../Src/stm32l4xx_it.c ****     }
 265              		.loc 1 179 7 is_stmt 1 view .LVU44
 266 0044 7047     		bx	lr
 267              	.L19:
 268 0046 00BF     		.align	2
 269              	.L18:
 270 0048 00000000 		.word	huart1
 271 004c 00000000 		.word	huart2
 272              		.cfi_endproc
 273              	.LFE142:
 274              		.size	USART1_IRQHandler, .-USART1_IRQHandler
 275              		.align	1
 276              		.global	USART2_IRQHandler
 277              		.syntax unified
 278              		.thumb
 279              		.thumb_func
 280              		.fpu softvfp
 281              		.type	USART2_IRQHandler, %function
 282              	USART2_IRQHandler:
 283              	.LFB143:
 190:../Src/stm32l4xx_it.c **** 
 191:../Src/stm32l4xx_it.c **** /**
 192:../Src/stm32l4xx_it.c ****   * @brief This function handles USART2 global interupt
 193:../Src/stm32l4xx_it.c ****   */
 194:../Src/stm32l4xx_it.c **** void USART2_IRQHandler(void)
 195:../Src/stm32l4xx_it.c **** {
 284              		.loc 1 195 1 view -0
 285              		.cfi_startproc
 286              		@ args = 0, pretend = 0, frame = 0
 287              		@ frame_needed = 0, uses_anonymous_args = 0
 288              		@ link register save eliminated.
 196:../Src/stm32l4xx_it.c **** #if PASS_THROUGH_UART
 197:../Src/stm32l4xx_it.c ****     uint32_t isrflags = huart2.Instance->ISR;
 289              		.loc 1 197 5 view .LVU46
 290              		.loc 1 197 31 is_stmt 0 view .LVU47
 291 0050 0B4B     		ldr	r3, .L24
 292 0052 1B68     		ldr	r3, [r3]
 293              		.loc 1 197 14 view .LVU48
 294 0054 DA69     		ldr	r2, [r3, #28]
 295              	.LVL5:
 198:../Src/stm32l4xx_it.c ****     uint32_t errorflags = (isrflags & (uint32_t)(USART_ISR_PE | USART_ISR_FE | USART_ISR_ORE | USAR
 296              		.loc 1 198 5 is_stmt 1 view .LVU49
 199:../Src/stm32l4xx_it.c ****     // Handle these errors accordingly and throw away the whole message
 200:../Src/stm32l4xx_it.c ****     if (errorflags != 0x00)
 297              		.loc 1 200 5 view .LVU50
 298              		.loc 1 200 8 is_stmt 0 view .LVU51
 299 0056 40F60F01 		movw	r1, #2063
 300 005a 0A42     		tst	r2, r1
 301 005c 08D1     		bne	.L23
 201:../Src/stm32l4xx_it.c ****     {
 202:../Src/stm32l4xx_it.c ****       SET_BIT(huart2.Instance->ICR, 0xFFFF);              // Clear error ISR flags
 203:../Src/stm32l4xx_it.c ****       return;
 204:../Src/stm32l4xx_it.c ****     }
 205:../Src/stm32l4xx_it.c **** 
ARM GAS  C:\Users\hoodc\AppData\Local\Temp\ccEDarNx.s 			page 10


 206:../Src/stm32l4xx_it.c ****     // RX UART ISR
 207:../Src/stm32l4xx_it.c ****     if (isrflags & USART_ISR_RXNE)
 302              		.loc 1 207 5 is_stmt 1 view .LVU52
 303              		.loc 1 207 8 is_stmt 0 view .LVU53
 304 005e 12F0200F 		tst	r2, #32
 305 0062 04D0     		beq	.L20
 208:../Src/stm32l4xx_it.c ****       huart1.Instance->TDR = huart2.Instance->RDR; // Read out data
 306              		.loc 1 208 7 is_stmt 1 view .LVU54
 307              		.loc 1 208 13 is_stmt 0 view .LVU55
 308 0064 074A     		ldr	r2, .L24+4
 309              	.LVL6:
 310              		.loc 1 208 13 view .LVU56
 311 0066 1268     		ldr	r2, [r2]
 312              		.loc 1 208 45 view .LVU57
 313 0068 9B8C     		ldrh	r3, [r3, #36]
 314 006a 9BB2     		uxth	r3, r3
 315              		.loc 1 208 28 view .LVU58
 316 006c 1385     		strh	r3, [r2, #40]	@ movhi
 317              	.L20:
 209:../Src/stm32l4xx_it.c **** #else
 210:../Src/stm32l4xx_it.c ****     SARA_R4_IRQ_Handler(&huart2);
 211:../Src/stm32l4xx_it.c **** #endif
 212:../Src/stm32l4xx_it.c **** }
 318              		.loc 1 212 1 view .LVU59
 319 006e 7047     		bx	lr
 320              	.LVL7:
 321              	.L23:
 202:../Src/stm32l4xx_it.c ****       return;
 322              		.loc 1 202 7 is_stmt 1 view .LVU60
 323 0070 1A6A     		ldr	r2, [r3, #32]
 324              	.LVL8:
 202:../Src/stm32l4xx_it.c ****       return;
 325              		.loc 1 202 7 is_stmt 0 view .LVU61
 326 0072 6FEA1242 		mvn	r2, r2, lsr #16
 327 0076 6FEA0242 		mvn	r2, r2, lsl #16
 328 007a 1A62     		str	r2, [r3, #32]
 203:../Src/stm32l4xx_it.c ****     }
 329              		.loc 1 203 7 is_stmt 1 view .LVU62
 330 007c 7047     		bx	lr
 331              	.L25:
 332 007e 00BF     		.align	2
 333              	.L24:
 334 0080 00000000 		.word	huart2
 335 0084 00000000 		.word	huart1
 336              		.cfi_endproc
 337              	.LFE143:
 338              		.size	USART2_IRQHandler, .-USART2_IRQHandler
 339              	.Letext0:
 340              		.file 2 "c:\\program files (x86)\\gnu arm embedded toolchain\\10 2020-q4-major\\arm-none-eabi\\inc
 341              		.file 3 "c:\\program files (x86)\\gnu arm embedded toolchain\\10 2020-q4-major\\arm-none-eabi\\inc
 342              		.file 4 "C:/Users/hoodc/AppData/Local/Arm/Packs/Keil/STM32L4xx_DFP/2.5.0/Drivers/CMSIS/Device/ST/S
 343              		.file 5 "../Drivers/STM32L4xx_HAL_Driver/Inc/stm32l4xx_hal_def.h"
 344              		.file 6 "../Drivers/STM32L4xx_HAL_Driver/Inc/stm32l4xx_hal_dma.h"
 345              		.file 7 "../Drivers/STM32L4xx_HAL_Driver/Inc/stm32l4xx_hal_uart.h"
 346              		.file 8 "../Drivers/STM32L4xx_HAL_Driver/Inc/stm32l4xx_hal.h"