ARM GAS  C:\Users\hoodc\AppData\Local\Temp\cc4eu5v8.s 			page 1


   1              		.cpu cortex-m4
   2              		.eabi_attribute 20, 1
   3              		.eabi_attribute 21, 1
   4              		.eabi_attribute 23, 3
   5              		.eabi_attribute 24, 1
   6              		.eabi_attribute 25, 1
   7              		.eabi_attribute 26, 1
   8              		.eabi_attribute 30, 1
   9              		.eabi_attribute 34, 1
  10              		.eabi_attribute 18, 4
  11              		.file	"stm32l4xx_hal_dma.c"
  12              		.text
  13              	.Ltext0:
  14              		.cfi_sections	.debug_frame
  15              		.align	1
  16              		.global	HAL_DMA_Init
  17              		.arch armv7e-m
  18              		.syntax unified
  19              		.thumb
  20              		.thumb_func
  21              		.fpu softvfp
  22              		.type	HAL_DMA_Init, %function
  23              	HAL_DMA_Init:
  24              	.LVL0:
  25              	.LFB133:
  26              		.file 1 "../Drivers/STM32L4xx_HAL_Driver/Src/stm32l4xx_hal_dma.c"
   1:../Drivers/STM32L4xx_HAL_Driver/Src/stm32l4xx_hal_dma.c **** /**
   2:../Drivers/STM32L4xx_HAL_Driver/Src/stm32l4xx_hal_dma.c ****   ******************************************************************************
   3:../Drivers/STM32L4xx_HAL_Driver/Src/stm32l4xx_hal_dma.c ****   * @file    stm32l4xx_hal_dma.c
   4:../Drivers/STM32L4xx_HAL_Driver/Src/stm32l4xx_hal_dma.c ****   * @author  MCD Application Team
   5:../Drivers/STM32L4xx_HAL_Driver/Src/stm32l4xx_hal_dma.c ****   * @brief   DMA HAL module driver.
   6:../Drivers/STM32L4xx_HAL_Driver/Src/stm32l4xx_hal_dma.c ****   *          This file provides firmware functions to manage the following
   7:../Drivers/STM32L4xx_HAL_Driver/Src/stm32l4xx_hal_dma.c ****   *          functionalities of the Direct Memory Access (DMA) peripheral:
   8:../Drivers/STM32L4xx_HAL_Driver/Src/stm32l4xx_hal_dma.c ****   *           + Initialization and de-initialization functions
   9:../Drivers/STM32L4xx_HAL_Driver/Src/stm32l4xx_hal_dma.c ****   *           + IO operation functions
  10:../Drivers/STM32L4xx_HAL_Driver/Src/stm32l4xx_hal_dma.c ****   *           + Peripheral State and errors functions
  11:../Drivers/STM32L4xx_HAL_Driver/Src/stm32l4xx_hal_dma.c ****   @verbatim
  12:../Drivers/STM32L4xx_HAL_Driver/Src/stm32l4xx_hal_dma.c ****   ==============================================================================
  13:../Drivers/STM32L4xx_HAL_Driver/Src/stm32l4xx_hal_dma.c ****                         ##### How to use this driver #####
  14:../Drivers/STM32L4xx_HAL_Driver/Src/stm32l4xx_hal_dma.c ****   ==============================================================================
  15:../Drivers/STM32L4xx_HAL_Driver/Src/stm32l4xx_hal_dma.c ****   [..]
  16:../Drivers/STM32L4xx_HAL_Driver/Src/stm32l4xx_hal_dma.c ****    (#) Enable and configure the peripheral to be connected to the DMA Channel
  17:../Drivers/STM32L4xx_HAL_Driver/Src/stm32l4xx_hal_dma.c ****        (except for internal SRAM / FLASH memories: no initialization is
  18:../Drivers/STM32L4xx_HAL_Driver/Src/stm32l4xx_hal_dma.c ****        necessary). Please refer to the Reference manual for connection between peripherals
  19:../Drivers/STM32L4xx_HAL_Driver/Src/stm32l4xx_hal_dma.c ****        and DMA requests.
  20:../Drivers/STM32L4xx_HAL_Driver/Src/stm32l4xx_hal_dma.c **** 
  21:../Drivers/STM32L4xx_HAL_Driver/Src/stm32l4xx_hal_dma.c ****    (#) For a given Channel, program the required configuration through the following parameters:
  22:../Drivers/STM32L4xx_HAL_Driver/Src/stm32l4xx_hal_dma.c ****        Channel request, Transfer Direction, Source and Destination data formats,
  23:../Drivers/STM32L4xx_HAL_Driver/Src/stm32l4xx_hal_dma.c ****        Circular or Normal mode, Channel Priority level, Source and Destination Increment mode
  24:../Drivers/STM32L4xx_HAL_Driver/Src/stm32l4xx_hal_dma.c ****        using HAL_DMA_Init() function.
  25:../Drivers/STM32L4xx_HAL_Driver/Src/stm32l4xx_hal_dma.c **** 
  26:../Drivers/STM32L4xx_HAL_Driver/Src/stm32l4xx_hal_dma.c ****        Prior to HAL_DMA_Init the peripheral clock shall be enabled for both DMA & DMAMUX
  27:../Drivers/STM32L4xx_HAL_Driver/Src/stm32l4xx_hal_dma.c ****        thanks to:
  28:../Drivers/STM32L4xx_HAL_Driver/Src/stm32l4xx_hal_dma.c ****       (##) DMA1 or DMA2: __HAL_RCC_DMA1_CLK_ENABLE() or  __HAL_RCC_DMA2_CLK_ENABLE() ;
  29:../Drivers/STM32L4xx_HAL_Driver/Src/stm32l4xx_hal_dma.c ****       (##) DMAMUX1:      __HAL_RCC_DMAMUX1_CLK_ENABLE();
  30:../Drivers/STM32L4xx_HAL_Driver/Src/stm32l4xx_hal_dma.c **** 
  31:../Drivers/STM32L4xx_HAL_Driver/Src/stm32l4xx_hal_dma.c ****    (#) Use HAL_DMA_GetState() function to return the DMA state and HAL_DMA_GetError() in case of er
ARM GAS  C:\Users\hoodc\AppData\Local\Temp\cc4eu5v8.s 			page 2


  32:../Drivers/STM32L4xx_HAL_Driver/Src/stm32l4xx_hal_dma.c ****        detection.
  33:../Drivers/STM32L4xx_HAL_Driver/Src/stm32l4xx_hal_dma.c **** 
  34:../Drivers/STM32L4xx_HAL_Driver/Src/stm32l4xx_hal_dma.c ****    (#) Use HAL_DMA_Abort() function to abort the current transfer
  35:../Drivers/STM32L4xx_HAL_Driver/Src/stm32l4xx_hal_dma.c **** 
  36:../Drivers/STM32L4xx_HAL_Driver/Src/stm32l4xx_hal_dma.c ****      -@-   In Memory-to-Memory transfer mode, Circular mode is not allowed.
  37:../Drivers/STM32L4xx_HAL_Driver/Src/stm32l4xx_hal_dma.c **** 
  38:../Drivers/STM32L4xx_HAL_Driver/Src/stm32l4xx_hal_dma.c ****      *** Polling mode IO operation ***
  39:../Drivers/STM32L4xx_HAL_Driver/Src/stm32l4xx_hal_dma.c ****      =================================
  40:../Drivers/STM32L4xx_HAL_Driver/Src/stm32l4xx_hal_dma.c ****      [..]
  41:../Drivers/STM32L4xx_HAL_Driver/Src/stm32l4xx_hal_dma.c ****        (+) Use HAL_DMA_Start() to start DMA transfer after the configuration of Source
  42:../Drivers/STM32L4xx_HAL_Driver/Src/stm32l4xx_hal_dma.c ****            address and destination address and the Length of data to be transferred
  43:../Drivers/STM32L4xx_HAL_Driver/Src/stm32l4xx_hal_dma.c ****        (+) Use HAL_DMA_PollForTransfer() to poll for the end of current transfer, in this
  44:../Drivers/STM32L4xx_HAL_Driver/Src/stm32l4xx_hal_dma.c ****            case a fixed Timeout can be configured by User depending from his application.
  45:../Drivers/STM32L4xx_HAL_Driver/Src/stm32l4xx_hal_dma.c **** 
  46:../Drivers/STM32L4xx_HAL_Driver/Src/stm32l4xx_hal_dma.c ****      *** Interrupt mode IO operation ***
  47:../Drivers/STM32L4xx_HAL_Driver/Src/stm32l4xx_hal_dma.c ****      ===================================
  48:../Drivers/STM32L4xx_HAL_Driver/Src/stm32l4xx_hal_dma.c ****      [..]
  49:../Drivers/STM32L4xx_HAL_Driver/Src/stm32l4xx_hal_dma.c ****        (+) Configure the DMA interrupt priority using HAL_NVIC_SetPriority()
  50:../Drivers/STM32L4xx_HAL_Driver/Src/stm32l4xx_hal_dma.c ****        (+) Enable the DMA IRQ handler using HAL_NVIC_EnableIRQ()
  51:../Drivers/STM32L4xx_HAL_Driver/Src/stm32l4xx_hal_dma.c ****        (+) Use HAL_DMA_Start_IT() to start DMA transfer after the configuration of
  52:../Drivers/STM32L4xx_HAL_Driver/Src/stm32l4xx_hal_dma.c ****            Source address and destination address and the Length of data to be transferred.
  53:../Drivers/STM32L4xx_HAL_Driver/Src/stm32l4xx_hal_dma.c ****            In this case the DMA interrupt is configured
  54:../Drivers/STM32L4xx_HAL_Driver/Src/stm32l4xx_hal_dma.c ****        (+) Use HAL_DMA_IRQHandler() called under DMA_IRQHandler() Interrupt subroutine
  55:../Drivers/STM32L4xx_HAL_Driver/Src/stm32l4xx_hal_dma.c ****        (+) At the end of data transfer HAL_DMA_IRQHandler() function is executed and user can
  56:../Drivers/STM32L4xx_HAL_Driver/Src/stm32l4xx_hal_dma.c ****               add his own function to register callbacks with HAL_DMA_RegisterCallback().
  57:../Drivers/STM32L4xx_HAL_Driver/Src/stm32l4xx_hal_dma.c **** 
  58:../Drivers/STM32L4xx_HAL_Driver/Src/stm32l4xx_hal_dma.c ****      *** DMA HAL driver macros list ***
  59:../Drivers/STM32L4xx_HAL_Driver/Src/stm32l4xx_hal_dma.c ****      =============================================
  60:../Drivers/STM32L4xx_HAL_Driver/Src/stm32l4xx_hal_dma.c ****      [..]
  61:../Drivers/STM32L4xx_HAL_Driver/Src/stm32l4xx_hal_dma.c ****        Below the list of macros in DMA HAL driver.
  62:../Drivers/STM32L4xx_HAL_Driver/Src/stm32l4xx_hal_dma.c **** 
  63:../Drivers/STM32L4xx_HAL_Driver/Src/stm32l4xx_hal_dma.c ****        (+) __HAL_DMA_ENABLE: Enable the specified DMA Channel.
  64:../Drivers/STM32L4xx_HAL_Driver/Src/stm32l4xx_hal_dma.c ****        (+) __HAL_DMA_DISABLE: Disable the specified DMA Channel.
  65:../Drivers/STM32L4xx_HAL_Driver/Src/stm32l4xx_hal_dma.c ****        (+) __HAL_DMA_GET_FLAG: Get the DMA Channel pending flags.
  66:../Drivers/STM32L4xx_HAL_Driver/Src/stm32l4xx_hal_dma.c ****        (+) __HAL_DMA_CLEAR_FLAG: Clear the DMA Channel pending flags.
  67:../Drivers/STM32L4xx_HAL_Driver/Src/stm32l4xx_hal_dma.c ****        (+) __HAL_DMA_ENABLE_IT: Enable the specified DMA Channel interrupts.
  68:../Drivers/STM32L4xx_HAL_Driver/Src/stm32l4xx_hal_dma.c ****        (+) __HAL_DMA_DISABLE_IT: Disable the specified DMA Channel interrupts.
  69:../Drivers/STM32L4xx_HAL_Driver/Src/stm32l4xx_hal_dma.c ****        (+) __HAL_DMA_GET_IT_SOURCE: Check whether the specified DMA Channel interrupt is enabled or
  70:../Drivers/STM32L4xx_HAL_Driver/Src/stm32l4xx_hal_dma.c **** 
  71:../Drivers/STM32L4xx_HAL_Driver/Src/stm32l4xx_hal_dma.c ****      [..]
  72:../Drivers/STM32L4xx_HAL_Driver/Src/stm32l4xx_hal_dma.c ****       (@) You can refer to the DMA HAL driver header file for more useful macros
  73:../Drivers/STM32L4xx_HAL_Driver/Src/stm32l4xx_hal_dma.c **** 
  74:../Drivers/STM32L4xx_HAL_Driver/Src/stm32l4xx_hal_dma.c ****   @endverbatim
  75:../Drivers/STM32L4xx_HAL_Driver/Src/stm32l4xx_hal_dma.c ****   ******************************************************************************
  76:../Drivers/STM32L4xx_HAL_Driver/Src/stm32l4xx_hal_dma.c ****   * @attention
  77:../Drivers/STM32L4xx_HAL_Driver/Src/stm32l4xx_hal_dma.c ****   *
  78:../Drivers/STM32L4xx_HAL_Driver/Src/stm32l4xx_hal_dma.c ****   * <h2><center>&copy; Copyright (c) 2017 STMicroelectronics.
  79:../Drivers/STM32L4xx_HAL_Driver/Src/stm32l4xx_hal_dma.c ****   * All rights reserved.</center></h2>
  80:../Drivers/STM32L4xx_HAL_Driver/Src/stm32l4xx_hal_dma.c ****   *
  81:../Drivers/STM32L4xx_HAL_Driver/Src/stm32l4xx_hal_dma.c ****   * This software component is licensed by ST under BSD 3-Clause license,
  82:../Drivers/STM32L4xx_HAL_Driver/Src/stm32l4xx_hal_dma.c ****   * the "License"; You may not use this file except in compliance with the
  83:../Drivers/STM32L4xx_HAL_Driver/Src/stm32l4xx_hal_dma.c ****   * License. You may obtain a copy of the License at:
  84:../Drivers/STM32L4xx_HAL_Driver/Src/stm32l4xx_hal_dma.c ****   *                        opensource.org/licenses/BSD-3-Clause
  85:../Drivers/STM32L4xx_HAL_Driver/Src/stm32l4xx_hal_dma.c ****   *
  86:../Drivers/STM32L4xx_HAL_Driver/Src/stm32l4xx_hal_dma.c ****   ******************************************************************************
  87:../Drivers/STM32L4xx_HAL_Driver/Src/stm32l4xx_hal_dma.c ****   */
  88:../Drivers/STM32L4xx_HAL_Driver/Src/stm32l4xx_hal_dma.c **** 
ARM GAS  C:\Users\hoodc\AppData\Local\Temp\cc4eu5v8.s 			page 3


  89:../Drivers/STM32L4xx_HAL_Driver/Src/stm32l4xx_hal_dma.c **** /* Includes ------------------------------------------------------------------*/
  90:../Drivers/STM32L4xx_HAL_Driver/Src/stm32l4xx_hal_dma.c **** #include "stm32l4xx_hal.h"
  91:../Drivers/STM32L4xx_HAL_Driver/Src/stm32l4xx_hal_dma.c **** 
  92:../Drivers/STM32L4xx_HAL_Driver/Src/stm32l4xx_hal_dma.c **** /** @addtogroup STM32L4xx_HAL_Driver
  93:../Drivers/STM32L4xx_HAL_Driver/Src/stm32l4xx_hal_dma.c ****   * @{
  94:../Drivers/STM32L4xx_HAL_Driver/Src/stm32l4xx_hal_dma.c ****   */
  95:../Drivers/STM32L4xx_HAL_Driver/Src/stm32l4xx_hal_dma.c **** 
  96:../Drivers/STM32L4xx_HAL_Driver/Src/stm32l4xx_hal_dma.c **** /** @defgroup DMA DMA
  97:../Drivers/STM32L4xx_HAL_Driver/Src/stm32l4xx_hal_dma.c ****   * @brief DMA HAL module driver
  98:../Drivers/STM32L4xx_HAL_Driver/Src/stm32l4xx_hal_dma.c ****   * @{
  99:../Drivers/STM32L4xx_HAL_Driver/Src/stm32l4xx_hal_dma.c ****   */
 100:../Drivers/STM32L4xx_HAL_Driver/Src/stm32l4xx_hal_dma.c **** 
 101:../Drivers/STM32L4xx_HAL_Driver/Src/stm32l4xx_hal_dma.c **** #ifdef HAL_DMA_MODULE_ENABLED
 102:../Drivers/STM32L4xx_HAL_Driver/Src/stm32l4xx_hal_dma.c **** 
 103:../Drivers/STM32L4xx_HAL_Driver/Src/stm32l4xx_hal_dma.c **** /* Private typedef -----------------------------------------------------------*/
 104:../Drivers/STM32L4xx_HAL_Driver/Src/stm32l4xx_hal_dma.c **** /* Private define ------------------------------------------------------------*/
 105:../Drivers/STM32L4xx_HAL_Driver/Src/stm32l4xx_hal_dma.c **** /* Private macro -------------------------------------------------------------*/
 106:../Drivers/STM32L4xx_HAL_Driver/Src/stm32l4xx_hal_dma.c **** /* Private variables ---------------------------------------------------------*/
 107:../Drivers/STM32L4xx_HAL_Driver/Src/stm32l4xx_hal_dma.c **** /* Private function prototypes -----------------------------------------------*/
 108:../Drivers/STM32L4xx_HAL_Driver/Src/stm32l4xx_hal_dma.c **** /** @defgroup DMA_Private_Functions DMA Private Functions
 109:../Drivers/STM32L4xx_HAL_Driver/Src/stm32l4xx_hal_dma.c ****   * @{
 110:../Drivers/STM32L4xx_HAL_Driver/Src/stm32l4xx_hal_dma.c ****   */
 111:../Drivers/STM32L4xx_HAL_Driver/Src/stm32l4xx_hal_dma.c **** static void DMA_SetConfig(DMA_HandleTypeDef *hdma, uint32_t SrcAddress, uint32_t DstAddress, uint32
 112:../Drivers/STM32L4xx_HAL_Driver/Src/stm32l4xx_hal_dma.c **** #if defined(DMAMUX1)
 113:../Drivers/STM32L4xx_HAL_Driver/Src/stm32l4xx_hal_dma.c **** static void DMA_CalcDMAMUXChannelBaseAndMask(DMA_HandleTypeDef *hdma);
 114:../Drivers/STM32L4xx_HAL_Driver/Src/stm32l4xx_hal_dma.c **** static void DMA_CalcDMAMUXRequestGenBaseAndMask(DMA_HandleTypeDef *hdma);
 115:../Drivers/STM32L4xx_HAL_Driver/Src/stm32l4xx_hal_dma.c **** #endif /* DMAMUX1 */
 116:../Drivers/STM32L4xx_HAL_Driver/Src/stm32l4xx_hal_dma.c **** 
 117:../Drivers/STM32L4xx_HAL_Driver/Src/stm32l4xx_hal_dma.c **** /**
 118:../Drivers/STM32L4xx_HAL_Driver/Src/stm32l4xx_hal_dma.c ****   * @}
 119:../Drivers/STM32L4xx_HAL_Driver/Src/stm32l4xx_hal_dma.c ****   */
 120:../Drivers/STM32L4xx_HAL_Driver/Src/stm32l4xx_hal_dma.c **** 
 121:../Drivers/STM32L4xx_HAL_Driver/Src/stm32l4xx_hal_dma.c **** /* Exported functions ---------------------------------------------------------*/
 122:../Drivers/STM32L4xx_HAL_Driver/Src/stm32l4xx_hal_dma.c **** 
 123:../Drivers/STM32L4xx_HAL_Driver/Src/stm32l4xx_hal_dma.c **** /** @defgroup DMA_Exported_Functions DMA Exported Functions
 124:../Drivers/STM32L4xx_HAL_Driver/Src/stm32l4xx_hal_dma.c ****   * @{
 125:../Drivers/STM32L4xx_HAL_Driver/Src/stm32l4xx_hal_dma.c ****   */
 126:../Drivers/STM32L4xx_HAL_Driver/Src/stm32l4xx_hal_dma.c **** 
 127:../Drivers/STM32L4xx_HAL_Driver/Src/stm32l4xx_hal_dma.c **** /** @defgroup DMA_Exported_Functions_Group1 Initialization and de-initialization functions
 128:../Drivers/STM32L4xx_HAL_Driver/Src/stm32l4xx_hal_dma.c ****  *  @brief   Initialization and de-initialization functions
 129:../Drivers/STM32L4xx_HAL_Driver/Src/stm32l4xx_hal_dma.c ****  *
 130:../Drivers/STM32L4xx_HAL_Driver/Src/stm32l4xx_hal_dma.c **** @verbatim
 131:../Drivers/STM32L4xx_HAL_Driver/Src/stm32l4xx_hal_dma.c ****  ===============================================================================
 132:../Drivers/STM32L4xx_HAL_Driver/Src/stm32l4xx_hal_dma.c ****              ##### Initialization and de-initialization functions  #####
 133:../Drivers/STM32L4xx_HAL_Driver/Src/stm32l4xx_hal_dma.c ****  ===============================================================================
 134:../Drivers/STM32L4xx_HAL_Driver/Src/stm32l4xx_hal_dma.c ****     [..]
 135:../Drivers/STM32L4xx_HAL_Driver/Src/stm32l4xx_hal_dma.c ****     This section provides functions allowing to initialize the DMA Channel source
 136:../Drivers/STM32L4xx_HAL_Driver/Src/stm32l4xx_hal_dma.c ****     and destination addresses, incrementation and data sizes, transfer direction,
 137:../Drivers/STM32L4xx_HAL_Driver/Src/stm32l4xx_hal_dma.c ****     circular/normal mode selection, memory-to-memory mode selection and Channel priority value.
 138:../Drivers/STM32L4xx_HAL_Driver/Src/stm32l4xx_hal_dma.c ****     [..]
 139:../Drivers/STM32L4xx_HAL_Driver/Src/stm32l4xx_hal_dma.c ****     The HAL_DMA_Init() function follows the DMA configuration procedures as described in
 140:../Drivers/STM32L4xx_HAL_Driver/Src/stm32l4xx_hal_dma.c ****     reference manual.
 141:../Drivers/STM32L4xx_HAL_Driver/Src/stm32l4xx_hal_dma.c **** 
 142:../Drivers/STM32L4xx_HAL_Driver/Src/stm32l4xx_hal_dma.c **** @endverbatim
 143:../Drivers/STM32L4xx_HAL_Driver/Src/stm32l4xx_hal_dma.c ****   * @{
 144:../Drivers/STM32L4xx_HAL_Driver/Src/stm32l4xx_hal_dma.c ****   */
 145:../Drivers/STM32L4xx_HAL_Driver/Src/stm32l4xx_hal_dma.c **** 
ARM GAS  C:\Users\hoodc\AppData\Local\Temp\cc4eu5v8.s 			page 4


 146:../Drivers/STM32L4xx_HAL_Driver/Src/stm32l4xx_hal_dma.c **** /**
 147:../Drivers/STM32L4xx_HAL_Driver/Src/stm32l4xx_hal_dma.c ****   * @brief  Initialize the DMA according to the specified
 148:../Drivers/STM32L4xx_HAL_Driver/Src/stm32l4xx_hal_dma.c ****   *         parameters in the DMA_InitTypeDef and initialize the associated handle.
 149:../Drivers/STM32L4xx_HAL_Driver/Src/stm32l4xx_hal_dma.c ****   * @param  hdma pointer to a DMA_HandleTypeDef structure that contains
 150:../Drivers/STM32L4xx_HAL_Driver/Src/stm32l4xx_hal_dma.c ****   *              the configuration information for the specified DMA Channel.
 151:../Drivers/STM32L4xx_HAL_Driver/Src/stm32l4xx_hal_dma.c ****   * @retval HAL status
 152:../Drivers/STM32L4xx_HAL_Driver/Src/stm32l4xx_hal_dma.c ****   */
 153:../Drivers/STM32L4xx_HAL_Driver/Src/stm32l4xx_hal_dma.c **** HAL_StatusTypeDef HAL_DMA_Init(DMA_HandleTypeDef *hdma)
 154:../Drivers/STM32L4xx_HAL_Driver/Src/stm32l4xx_hal_dma.c **** {
  27              		.loc 1 154 1 view -0
  28              		.cfi_startproc
  29              		@ args = 0, pretend = 0, frame = 0
  30              		@ frame_needed = 0, uses_anonymous_args = 0
  31              		@ link register save eliminated.
  32              		.loc 1 154 1 is_stmt 0 view .LVU1
  33 0000 10B4     		push	{r4}
  34              	.LCFI0:
  35              		.cfi_def_cfa_offset 4
  36              		.cfi_offset 4, -4
 155:../Drivers/STM32L4xx_HAL_Driver/Src/stm32l4xx_hal_dma.c ****   uint32_t tmp;
  37              		.loc 1 155 3 is_stmt 1 view .LVU2
 156:../Drivers/STM32L4xx_HAL_Driver/Src/stm32l4xx_hal_dma.c **** 
 157:../Drivers/STM32L4xx_HAL_Driver/Src/stm32l4xx_hal_dma.c ****   /* Check the DMA handle allocation */
 158:../Drivers/STM32L4xx_HAL_Driver/Src/stm32l4xx_hal_dma.c ****   if(hdma == NULL)
  38              		.loc 1 158 3 view .LVU3
  39              		.loc 1 158 5 is_stmt 0 view .LVU4
  40 0002 0346     		mov	r3, r0
  41 0004 0028     		cmp	r0, #0
  42 0006 6ED0     		beq	.L7
 159:../Drivers/STM32L4xx_HAL_Driver/Src/stm32l4xx_hal_dma.c ****   {
 160:../Drivers/STM32L4xx_HAL_Driver/Src/stm32l4xx_hal_dma.c ****     return HAL_ERROR;
 161:../Drivers/STM32L4xx_HAL_Driver/Src/stm32l4xx_hal_dma.c ****   }
 162:../Drivers/STM32L4xx_HAL_Driver/Src/stm32l4xx_hal_dma.c **** 
 163:../Drivers/STM32L4xx_HAL_Driver/Src/stm32l4xx_hal_dma.c ****   /* Check the parameters */
 164:../Drivers/STM32L4xx_HAL_Driver/Src/stm32l4xx_hal_dma.c ****   assert_param(IS_DMA_ALL_INSTANCE(hdma->Instance));
  43              		.loc 1 164 3 is_stmt 1 view .LVU5
 165:../Drivers/STM32L4xx_HAL_Driver/Src/stm32l4xx_hal_dma.c ****   assert_param(IS_DMA_DIRECTION(hdma->Init.Direction));
  44              		.loc 1 165 3 view .LVU6
 166:../Drivers/STM32L4xx_HAL_Driver/Src/stm32l4xx_hal_dma.c ****   assert_param(IS_DMA_PERIPHERAL_INC_STATE(hdma->Init.PeriphInc));
  45              		.loc 1 166 3 view .LVU7
 167:../Drivers/STM32L4xx_HAL_Driver/Src/stm32l4xx_hal_dma.c ****   assert_param(IS_DMA_MEMORY_INC_STATE(hdma->Init.MemInc));
  46              		.loc 1 167 3 view .LVU8
 168:../Drivers/STM32L4xx_HAL_Driver/Src/stm32l4xx_hal_dma.c ****   assert_param(IS_DMA_PERIPHERAL_DATA_SIZE(hdma->Init.PeriphDataAlignment));
  47              		.loc 1 168 3 view .LVU9
 169:../Drivers/STM32L4xx_HAL_Driver/Src/stm32l4xx_hal_dma.c ****   assert_param(IS_DMA_MEMORY_DATA_SIZE(hdma->Init.MemDataAlignment));
  48              		.loc 1 169 3 view .LVU10
 170:../Drivers/STM32L4xx_HAL_Driver/Src/stm32l4xx_hal_dma.c ****   assert_param(IS_DMA_MODE(hdma->Init.Mode));
  49              		.loc 1 170 3 view .LVU11
 171:../Drivers/STM32L4xx_HAL_Driver/Src/stm32l4xx_hal_dma.c ****   assert_param(IS_DMA_PRIORITY(hdma->Init.Priority));
  50              		.loc 1 171 3 view .LVU12
 172:../Drivers/STM32L4xx_HAL_Driver/Src/stm32l4xx_hal_dma.c **** 
 173:../Drivers/STM32L4xx_HAL_Driver/Src/stm32l4xx_hal_dma.c ****   assert_param(IS_DMA_ALL_REQUEST(hdma->Init.Request));
  51              		.loc 1 173 3 view .LVU13
 174:../Drivers/STM32L4xx_HAL_Driver/Src/stm32l4xx_hal_dma.c **** 
 175:../Drivers/STM32L4xx_HAL_Driver/Src/stm32l4xx_hal_dma.c ****   /* Compute the channel index */
 176:../Drivers/STM32L4xx_HAL_Driver/Src/stm32l4xx_hal_dma.c ****   if ((uint32_t)(hdma->Instance) < (uint32_t)(DMA2_Channel1))
  52              		.loc 1 176 3 view .LVU14
ARM GAS  C:\Users\hoodc\AppData\Local\Temp\cc4eu5v8.s 			page 5


  53              		.loc 1 176 22 is_stmt 0 view .LVU15
  54 0008 0068     		ldr	r0, [r0]
  55              	.LVL1:
  56              		.loc 1 176 6 view .LVU16
  57 000a 384A     		ldr	r2, .L9
  58 000c 9042     		cmp	r0, r2
  59 000e 48D8     		bhi	.L3
 177:../Drivers/STM32L4xx_HAL_Driver/Src/stm32l4xx_hal_dma.c ****   {
 178:../Drivers/STM32L4xx_HAL_Driver/Src/stm32l4xx_hal_dma.c ****     /* DMA1 */
 179:../Drivers/STM32L4xx_HAL_Driver/Src/stm32l4xx_hal_dma.c ****     hdma->ChannelIndex = (((uint32_t)hdma->Instance - (uint32_t)DMA1_Channel1) / ((uint32_t)DMA1_Ch
  60              		.loc 1 179 5 is_stmt 1 view .LVU17
  61              		.loc 1 179 53 is_stmt 0 view .LVU18
  62 0010 374A     		ldr	r2, .L9+4
  63 0012 0244     		add	r2, r2, r0
  64              		.loc 1 179 80 view .LVU19
  65 0014 3749     		ldr	r1, .L9+8
  66 0016 A1FB0212 		umull	r1, r2, r1, r2
  67 001a 1209     		lsrs	r2, r2, #4
  68              		.loc 1 179 135 view .LVU20
  69 001c 9200     		lsls	r2, r2, #2
  70              		.loc 1 179 24 view .LVU21
  71 001e 5A64     		str	r2, [r3, #68]
 180:../Drivers/STM32L4xx_HAL_Driver/Src/stm32l4xx_hal_dma.c ****     hdma->DmaBaseAddress = DMA1;
  72              		.loc 1 180 5 is_stmt 1 view .LVU22
  73              		.loc 1 180 26 is_stmt 0 view .LVU23
  74 0020 354A     		ldr	r2, .L9+12
  75 0022 1A64     		str	r2, [r3, #64]
  76              	.L4:
 181:../Drivers/STM32L4xx_HAL_Driver/Src/stm32l4xx_hal_dma.c ****   }
 182:../Drivers/STM32L4xx_HAL_Driver/Src/stm32l4xx_hal_dma.c ****   else
 183:../Drivers/STM32L4xx_HAL_Driver/Src/stm32l4xx_hal_dma.c ****   {
 184:../Drivers/STM32L4xx_HAL_Driver/Src/stm32l4xx_hal_dma.c ****     /* DMA2 */
 185:../Drivers/STM32L4xx_HAL_Driver/Src/stm32l4xx_hal_dma.c ****     hdma->ChannelIndex = (((uint32_t)hdma->Instance - (uint32_t)DMA2_Channel1) / ((uint32_t)DMA2_Ch
 186:../Drivers/STM32L4xx_HAL_Driver/Src/stm32l4xx_hal_dma.c ****     hdma->DmaBaseAddress = DMA2;
 187:../Drivers/STM32L4xx_HAL_Driver/Src/stm32l4xx_hal_dma.c ****   }
 188:../Drivers/STM32L4xx_HAL_Driver/Src/stm32l4xx_hal_dma.c **** 
 189:../Drivers/STM32L4xx_HAL_Driver/Src/stm32l4xx_hal_dma.c ****   /* Change DMA peripheral state */
 190:../Drivers/STM32L4xx_HAL_Driver/Src/stm32l4xx_hal_dma.c ****   hdma->State = HAL_DMA_STATE_BUSY;
  77              		.loc 1 190 3 is_stmt 1 view .LVU24
  78              		.loc 1 190 15 is_stmt 0 view .LVU25
  79 0024 0222     		movs	r2, #2
  80 0026 83F82520 		strb	r2, [r3, #37]
 191:../Drivers/STM32L4xx_HAL_Driver/Src/stm32l4xx_hal_dma.c **** 
 192:../Drivers/STM32L4xx_HAL_Driver/Src/stm32l4xx_hal_dma.c ****   /* Get the CR register value */
 193:../Drivers/STM32L4xx_HAL_Driver/Src/stm32l4xx_hal_dma.c ****   tmp = hdma->Instance->CCR;
  81              		.loc 1 193 3 is_stmt 1 view .LVU26
  82              		.loc 1 193 7 is_stmt 0 view .LVU27
  83 002a 0168     		ldr	r1, [r0]
  84              	.LVL2:
 194:../Drivers/STM32L4xx_HAL_Driver/Src/stm32l4xx_hal_dma.c **** 
 195:../Drivers/STM32L4xx_HAL_Driver/Src/stm32l4xx_hal_dma.c ****   /* Clear PL, MSIZE, PSIZE, MINC, PINC, CIRC, DIR and MEM2MEM bits */
 196:../Drivers/STM32L4xx_HAL_Driver/Src/stm32l4xx_hal_dma.c ****   tmp &= ((uint32_t)~(DMA_CCR_PL    | DMA_CCR_MSIZE  | DMA_CCR_PSIZE  |
  85              		.loc 1 196 3 is_stmt 1 view .LVU28
  86              		.loc 1 196 7 is_stmt 0 view .LVU29
  87 002c 21F4FF41 		bic	r1, r1, #32640
  88              	.LVL3:
  89              		.loc 1 196 7 view .LVU30
ARM GAS  C:\Users\hoodc\AppData\Local\Temp\cc4eu5v8.s 			page 6


  90 0030 21F07001 		bic	r1, r1, #112
  91              	.LVL4:
 197:../Drivers/STM32L4xx_HAL_Driver/Src/stm32l4xx_hal_dma.c ****                       DMA_CCR_MINC  | DMA_CCR_PINC   | DMA_CCR_CIRC   |
 198:../Drivers/STM32L4xx_HAL_Driver/Src/stm32l4xx_hal_dma.c ****                       DMA_CCR_DIR   | DMA_CCR_MEM2MEM));
 199:../Drivers/STM32L4xx_HAL_Driver/Src/stm32l4xx_hal_dma.c **** 
 200:../Drivers/STM32L4xx_HAL_Driver/Src/stm32l4xx_hal_dma.c ****   /* Prepare the DMA Channel configuration */
 201:../Drivers/STM32L4xx_HAL_Driver/Src/stm32l4xx_hal_dma.c ****   tmp |=  hdma->Init.Direction        |
  92              		.loc 1 201 3 is_stmt 1 view .LVU31
  93              		.loc 1 201 39 is_stmt 0 view .LVU32
  94 0034 9A68     		ldr	r2, [r3, #8]
  95 0036 DC68     		ldr	r4, [r3, #12]
  96 0038 2243     		orrs	r2, r2, r4
 202:../Drivers/STM32L4xx_HAL_Driver/Src/stm32l4xx_hal_dma.c ****           hdma->Init.PeriphInc           | hdma->Init.MemInc           |
  97              		.loc 1 202 42 view .LVU33
  98 003a 1C69     		ldr	r4, [r3, #16]
  99 003c 2243     		orrs	r2, r2, r4
 100              		.loc 1 202 72 view .LVU34
 101 003e 5C69     		ldr	r4, [r3, #20]
 102 0040 2243     		orrs	r2, r2, r4
 203:../Drivers/STM32L4xx_HAL_Driver/Src/stm32l4xx_hal_dma.c ****           hdma->Init.PeriphDataAlignment | hdma->Init.MemDataAlignment |
 103              		.loc 1 203 42 view .LVU35
 104 0042 9C69     		ldr	r4, [r3, #24]
 105 0044 2243     		orrs	r2, r2, r4
 106              		.loc 1 203 72 view .LVU36
 107 0046 DC69     		ldr	r4, [r3, #28]
 108 0048 2243     		orrs	r2, r2, r4
 204:../Drivers/STM32L4xx_HAL_Driver/Src/stm32l4xx_hal_dma.c ****           hdma->Init.Mode                | hdma->Init.Priority;
 109              		.loc 1 204 42 view .LVU37
 110 004a 1C6A     		ldr	r4, [r3, #32]
 111 004c 2243     		orrs	r2, r2, r4
 201:../Drivers/STM32L4xx_HAL_Driver/Src/stm32l4xx_hal_dma.c ****           hdma->Init.PeriphInc           | hdma->Init.MemInc           |
 112              		.loc 1 201 7 view .LVU38
 113 004e 0A43     		orrs	r2, r2, r1
 114              	.LVL5:
 205:../Drivers/STM32L4xx_HAL_Driver/Src/stm32l4xx_hal_dma.c **** 
 206:../Drivers/STM32L4xx_HAL_Driver/Src/stm32l4xx_hal_dma.c ****   /* Write to DMA Channel CR register */
 207:../Drivers/STM32L4xx_HAL_Driver/Src/stm32l4xx_hal_dma.c ****   hdma->Instance->CCR = tmp;
 115              		.loc 1 207 3 is_stmt 1 view .LVU39
 116              		.loc 1 207 23 is_stmt 0 view .LVU40
 117 0050 0260     		str	r2, [r0]
 208:../Drivers/STM32L4xx_HAL_Driver/Src/stm32l4xx_hal_dma.c **** 
 209:../Drivers/STM32L4xx_HAL_Driver/Src/stm32l4xx_hal_dma.c **** #if defined(DMAMUX1)
 210:../Drivers/STM32L4xx_HAL_Driver/Src/stm32l4xx_hal_dma.c ****   /* Initialize parameters for DMAMUX channel :
 211:../Drivers/STM32L4xx_HAL_Driver/Src/stm32l4xx_hal_dma.c ****      DMAmuxChannel, DMAmuxChannelStatus and DMAmuxChannelStatusMask
 212:../Drivers/STM32L4xx_HAL_Driver/Src/stm32l4xx_hal_dma.c ****   */
 213:../Drivers/STM32L4xx_HAL_Driver/Src/stm32l4xx_hal_dma.c ****   DMA_CalcDMAMUXChannelBaseAndMask(hdma);
 214:../Drivers/STM32L4xx_HAL_Driver/Src/stm32l4xx_hal_dma.c **** 
 215:../Drivers/STM32L4xx_HAL_Driver/Src/stm32l4xx_hal_dma.c ****   if(hdma->Init.Direction == DMA_MEMORY_TO_MEMORY)
 216:../Drivers/STM32L4xx_HAL_Driver/Src/stm32l4xx_hal_dma.c ****   {
 217:../Drivers/STM32L4xx_HAL_Driver/Src/stm32l4xx_hal_dma.c ****     /* if memory to memory force the request to 0*/
 218:../Drivers/STM32L4xx_HAL_Driver/Src/stm32l4xx_hal_dma.c ****     hdma->Init.Request = DMA_REQUEST_MEM2MEM;
 219:../Drivers/STM32L4xx_HAL_Driver/Src/stm32l4xx_hal_dma.c ****   }
 220:../Drivers/STM32L4xx_HAL_Driver/Src/stm32l4xx_hal_dma.c **** 
 221:../Drivers/STM32L4xx_HAL_Driver/Src/stm32l4xx_hal_dma.c ****   /* Set peripheral request  to DMAMUX channel */
 222:../Drivers/STM32L4xx_HAL_Driver/Src/stm32l4xx_hal_dma.c ****   hdma->DMAmuxChannel->CCR = (hdma->Init.Request & DMAMUX_CxCR_DMAREQ_ID);
 223:../Drivers/STM32L4xx_HAL_Driver/Src/stm32l4xx_hal_dma.c **** 
 224:../Drivers/STM32L4xx_HAL_Driver/Src/stm32l4xx_hal_dma.c ****   /* Clear the DMAMUX synchro overrun flag */
ARM GAS  C:\Users\hoodc\AppData\Local\Temp\cc4eu5v8.s 			page 7


 225:../Drivers/STM32L4xx_HAL_Driver/Src/stm32l4xx_hal_dma.c ****   hdma->DMAmuxChannelStatus->CFR = hdma->DMAmuxChannelStatusMask;
 226:../Drivers/STM32L4xx_HAL_Driver/Src/stm32l4xx_hal_dma.c **** 
 227:../Drivers/STM32L4xx_HAL_Driver/Src/stm32l4xx_hal_dma.c ****   if(((hdma->Init.Request > 0U) && (hdma->Init.Request <= DMA_REQUEST_GENERATOR3)))
 228:../Drivers/STM32L4xx_HAL_Driver/Src/stm32l4xx_hal_dma.c ****   {
 229:../Drivers/STM32L4xx_HAL_Driver/Src/stm32l4xx_hal_dma.c ****     /* Initialize parameters for DMAMUX request generator :
 230:../Drivers/STM32L4xx_HAL_Driver/Src/stm32l4xx_hal_dma.c ****        DMAmuxRequestGen, DMAmuxRequestGenStatus and DMAmuxRequestGenStatusMask
 231:../Drivers/STM32L4xx_HAL_Driver/Src/stm32l4xx_hal_dma.c ****     */
 232:../Drivers/STM32L4xx_HAL_Driver/Src/stm32l4xx_hal_dma.c ****     DMA_CalcDMAMUXRequestGenBaseAndMask(hdma);
 233:../Drivers/STM32L4xx_HAL_Driver/Src/stm32l4xx_hal_dma.c **** 
 234:../Drivers/STM32L4xx_HAL_Driver/Src/stm32l4xx_hal_dma.c ****     /* Reset the DMAMUX request generator register*/
 235:../Drivers/STM32L4xx_HAL_Driver/Src/stm32l4xx_hal_dma.c ****     hdma->DMAmuxRequestGen->RGCR = 0U;
 236:../Drivers/STM32L4xx_HAL_Driver/Src/stm32l4xx_hal_dma.c **** 
 237:../Drivers/STM32L4xx_HAL_Driver/Src/stm32l4xx_hal_dma.c ****     /* Clear the DMAMUX request generator overrun flag */
 238:../Drivers/STM32L4xx_HAL_Driver/Src/stm32l4xx_hal_dma.c ****     hdma->DMAmuxRequestGenStatus->RGCFR = hdma->DMAmuxRequestGenStatusMask;
 239:../Drivers/STM32L4xx_HAL_Driver/Src/stm32l4xx_hal_dma.c ****   }
 240:../Drivers/STM32L4xx_HAL_Driver/Src/stm32l4xx_hal_dma.c ****   else
 241:../Drivers/STM32L4xx_HAL_Driver/Src/stm32l4xx_hal_dma.c ****   {
 242:../Drivers/STM32L4xx_HAL_Driver/Src/stm32l4xx_hal_dma.c ****     hdma->DMAmuxRequestGen = 0U;
 243:../Drivers/STM32L4xx_HAL_Driver/Src/stm32l4xx_hal_dma.c ****     hdma->DMAmuxRequestGenStatus = 0U;
 244:../Drivers/STM32L4xx_HAL_Driver/Src/stm32l4xx_hal_dma.c ****     hdma->DMAmuxRequestGenStatusMask = 0U;
 245:../Drivers/STM32L4xx_HAL_Driver/Src/stm32l4xx_hal_dma.c ****   }
 246:../Drivers/STM32L4xx_HAL_Driver/Src/stm32l4xx_hal_dma.c **** #endif /* DMAMUX1 */
 247:../Drivers/STM32L4xx_HAL_Driver/Src/stm32l4xx_hal_dma.c **** 
 248:../Drivers/STM32L4xx_HAL_Driver/Src/stm32l4xx_hal_dma.c **** #if !defined (DMAMUX1)
 249:../Drivers/STM32L4xx_HAL_Driver/Src/stm32l4xx_hal_dma.c **** 
 250:../Drivers/STM32L4xx_HAL_Driver/Src/stm32l4xx_hal_dma.c ****   /* Set request selection */
 251:../Drivers/STM32L4xx_HAL_Driver/Src/stm32l4xx_hal_dma.c ****   if(hdma->Init.Direction != DMA_MEMORY_TO_MEMORY)
 118              		.loc 1 251 3 is_stmt 1 view .LVU41
 119              		.loc 1 251 5 is_stmt 0 view .LVU42
 120 0052 9A68     		ldr	r2, [r3, #8]
 121              	.LVL6:
 122              		.loc 1 251 5 view .LVU43
 123 0054 B2F5804F 		cmp	r2, #16384
 124 0058 1AD0     		beq	.L5
 252:../Drivers/STM32L4xx_HAL_Driver/Src/stm32l4xx_hal_dma.c ****   {
 253:../Drivers/STM32L4xx_HAL_Driver/Src/stm32l4xx_hal_dma.c ****     /* Write to DMA channel selection register */
 254:../Drivers/STM32L4xx_HAL_Driver/Src/stm32l4xx_hal_dma.c ****     if (DMA1 == hdma->DmaBaseAddress)
 125              		.loc 1 254 5 is_stmt 1 view .LVU44
 126              		.loc 1 254 8 is_stmt 0 view .LVU45
 127 005a 196C     		ldr	r1, [r3, #64]
 128 005c 264A     		ldr	r2, .L9+12
 129 005e 9142     		cmp	r1, r2
 130 0060 2AD0     		beq	.L8
 255:../Drivers/STM32L4xx_HAL_Driver/Src/stm32l4xx_hal_dma.c ****     {
 256:../Drivers/STM32L4xx_HAL_Driver/Src/stm32l4xx_hal_dma.c ****       /* Reset request selection for DMA1 Channelx */
 257:../Drivers/STM32L4xx_HAL_Driver/Src/stm32l4xx_hal_dma.c ****       DMA1_CSELR->CSELR &= ~(DMA_CSELR_C1S << (hdma->ChannelIndex & 0x1cU));
 258:../Drivers/STM32L4xx_HAL_Driver/Src/stm32l4xx_hal_dma.c **** 
 259:../Drivers/STM32L4xx_HAL_Driver/Src/stm32l4xx_hal_dma.c ****       /* Configure request selection for DMA1 Channelx */
 260:../Drivers/STM32L4xx_HAL_Driver/Src/stm32l4xx_hal_dma.c ****       DMA1_CSELR->CSELR |= (uint32_t) (hdma->Init.Request << (hdma->ChannelIndex & 0x1cU));
 261:../Drivers/STM32L4xx_HAL_Driver/Src/stm32l4xx_hal_dma.c ****     }
 262:../Drivers/STM32L4xx_HAL_Driver/Src/stm32l4xx_hal_dma.c ****     else /* DMA2 */
 263:../Drivers/STM32L4xx_HAL_Driver/Src/stm32l4xx_hal_dma.c ****     {
 264:../Drivers/STM32L4xx_HAL_Driver/Src/stm32l4xx_hal_dma.c ****       /* Reset request selection for DMA2 Channelx */
 265:../Drivers/STM32L4xx_HAL_Driver/Src/stm32l4xx_hal_dma.c ****       DMA2_CSELR->CSELR &= ~(DMA_CSELR_C1S << (hdma->ChannelIndex & 0x1cU));
 131              		.loc 1 265 7 is_stmt 1 view .LVU46
 132              		.loc 1 265 25 is_stmt 0 view .LVU47
 133 0062 2549     		ldr	r1, .L9+12
ARM GAS  C:\Users\hoodc\AppData\Local\Temp\cc4eu5v8.s 			page 8


 134 0064 D1F8A824 		ldr	r2, [r1, #1192]
 135              		.loc 1 265 67 view .LVU48
 136 0068 586C     		ldr	r0, [r3, #68]
 137              	.LVL7:
 138              		.loc 1 265 67 view .LVU49
 139 006a 00F01C0C 		and	ip, r0, #28
 140              		.loc 1 265 44 view .LVU50
 141 006e 0F20     		movs	r0, #15
 142 0070 00FA0CF0 		lsl	r0, r0, ip
 143              		.loc 1 265 25 view .LVU51
 144 0074 22EA0002 		bic	r2, r2, r0
 145 0078 C1F8A824 		str	r2, [r1, #1192]
 266:../Drivers/STM32L4xx_HAL_Driver/Src/stm32l4xx_hal_dma.c **** 
 267:../Drivers/STM32L4xx_HAL_Driver/Src/stm32l4xx_hal_dma.c ****       /* Configure request selection for DMA2 Channelx */
 268:../Drivers/STM32L4xx_HAL_Driver/Src/stm32l4xx_hal_dma.c ****       DMA2_CSELR->CSELR |= (uint32_t) (hdma->Init.Request << (hdma->ChannelIndex & 0x1cU));
 146              		.loc 1 268 7 is_stmt 1 view .LVU52
 147              		.loc 1 268 25 is_stmt 0 view .LVU53
 148 007c D1F8A844 		ldr	r4, [r1, #1192]
 149              		.loc 1 268 82 view .LVU54
 150 0080 5A6C     		ldr	r2, [r3, #68]
 151 0082 02F01C00 		and	r0, r2, #28
 152              		.loc 1 268 59 view .LVU55
 153 0086 5A68     		ldr	r2, [r3, #4]
 154 0088 8240     		lsls	r2, r2, r0
 155              		.loc 1 268 25 view .LVU56
 156 008a 2243     		orrs	r2, r2, r4
 157 008c C1F8A824 		str	r2, [r1, #1192]
 158              	.L5:
 269:../Drivers/STM32L4xx_HAL_Driver/Src/stm32l4xx_hal_dma.c ****     }
 270:../Drivers/STM32L4xx_HAL_Driver/Src/stm32l4xx_hal_dma.c ****   }
 271:../Drivers/STM32L4xx_HAL_Driver/Src/stm32l4xx_hal_dma.c **** 
 272:../Drivers/STM32L4xx_HAL_Driver/Src/stm32l4xx_hal_dma.c **** #endif /* STM32L431xx || STM32L432xx || STM32L433xx || STM32L442xx || STM32L443xx */
 273:../Drivers/STM32L4xx_HAL_Driver/Src/stm32l4xx_hal_dma.c ****        /* STM32L471xx || STM32L475xx || STM32L476xx || STM32L442xx || STM32L486xx */
 274:../Drivers/STM32L4xx_HAL_Driver/Src/stm32l4xx_hal_dma.c ****        /* STM32L496xx || STM32L4A6xx                                              */
 275:../Drivers/STM32L4xx_HAL_Driver/Src/stm32l4xx_hal_dma.c **** 
 276:../Drivers/STM32L4xx_HAL_Driver/Src/stm32l4xx_hal_dma.c ****   /* Initialise the error code */
 277:../Drivers/STM32L4xx_HAL_Driver/Src/stm32l4xx_hal_dma.c ****   hdma->ErrorCode = HAL_DMA_ERROR_NONE;
 159              		.loc 1 277 3 is_stmt 1 view .LVU57
 160              		.loc 1 277 19 is_stmt 0 view .LVU58
 161 0090 0020     		movs	r0, #0
 162 0092 D863     		str	r0, [r3, #60]
 278:../Drivers/STM32L4xx_HAL_Driver/Src/stm32l4xx_hal_dma.c **** 
 279:../Drivers/STM32L4xx_HAL_Driver/Src/stm32l4xx_hal_dma.c ****   /* Initialize the DMA state*/
 280:../Drivers/STM32L4xx_HAL_Driver/Src/stm32l4xx_hal_dma.c ****   hdma->State = HAL_DMA_STATE_READY;
 163              		.loc 1 280 3 is_stmt 1 view .LVU59
 164              		.loc 1 280 15 is_stmt 0 view .LVU60
 165 0094 0122     		movs	r2, #1
 166 0096 83F82520 		strb	r2, [r3, #37]
 281:../Drivers/STM32L4xx_HAL_Driver/Src/stm32l4xx_hal_dma.c **** 
 282:../Drivers/STM32L4xx_HAL_Driver/Src/stm32l4xx_hal_dma.c ****   /* Allocate lock resource and initialize it */
 283:../Drivers/STM32L4xx_HAL_Driver/Src/stm32l4xx_hal_dma.c ****   hdma->Lock = HAL_UNLOCKED;
 167              		.loc 1 283 3 is_stmt 1 view .LVU61
 168              		.loc 1 283 14 is_stmt 0 view .LVU62
 169 009a 83F82400 		strb	r0, [r3, #36]
 284:../Drivers/STM32L4xx_HAL_Driver/Src/stm32l4xx_hal_dma.c **** 
 285:../Drivers/STM32L4xx_HAL_Driver/Src/stm32l4xx_hal_dma.c ****   return HAL_OK;
 170              		.loc 1 285 3 is_stmt 1 view .LVU63
ARM GAS  C:\Users\hoodc\AppData\Local\Temp\cc4eu5v8.s 			page 9


 171              	.L2:
 286:../Drivers/STM32L4xx_HAL_Driver/Src/stm32l4xx_hal_dma.c **** }
 172              		.loc 1 286 1 is_stmt 0 view .LVU64
 173 009e 10BC     		pop	{r4}
 174              	.LCFI1:
 175              		.cfi_remember_state
 176              		.cfi_restore 4
 177              		.cfi_def_cfa_offset 0
 178 00a0 7047     		bx	lr
 179              	.L3:
 180              	.LCFI2:
 181              		.cfi_restore_state
 185:../Drivers/STM32L4xx_HAL_Driver/Src/stm32l4xx_hal_dma.c ****     hdma->DmaBaseAddress = DMA2;
 182              		.loc 1 185 5 is_stmt 1 view .LVU65
 185:../Drivers/STM32L4xx_HAL_Driver/Src/stm32l4xx_hal_dma.c ****     hdma->DmaBaseAddress = DMA2;
 183              		.loc 1 185 53 is_stmt 0 view .LVU66
 184 00a2 164A     		ldr	r2, .L9+16
 185 00a4 0244     		add	r2, r2, r0
 185:../Drivers/STM32L4xx_HAL_Driver/Src/stm32l4xx_hal_dma.c ****     hdma->DmaBaseAddress = DMA2;
 186              		.loc 1 185 80 view .LVU67
 187 00a6 1349     		ldr	r1, .L9+8
 188 00a8 A1FB0212 		umull	r1, r2, r1, r2
 189 00ac 1209     		lsrs	r2, r2, #4
 185:../Drivers/STM32L4xx_HAL_Driver/Src/stm32l4xx_hal_dma.c ****     hdma->DmaBaseAddress = DMA2;
 190              		.loc 1 185 135 view .LVU68
 191 00ae 9200     		lsls	r2, r2, #2
 185:../Drivers/STM32L4xx_HAL_Driver/Src/stm32l4xx_hal_dma.c ****     hdma->DmaBaseAddress = DMA2;
 192              		.loc 1 185 24 view .LVU69
 193 00b0 5A64     		str	r2, [r3, #68]
 186:../Drivers/STM32L4xx_HAL_Driver/Src/stm32l4xx_hal_dma.c ****   }
 194              		.loc 1 186 5 is_stmt 1 view .LVU70
 186:../Drivers/STM32L4xx_HAL_Driver/Src/stm32l4xx_hal_dma.c ****   }
 195              		.loc 1 186 26 is_stmt 0 view .LVU71
 196 00b2 134A     		ldr	r2, .L9+20
 197 00b4 1A64     		str	r2, [r3, #64]
 198 00b6 B5E7     		b	.L4
 199              	.LVL8:
 200              	.L8:
 257:../Drivers/STM32L4xx_HAL_Driver/Src/stm32l4xx_hal_dma.c **** 
 201              		.loc 1 257 7 is_stmt 1 view .LVU72
 257:../Drivers/STM32L4xx_HAL_Driver/Src/stm32l4xx_hal_dma.c **** 
 202              		.loc 1 257 25 is_stmt 0 view .LVU73
 203 00b8 1146     		mov	r1, r2
 204 00ba D2F8A820 		ldr	r2, [r2, #168]
 257:../Drivers/STM32L4xx_HAL_Driver/Src/stm32l4xx_hal_dma.c **** 
 205              		.loc 1 257 67 view .LVU74
 206 00be 586C     		ldr	r0, [r3, #68]
 207              	.LVL9:
 257:../Drivers/STM32L4xx_HAL_Driver/Src/stm32l4xx_hal_dma.c **** 
 208              		.loc 1 257 67 view .LVU75
 209 00c0 00F01C04 		and	r4, r0, #28
 257:../Drivers/STM32L4xx_HAL_Driver/Src/stm32l4xx_hal_dma.c **** 
 210              		.loc 1 257 44 view .LVU76
 211 00c4 0F20     		movs	r0, #15
 212 00c6 A040     		lsls	r0, r0, r4
 257:../Drivers/STM32L4xx_HAL_Driver/Src/stm32l4xx_hal_dma.c **** 
 213              		.loc 1 257 25 view .LVU77
ARM GAS  C:\Users\hoodc\AppData\Local\Temp\cc4eu5v8.s 			page 10


 214 00c8 22EA0002 		bic	r2, r2, r0
 215 00cc C1F8A820 		str	r2, [r1, #168]
 260:../Drivers/STM32L4xx_HAL_Driver/Src/stm32l4xx_hal_dma.c ****     }
 216              		.loc 1 260 7 is_stmt 1 view .LVU78
 260:../Drivers/STM32L4xx_HAL_Driver/Src/stm32l4xx_hal_dma.c ****     }
 217              		.loc 1 260 25 is_stmt 0 view .LVU79
 218 00d0 D1F8A840 		ldr	r4, [r1, #168]
 260:../Drivers/STM32L4xx_HAL_Driver/Src/stm32l4xx_hal_dma.c ****     }
 219              		.loc 1 260 82 view .LVU80
 220 00d4 5A6C     		ldr	r2, [r3, #68]
 221 00d6 02F01C00 		and	r0, r2, #28
 260:../Drivers/STM32L4xx_HAL_Driver/Src/stm32l4xx_hal_dma.c ****     }
 222              		.loc 1 260 59 view .LVU81
 223 00da 5A68     		ldr	r2, [r3, #4]
 224 00dc 8240     		lsls	r2, r2, r0
 260:../Drivers/STM32L4xx_HAL_Driver/Src/stm32l4xx_hal_dma.c ****     }
 225              		.loc 1 260 25 view .LVU82
 226 00de 2243     		orrs	r2, r2, r4
 227 00e0 C1F8A820 		str	r2, [r1, #168]
 228 00e4 D4E7     		b	.L5
 229              	.LVL10:
 230              	.L7:
 160:../Drivers/STM32L4xx_HAL_Driver/Src/stm32l4xx_hal_dma.c ****   }
 231              		.loc 1 160 12 view .LVU83
 232 00e6 0120     		movs	r0, #1
 233              	.LVL11:
 160:../Drivers/STM32L4xx_HAL_Driver/Src/stm32l4xx_hal_dma.c ****   }
 234              		.loc 1 160 12 view .LVU84
 235 00e8 D9E7     		b	.L2
 236              	.L10:
 237 00ea 00BF     		.align	2
 238              	.L9:
 239 00ec 07040240 		.word	1073873927
 240 00f0 F8FFFDBF 		.word	-1073872904
 241 00f4 CDCCCCCC 		.word	-858993459
 242 00f8 00000240 		.word	1073872896
 243 00fc F8FBFDBF 		.word	-1073873928
 244 0100 00040240 		.word	1073873920
 245              		.cfi_endproc
 246              	.LFE133:
 247              		.size	HAL_DMA_Init, .-HAL_DMA_Init
 248              		.align	1
 249              		.global	HAL_DMA_DeInit
 250              		.syntax unified
 251              		.thumb
 252              		.thumb_func
 253              		.fpu softvfp
 254              		.type	HAL_DMA_DeInit, %function
 255              	HAL_DMA_DeInit:
 256              	.LVL12:
 257              	.LFB134:
 287:../Drivers/STM32L4xx_HAL_Driver/Src/stm32l4xx_hal_dma.c **** 
 288:../Drivers/STM32L4xx_HAL_Driver/Src/stm32l4xx_hal_dma.c **** /**
 289:../Drivers/STM32L4xx_HAL_Driver/Src/stm32l4xx_hal_dma.c ****   * @brief  DeInitialize the DMA peripheral.
 290:../Drivers/STM32L4xx_HAL_Driver/Src/stm32l4xx_hal_dma.c ****   * @param  hdma pointer to a DMA_HandleTypeDef structure that contains
 291:../Drivers/STM32L4xx_HAL_Driver/Src/stm32l4xx_hal_dma.c ****   *               the configuration information for the specified DMA Channel.
 292:../Drivers/STM32L4xx_HAL_Driver/Src/stm32l4xx_hal_dma.c ****   * @retval HAL status
ARM GAS  C:\Users\hoodc\AppData\Local\Temp\cc4eu5v8.s 			page 11


 293:../Drivers/STM32L4xx_HAL_Driver/Src/stm32l4xx_hal_dma.c ****   */
 294:../Drivers/STM32L4xx_HAL_Driver/Src/stm32l4xx_hal_dma.c **** HAL_StatusTypeDef HAL_DMA_DeInit(DMA_HandleTypeDef *hdma)
 295:../Drivers/STM32L4xx_HAL_Driver/Src/stm32l4xx_hal_dma.c **** {
 258              		.loc 1 295 1 is_stmt 1 view -0
 259              		.cfi_startproc
 260              		@ args = 0, pretend = 0, frame = 0
 261              		@ frame_needed = 0, uses_anonymous_args = 0
 262              		@ link register save eliminated.
 263              		.loc 1 295 1 is_stmt 0 view .LVU86
 264 0104 10B4     		push	{r4}
 265              	.LCFI3:
 266              		.cfi_def_cfa_offset 4
 267              		.cfi_offset 4, -4
 296:../Drivers/STM32L4xx_HAL_Driver/Src/stm32l4xx_hal_dma.c **** 
 297:../Drivers/STM32L4xx_HAL_Driver/Src/stm32l4xx_hal_dma.c ****   /* Check the DMA handle allocation */
 298:../Drivers/STM32L4xx_HAL_Driver/Src/stm32l4xx_hal_dma.c ****   if (NULL == hdma )
 268              		.loc 1 298 3 is_stmt 1 view .LVU87
 269              		.loc 1 298 6 is_stmt 0 view .LVU88
 270 0106 0346     		mov	r3, r0
 271 0108 0028     		cmp	r0, #0
 272 010a 4FD0     		beq	.L17
 299:../Drivers/STM32L4xx_HAL_Driver/Src/stm32l4xx_hal_dma.c ****   {
 300:../Drivers/STM32L4xx_HAL_Driver/Src/stm32l4xx_hal_dma.c ****     return HAL_ERROR;
 301:../Drivers/STM32L4xx_HAL_Driver/Src/stm32l4xx_hal_dma.c ****   }
 302:../Drivers/STM32L4xx_HAL_Driver/Src/stm32l4xx_hal_dma.c **** 
 303:../Drivers/STM32L4xx_HAL_Driver/Src/stm32l4xx_hal_dma.c ****   /* Check the parameters */
 304:../Drivers/STM32L4xx_HAL_Driver/Src/stm32l4xx_hal_dma.c ****   assert_param(IS_DMA_ALL_INSTANCE(hdma->Instance));
 273              		.loc 1 304 3 is_stmt 1 view .LVU89
 305:../Drivers/STM32L4xx_HAL_Driver/Src/stm32l4xx_hal_dma.c **** 
 306:../Drivers/STM32L4xx_HAL_Driver/Src/stm32l4xx_hal_dma.c ****   /* Disable the selected DMA Channelx */
 307:../Drivers/STM32L4xx_HAL_Driver/Src/stm32l4xx_hal_dma.c ****   __HAL_DMA_DISABLE(hdma);
 274              		.loc 1 307 3 view .LVU90
 275 010c 0168     		ldr	r1, [r0]
 276 010e 0A68     		ldr	r2, [r1]
 277 0110 22F00102 		bic	r2, r2, #1
 278 0114 0A60     		str	r2, [r1]
 308:../Drivers/STM32L4xx_HAL_Driver/Src/stm32l4xx_hal_dma.c **** 
 309:../Drivers/STM32L4xx_HAL_Driver/Src/stm32l4xx_hal_dma.c ****   /* Compute the channel index */
 310:../Drivers/STM32L4xx_HAL_Driver/Src/stm32l4xx_hal_dma.c ****   if ((uint32_t)(hdma->Instance) < (uint32_t)(DMA2_Channel1))
 279              		.loc 1 310 3 view .LVU91
 280              		.loc 1 310 22 is_stmt 0 view .LVU92
 281 0116 0168     		ldr	r1, [r0]
 282              		.loc 1 310 6 view .LVU93
 283 0118 254A     		ldr	r2, .L19
 284 011a 9142     		cmp	r1, r2
 285 011c 2ED8     		bhi	.L13
 311:../Drivers/STM32L4xx_HAL_Driver/Src/stm32l4xx_hal_dma.c ****   {
 312:../Drivers/STM32L4xx_HAL_Driver/Src/stm32l4xx_hal_dma.c ****     /* DMA1 */
 313:../Drivers/STM32L4xx_HAL_Driver/Src/stm32l4xx_hal_dma.c ****     hdma->ChannelIndex = (((uint32_t)hdma->Instance - (uint32_t)DMA1_Channel1) / ((uint32_t)DMA1_Ch
 286              		.loc 1 313 5 is_stmt 1 view .LVU94
 287              		.loc 1 313 53 is_stmt 0 view .LVU95
 288 011e 254A     		ldr	r2, .L19+4
 289 0120 0A44     		add	r2, r2, r1
 290              		.loc 1 313 80 view .LVU96
 291 0122 2548     		ldr	r0, .L19+8
 292              	.LVL13:
 293              		.loc 1 313 80 view .LVU97
ARM GAS  C:\Users\hoodc\AppData\Local\Temp\cc4eu5v8.s 			page 12


 294 0124 A0FB0202 		umull	r0, r2, r0, r2
 295 0128 1209     		lsrs	r2, r2, #4
 296              		.loc 1 313 135 view .LVU98
 297 012a 9200     		lsls	r2, r2, #2
 298              		.loc 1 313 24 view .LVU99
 299 012c 5A64     		str	r2, [r3, #68]
 314:../Drivers/STM32L4xx_HAL_Driver/Src/stm32l4xx_hal_dma.c ****     hdma->DmaBaseAddress = DMA1;
 300              		.loc 1 314 5 is_stmt 1 view .LVU100
 301              		.loc 1 314 26 is_stmt 0 view .LVU101
 302 012e 234A     		ldr	r2, .L19+12
 303 0130 1A64     		str	r2, [r3, #64]
 304              	.L14:
 315:../Drivers/STM32L4xx_HAL_Driver/Src/stm32l4xx_hal_dma.c ****   }
 316:../Drivers/STM32L4xx_HAL_Driver/Src/stm32l4xx_hal_dma.c ****   else
 317:../Drivers/STM32L4xx_HAL_Driver/Src/stm32l4xx_hal_dma.c ****   {
 318:../Drivers/STM32L4xx_HAL_Driver/Src/stm32l4xx_hal_dma.c ****     /* DMA2 */
 319:../Drivers/STM32L4xx_HAL_Driver/Src/stm32l4xx_hal_dma.c ****     hdma->ChannelIndex = (((uint32_t)hdma->Instance - (uint32_t)DMA2_Channel1) / ((uint32_t)DMA2_Ch
 320:../Drivers/STM32L4xx_HAL_Driver/Src/stm32l4xx_hal_dma.c ****     hdma->DmaBaseAddress = DMA2;
 321:../Drivers/STM32L4xx_HAL_Driver/Src/stm32l4xx_hal_dma.c ****   }
 322:../Drivers/STM32L4xx_HAL_Driver/Src/stm32l4xx_hal_dma.c **** 
 323:../Drivers/STM32L4xx_HAL_Driver/Src/stm32l4xx_hal_dma.c ****   /* Reset DMA Channel control register */
 324:../Drivers/STM32L4xx_HAL_Driver/Src/stm32l4xx_hal_dma.c ****   hdma->Instance->CCR = 0U;
 305              		.loc 1 324 3 is_stmt 1 view .LVU102
 306              		.loc 1 324 23 is_stmt 0 view .LVU103
 307 0132 0022     		movs	r2, #0
 308 0134 0A60     		str	r2, [r1]
 325:../Drivers/STM32L4xx_HAL_Driver/Src/stm32l4xx_hal_dma.c **** 
 326:../Drivers/STM32L4xx_HAL_Driver/Src/stm32l4xx_hal_dma.c ****   /* Clear all flags */
 327:../Drivers/STM32L4xx_HAL_Driver/Src/stm32l4xx_hal_dma.c ****   hdma->DmaBaseAddress->IFCR = (DMA_ISR_GIF1 << (hdma->ChannelIndex & 0x1CU));
 309              		.loc 1 327 3 is_stmt 1 view .LVU104
 310              		.loc 1 327 7 is_stmt 0 view .LVU105
 311 0136 186C     		ldr	r0, [r3, #64]
 312              		.loc 1 327 69 view .LVU106
 313 0138 5A6C     		ldr	r2, [r3, #68]
 314 013a 02F01C01 		and	r1, r2, #28
 315              		.loc 1 327 46 view .LVU107
 316 013e 0122     		movs	r2, #1
 317 0140 8A40     		lsls	r2, r2, r1
 318              		.loc 1 327 30 view .LVU108
 319 0142 4260     		str	r2, [r0, #4]
 328:../Drivers/STM32L4xx_HAL_Driver/Src/stm32l4xx_hal_dma.c **** 
 329:../Drivers/STM32L4xx_HAL_Driver/Src/stm32l4xx_hal_dma.c **** #if !defined (DMAMUX1)
 330:../Drivers/STM32L4xx_HAL_Driver/Src/stm32l4xx_hal_dma.c **** 
 331:../Drivers/STM32L4xx_HAL_Driver/Src/stm32l4xx_hal_dma.c ****   /* Reset DMA channel selection register */
 332:../Drivers/STM32L4xx_HAL_Driver/Src/stm32l4xx_hal_dma.c ****   if (DMA1 == hdma->DmaBaseAddress)
 320              		.loc 1 332 3 is_stmt 1 view .LVU109
 321              		.loc 1 332 6 is_stmt 0 view .LVU110
 322 0144 196C     		ldr	r1, [r3, #64]
 323 0146 1D4A     		ldr	r2, .L19+12
 324 0148 9142     		cmp	r1, r2
 325 014a 22D0     		beq	.L18
 333:../Drivers/STM32L4xx_HAL_Driver/Src/stm32l4xx_hal_dma.c ****   {
 334:../Drivers/STM32L4xx_HAL_Driver/Src/stm32l4xx_hal_dma.c ****     /* DMA1 */
 335:../Drivers/STM32L4xx_HAL_Driver/Src/stm32l4xx_hal_dma.c ****     DMA1_CSELR->CSELR &= ~(DMA_CSELR_C1S << (hdma->ChannelIndex & 0x1cU));
 336:../Drivers/STM32L4xx_HAL_Driver/Src/stm32l4xx_hal_dma.c ****   }
 337:../Drivers/STM32L4xx_HAL_Driver/Src/stm32l4xx_hal_dma.c ****   else
 338:../Drivers/STM32L4xx_HAL_Driver/Src/stm32l4xx_hal_dma.c ****   {
ARM GAS  C:\Users\hoodc\AppData\Local\Temp\cc4eu5v8.s 			page 13


 339:../Drivers/STM32L4xx_HAL_Driver/Src/stm32l4xx_hal_dma.c ****     /* DMA2 */
 340:../Drivers/STM32L4xx_HAL_Driver/Src/stm32l4xx_hal_dma.c ****     DMA2_CSELR->CSELR &= ~(DMA_CSELR_C1S << (hdma->ChannelIndex & 0x1cU));
 326              		.loc 1 340 5 is_stmt 1 view .LVU111
 327              		.loc 1 340 23 is_stmt 0 view .LVU112
 328 014c 1B4C     		ldr	r4, .L19+12
 329 014e D4F8A824 		ldr	r2, [r4, #1192]
 330              		.loc 1 340 65 view .LVU113
 331 0152 596C     		ldr	r1, [r3, #68]
 332 0154 01F01C00 		and	r0, r1, #28
 333              		.loc 1 340 42 view .LVU114
 334 0158 0F21     		movs	r1, #15
 335 015a 8140     		lsls	r1, r1, r0
 336              		.loc 1 340 23 view .LVU115
 337 015c 22EA0102 		bic	r2, r2, r1
 338 0160 C4F8A824 		str	r2, [r4, #1192]
 339              	.L16:
 341:../Drivers/STM32L4xx_HAL_Driver/Src/stm32l4xx_hal_dma.c ****   }
 342:../Drivers/STM32L4xx_HAL_Driver/Src/stm32l4xx_hal_dma.c **** #endif /* STM32L431xx || STM32L432xx || STM32L433xx || STM32L442xx || STM32L443xx */
 343:../Drivers/STM32L4xx_HAL_Driver/Src/stm32l4xx_hal_dma.c ****        /* STM32L471xx || STM32L475xx || STM32L476xx || STM32L442xx || STM32L486xx */
 344:../Drivers/STM32L4xx_HAL_Driver/Src/stm32l4xx_hal_dma.c ****        /* STM32L496xx || STM32L4A6xx                                              */
 345:../Drivers/STM32L4xx_HAL_Driver/Src/stm32l4xx_hal_dma.c **** 
 346:../Drivers/STM32L4xx_HAL_Driver/Src/stm32l4xx_hal_dma.c **** #if defined(DMAMUX1)
 347:../Drivers/STM32L4xx_HAL_Driver/Src/stm32l4xx_hal_dma.c **** 
 348:../Drivers/STM32L4xx_HAL_Driver/Src/stm32l4xx_hal_dma.c ****   /* Initialize parameters for DMAMUX channel :
 349:../Drivers/STM32L4xx_HAL_Driver/Src/stm32l4xx_hal_dma.c ****      DMAmuxChannel, DMAmuxChannelStatus and DMAmuxChannelStatusMask */
 350:../Drivers/STM32L4xx_HAL_Driver/Src/stm32l4xx_hal_dma.c **** 
 351:../Drivers/STM32L4xx_HAL_Driver/Src/stm32l4xx_hal_dma.c ****   DMA_CalcDMAMUXChannelBaseAndMask(hdma);
 352:../Drivers/STM32L4xx_HAL_Driver/Src/stm32l4xx_hal_dma.c **** 
 353:../Drivers/STM32L4xx_HAL_Driver/Src/stm32l4xx_hal_dma.c ****   /* Reset the DMAMUX channel that corresponds to the DMA channel */
 354:../Drivers/STM32L4xx_HAL_Driver/Src/stm32l4xx_hal_dma.c ****   hdma->DMAmuxChannel->CCR = 0U;
 355:../Drivers/STM32L4xx_HAL_Driver/Src/stm32l4xx_hal_dma.c **** 
 356:../Drivers/STM32L4xx_HAL_Driver/Src/stm32l4xx_hal_dma.c ****   /* Clear the DMAMUX synchro overrun flag */
 357:../Drivers/STM32L4xx_HAL_Driver/Src/stm32l4xx_hal_dma.c ****   hdma->DMAmuxChannelStatus->CFR = hdma->DMAmuxChannelStatusMask;
 358:../Drivers/STM32L4xx_HAL_Driver/Src/stm32l4xx_hal_dma.c **** 
 359:../Drivers/STM32L4xx_HAL_Driver/Src/stm32l4xx_hal_dma.c ****   /* Reset Request generator parameters if any */
 360:../Drivers/STM32L4xx_HAL_Driver/Src/stm32l4xx_hal_dma.c ****   if(((hdma->Init.Request >  0U) && (hdma->Init.Request <= DMA_REQUEST_GENERATOR3)))
 361:../Drivers/STM32L4xx_HAL_Driver/Src/stm32l4xx_hal_dma.c ****   {
 362:../Drivers/STM32L4xx_HAL_Driver/Src/stm32l4xx_hal_dma.c ****     /* Initialize parameters for DMAMUX request generator :
 363:../Drivers/STM32L4xx_HAL_Driver/Src/stm32l4xx_hal_dma.c ****        DMAmuxRequestGen, DMAmuxRequestGenStatus and DMAmuxRequestGenStatusMask
 364:../Drivers/STM32L4xx_HAL_Driver/Src/stm32l4xx_hal_dma.c ****     */
 365:../Drivers/STM32L4xx_HAL_Driver/Src/stm32l4xx_hal_dma.c ****     DMA_CalcDMAMUXRequestGenBaseAndMask(hdma);
 366:../Drivers/STM32L4xx_HAL_Driver/Src/stm32l4xx_hal_dma.c **** 
 367:../Drivers/STM32L4xx_HAL_Driver/Src/stm32l4xx_hal_dma.c ****     /* Reset the DMAMUX request generator register*/
 368:../Drivers/STM32L4xx_HAL_Driver/Src/stm32l4xx_hal_dma.c ****     hdma->DMAmuxRequestGen->RGCR = 0U;
 369:../Drivers/STM32L4xx_HAL_Driver/Src/stm32l4xx_hal_dma.c **** 
 370:../Drivers/STM32L4xx_HAL_Driver/Src/stm32l4xx_hal_dma.c ****     /* Clear the DMAMUX request generator overrun flag */
 371:../Drivers/STM32L4xx_HAL_Driver/Src/stm32l4xx_hal_dma.c ****     hdma->DMAmuxRequestGenStatus->RGCFR = hdma->DMAmuxRequestGenStatusMask;
 372:../Drivers/STM32L4xx_HAL_Driver/Src/stm32l4xx_hal_dma.c ****   }
 373:../Drivers/STM32L4xx_HAL_Driver/Src/stm32l4xx_hal_dma.c **** 
 374:../Drivers/STM32L4xx_HAL_Driver/Src/stm32l4xx_hal_dma.c ****   hdma->DMAmuxRequestGen = 0U;
 375:../Drivers/STM32L4xx_HAL_Driver/Src/stm32l4xx_hal_dma.c ****   hdma->DMAmuxRequestGenStatus = 0U;
 376:../Drivers/STM32L4xx_HAL_Driver/Src/stm32l4xx_hal_dma.c ****   hdma->DMAmuxRequestGenStatusMask = 0U;
 377:../Drivers/STM32L4xx_HAL_Driver/Src/stm32l4xx_hal_dma.c **** 
 378:../Drivers/STM32L4xx_HAL_Driver/Src/stm32l4xx_hal_dma.c **** #endif /* DMAMUX1 */
 379:../Drivers/STM32L4xx_HAL_Driver/Src/stm32l4xx_hal_dma.c **** 
 380:../Drivers/STM32L4xx_HAL_Driver/Src/stm32l4xx_hal_dma.c ****   /* Clean callbacks */
 381:../Drivers/STM32L4xx_HAL_Driver/Src/stm32l4xx_hal_dma.c ****   hdma->XferCpltCallback = NULL;
ARM GAS  C:\Users\hoodc\AppData\Local\Temp\cc4eu5v8.s 			page 14


 340              		.loc 1 381 3 is_stmt 1 view .LVU116
 341              		.loc 1 381 26 is_stmt 0 view .LVU117
 342 0164 0020     		movs	r0, #0
 343 0166 D862     		str	r0, [r3, #44]
 382:../Drivers/STM32L4xx_HAL_Driver/Src/stm32l4xx_hal_dma.c ****   hdma->XferHalfCpltCallback = NULL;
 344              		.loc 1 382 3 is_stmt 1 view .LVU118
 345              		.loc 1 382 30 is_stmt 0 view .LVU119
 346 0168 1863     		str	r0, [r3, #48]
 383:../Drivers/STM32L4xx_HAL_Driver/Src/stm32l4xx_hal_dma.c ****   hdma->XferErrorCallback = NULL;
 347              		.loc 1 383 3 is_stmt 1 view .LVU120
 348              		.loc 1 383 27 is_stmt 0 view .LVU121
 349 016a 5863     		str	r0, [r3, #52]
 384:../Drivers/STM32L4xx_HAL_Driver/Src/stm32l4xx_hal_dma.c ****   hdma->XferAbortCallback = NULL;
 350              		.loc 1 384 3 is_stmt 1 view .LVU122
 351              		.loc 1 384 27 is_stmt 0 view .LVU123
 352 016c 9863     		str	r0, [r3, #56]
 385:../Drivers/STM32L4xx_HAL_Driver/Src/stm32l4xx_hal_dma.c **** 
 386:../Drivers/STM32L4xx_HAL_Driver/Src/stm32l4xx_hal_dma.c ****   /* Initialise the error code */
 387:../Drivers/STM32L4xx_HAL_Driver/Src/stm32l4xx_hal_dma.c ****   hdma->ErrorCode = HAL_DMA_ERROR_NONE;
 353              		.loc 1 387 3 is_stmt 1 view .LVU124
 354              		.loc 1 387 19 is_stmt 0 view .LVU125
 355 016e D863     		str	r0, [r3, #60]
 388:../Drivers/STM32L4xx_HAL_Driver/Src/stm32l4xx_hal_dma.c **** 
 389:../Drivers/STM32L4xx_HAL_Driver/Src/stm32l4xx_hal_dma.c ****   /* Initialize the DMA state */
 390:../Drivers/STM32L4xx_HAL_Driver/Src/stm32l4xx_hal_dma.c ****   hdma->State = HAL_DMA_STATE_RESET;
 356              		.loc 1 390 3 is_stmt 1 view .LVU126
 357              		.loc 1 390 15 is_stmt 0 view .LVU127
 358 0170 83F82500 		strb	r0, [r3, #37]
 391:../Drivers/STM32L4xx_HAL_Driver/Src/stm32l4xx_hal_dma.c **** 
 392:../Drivers/STM32L4xx_HAL_Driver/Src/stm32l4xx_hal_dma.c ****   /* Release Lock */
 393:../Drivers/STM32L4xx_HAL_Driver/Src/stm32l4xx_hal_dma.c ****   __HAL_UNLOCK(hdma);
 359              		.loc 1 393 3 is_stmt 1 view .LVU128
 360              		.loc 1 393 3 view .LVU129
 361 0174 83F82400 		strb	r0, [r3, #36]
 362              		.loc 1 393 3 view .LVU130
 394:../Drivers/STM32L4xx_HAL_Driver/Src/stm32l4xx_hal_dma.c **** 
 395:../Drivers/STM32L4xx_HAL_Driver/Src/stm32l4xx_hal_dma.c ****   return HAL_OK;
 363              		.loc 1 395 3 view .LVU131
 364              	.L12:
 396:../Drivers/STM32L4xx_HAL_Driver/Src/stm32l4xx_hal_dma.c **** }
 365              		.loc 1 396 1 is_stmt 0 view .LVU132
 366 0178 10BC     		pop	{r4}
 367              	.LCFI4:
 368              		.cfi_remember_state
 369              		.cfi_restore 4
 370              		.cfi_def_cfa_offset 0
 371 017a 7047     		bx	lr
 372              	.LVL14:
 373              	.L13:
 374              	.LCFI5:
 375              		.cfi_restore_state
 319:../Drivers/STM32L4xx_HAL_Driver/Src/stm32l4xx_hal_dma.c ****     hdma->DmaBaseAddress = DMA2;
 376              		.loc 1 319 5 is_stmt 1 view .LVU133
 319:../Drivers/STM32L4xx_HAL_Driver/Src/stm32l4xx_hal_dma.c ****     hdma->DmaBaseAddress = DMA2;
 377              		.loc 1 319 53 is_stmt 0 view .LVU134
 378 017c 104A     		ldr	r2, .L19+16
 379 017e 0A44     		add	r2, r2, r1
ARM GAS  C:\Users\hoodc\AppData\Local\Temp\cc4eu5v8.s 			page 15


 319:../Drivers/STM32L4xx_HAL_Driver/Src/stm32l4xx_hal_dma.c ****     hdma->DmaBaseAddress = DMA2;
 380              		.loc 1 319 80 view .LVU135
 381 0180 0D48     		ldr	r0, .L19+8
 382              	.LVL15:
 319:../Drivers/STM32L4xx_HAL_Driver/Src/stm32l4xx_hal_dma.c ****     hdma->DmaBaseAddress = DMA2;
 383              		.loc 1 319 80 view .LVU136
 384 0182 A0FB0202 		umull	r0, r2, r0, r2
 385 0186 1209     		lsrs	r2, r2, #4
 319:../Drivers/STM32L4xx_HAL_Driver/Src/stm32l4xx_hal_dma.c ****     hdma->DmaBaseAddress = DMA2;
 386              		.loc 1 319 135 view .LVU137
 387 0188 9200     		lsls	r2, r2, #2
 319:../Drivers/STM32L4xx_HAL_Driver/Src/stm32l4xx_hal_dma.c ****     hdma->DmaBaseAddress = DMA2;
 388              		.loc 1 319 24 view .LVU138
 389 018a 5A64     		str	r2, [r3, #68]
 320:../Drivers/STM32L4xx_HAL_Driver/Src/stm32l4xx_hal_dma.c ****   }
 390              		.loc 1 320 5 is_stmt 1 view .LVU139
 320:../Drivers/STM32L4xx_HAL_Driver/Src/stm32l4xx_hal_dma.c ****   }
 391              		.loc 1 320 26 is_stmt 0 view .LVU140
 392 018c 0D4A     		ldr	r2, .L19+20
 393 018e 1A64     		str	r2, [r3, #64]
 394 0190 CFE7     		b	.L14
 395              	.L18:
 335:../Drivers/STM32L4xx_HAL_Driver/Src/stm32l4xx_hal_dma.c ****   }
 396              		.loc 1 335 5 is_stmt 1 view .LVU141
 335:../Drivers/STM32L4xx_HAL_Driver/Src/stm32l4xx_hal_dma.c ****   }
 397              		.loc 1 335 23 is_stmt 0 view .LVU142
 398 0192 1446     		mov	r4, r2
 399 0194 D2F8A820 		ldr	r2, [r2, #168]
 335:../Drivers/STM32L4xx_HAL_Driver/Src/stm32l4xx_hal_dma.c ****   }
 400              		.loc 1 335 65 view .LVU143
 401 0198 596C     		ldr	r1, [r3, #68]
 402 019a 01F01C00 		and	r0, r1, #28
 335:../Drivers/STM32L4xx_HAL_Driver/Src/stm32l4xx_hal_dma.c ****   }
 403              		.loc 1 335 42 view .LVU144
 404 019e 0F21     		movs	r1, #15
 405 01a0 8140     		lsls	r1, r1, r0
 335:../Drivers/STM32L4xx_HAL_Driver/Src/stm32l4xx_hal_dma.c ****   }
 406              		.loc 1 335 23 view .LVU145
 407 01a2 22EA0102 		bic	r2, r2, r1
 408 01a6 C4F8A820 		str	r2, [r4, #168]
 409 01aa DBE7     		b	.L16
 410              	.LVL16:
 411              	.L17:
 300:../Drivers/STM32L4xx_HAL_Driver/Src/stm32l4xx_hal_dma.c ****   }
 412              		.loc 1 300 12 view .LVU146
 413 01ac 0120     		movs	r0, #1
 414              	.LVL17:
 300:../Drivers/STM32L4xx_HAL_Driver/Src/stm32l4xx_hal_dma.c ****   }
 415              		.loc 1 300 12 view .LVU147
 416 01ae E3E7     		b	.L12
 417              	.L20:
 418              		.align	2
 419              	.L19:
 420 01b0 07040240 		.word	1073873927
 421 01b4 F8FFFDBF 		.word	-1073872904
 422 01b8 CDCCCCCC 		.word	-858993459
 423 01bc 00000240 		.word	1073872896
ARM GAS  C:\Users\hoodc\AppData\Local\Temp\cc4eu5v8.s 			page 16


 424 01c0 F8FBFDBF 		.word	-1073873928
 425 01c4 00040240 		.word	1073873920
 426              		.cfi_endproc
 427              	.LFE134:
 428              		.size	HAL_DMA_DeInit, .-HAL_DMA_DeInit
 429              		.align	1
 430              		.global	HAL_DMA_Start
 431              		.syntax unified
 432              		.thumb
 433              		.thumb_func
 434              		.fpu softvfp
 435              		.type	HAL_DMA_Start, %function
 436              	HAL_DMA_Start:
 437              	.LVL18:
 438              	.LFB135:
 397:../Drivers/STM32L4xx_HAL_Driver/Src/stm32l4xx_hal_dma.c **** 
 398:../Drivers/STM32L4xx_HAL_Driver/Src/stm32l4xx_hal_dma.c **** /**
 399:../Drivers/STM32L4xx_HAL_Driver/Src/stm32l4xx_hal_dma.c ****   * @}
 400:../Drivers/STM32L4xx_HAL_Driver/Src/stm32l4xx_hal_dma.c ****   */
 401:../Drivers/STM32L4xx_HAL_Driver/Src/stm32l4xx_hal_dma.c **** 
 402:../Drivers/STM32L4xx_HAL_Driver/Src/stm32l4xx_hal_dma.c **** /** @defgroup DMA_Exported_Functions_Group2 Input and Output operation functions
 403:../Drivers/STM32L4xx_HAL_Driver/Src/stm32l4xx_hal_dma.c ****  *  @brief   Input and Output operation functions
 404:../Drivers/STM32L4xx_HAL_Driver/Src/stm32l4xx_hal_dma.c ****  *
 405:../Drivers/STM32L4xx_HAL_Driver/Src/stm32l4xx_hal_dma.c **** @verbatim
 406:../Drivers/STM32L4xx_HAL_Driver/Src/stm32l4xx_hal_dma.c ****  ===============================================================================
 407:../Drivers/STM32L4xx_HAL_Driver/Src/stm32l4xx_hal_dma.c ****                       #####  IO operation functions  #####
 408:../Drivers/STM32L4xx_HAL_Driver/Src/stm32l4xx_hal_dma.c ****  ===============================================================================
 409:../Drivers/STM32L4xx_HAL_Driver/Src/stm32l4xx_hal_dma.c ****     [..]  This section provides functions allowing to:
 410:../Drivers/STM32L4xx_HAL_Driver/Src/stm32l4xx_hal_dma.c ****       (+) Configure the source, destination address and data length and Start DMA transfer
 411:../Drivers/STM32L4xx_HAL_Driver/Src/stm32l4xx_hal_dma.c ****       (+) Configure the source, destination address and data length and
 412:../Drivers/STM32L4xx_HAL_Driver/Src/stm32l4xx_hal_dma.c ****           Start DMA transfer with interrupt
 413:../Drivers/STM32L4xx_HAL_Driver/Src/stm32l4xx_hal_dma.c ****       (+) Abort DMA transfer
 414:../Drivers/STM32L4xx_HAL_Driver/Src/stm32l4xx_hal_dma.c ****       (+) Poll for transfer complete
 415:../Drivers/STM32L4xx_HAL_Driver/Src/stm32l4xx_hal_dma.c ****       (+) Handle DMA interrupt request
 416:../Drivers/STM32L4xx_HAL_Driver/Src/stm32l4xx_hal_dma.c **** 
 417:../Drivers/STM32L4xx_HAL_Driver/Src/stm32l4xx_hal_dma.c **** @endverbatim
 418:../Drivers/STM32L4xx_HAL_Driver/Src/stm32l4xx_hal_dma.c ****   * @{
 419:../Drivers/STM32L4xx_HAL_Driver/Src/stm32l4xx_hal_dma.c ****   */
 420:../Drivers/STM32L4xx_HAL_Driver/Src/stm32l4xx_hal_dma.c **** 
 421:../Drivers/STM32L4xx_HAL_Driver/Src/stm32l4xx_hal_dma.c **** /**
 422:../Drivers/STM32L4xx_HAL_Driver/Src/stm32l4xx_hal_dma.c ****   * @brief  Start the DMA Transfer.
 423:../Drivers/STM32L4xx_HAL_Driver/Src/stm32l4xx_hal_dma.c ****   * @param  hdma pointer to a DMA_HandleTypeDef structure that contains
 424:../Drivers/STM32L4xx_HAL_Driver/Src/stm32l4xx_hal_dma.c ****   *               the configuration information for the specified DMA Channel.
 425:../Drivers/STM32L4xx_HAL_Driver/Src/stm32l4xx_hal_dma.c ****   * @param  SrcAddress The source memory Buffer address
 426:../Drivers/STM32L4xx_HAL_Driver/Src/stm32l4xx_hal_dma.c ****   * @param  DstAddress The destination memory Buffer address
 427:../Drivers/STM32L4xx_HAL_Driver/Src/stm32l4xx_hal_dma.c ****   * @param  DataLength The length of data to be transferred from source to destination
 428:../Drivers/STM32L4xx_HAL_Driver/Src/stm32l4xx_hal_dma.c ****   * @retval HAL status
 429:../Drivers/STM32L4xx_HAL_Driver/Src/stm32l4xx_hal_dma.c ****   */
 430:../Drivers/STM32L4xx_HAL_Driver/Src/stm32l4xx_hal_dma.c **** HAL_StatusTypeDef HAL_DMA_Start(DMA_HandleTypeDef *hdma, uint32_t SrcAddress, uint32_t DstAddress, 
 431:../Drivers/STM32L4xx_HAL_Driver/Src/stm32l4xx_hal_dma.c **** {
 439              		.loc 1 431 1 is_stmt 1 view -0
 440              		.cfi_startproc
 441              		@ args = 0, pretend = 0, frame = 0
 442              		@ frame_needed = 0, uses_anonymous_args = 0
 443              		@ link register save eliminated.
 444              		.loc 1 431 1 is_stmt 0 view .LVU149
 445 01c8 30B4     		push	{r4, r5}
ARM GAS  C:\Users\hoodc\AppData\Local\Temp\cc4eu5v8.s 			page 17


 446              	.LCFI6:
 447              		.cfi_def_cfa_offset 8
 448              		.cfi_offset 4, -8
 449              		.cfi_offset 5, -4
 432:../Drivers/STM32L4xx_HAL_Driver/Src/stm32l4xx_hal_dma.c ****   HAL_StatusTypeDef status = HAL_OK;
 450              		.loc 1 432 3 is_stmt 1 view .LVU150
 451              	.LVL19:
 433:../Drivers/STM32L4xx_HAL_Driver/Src/stm32l4xx_hal_dma.c **** 
 434:../Drivers/STM32L4xx_HAL_Driver/Src/stm32l4xx_hal_dma.c ****   /* Check the parameters */
 435:../Drivers/STM32L4xx_HAL_Driver/Src/stm32l4xx_hal_dma.c ****   assert_param(IS_DMA_BUFFER_SIZE(DataLength));
 452              		.loc 1 435 3 view .LVU151
 436:../Drivers/STM32L4xx_HAL_Driver/Src/stm32l4xx_hal_dma.c **** 
 437:../Drivers/STM32L4xx_HAL_Driver/Src/stm32l4xx_hal_dma.c ****   /* Process locked */
 438:../Drivers/STM32L4xx_HAL_Driver/Src/stm32l4xx_hal_dma.c ****   __HAL_LOCK(hdma);
 453              		.loc 1 438 3 view .LVU152
 454              		.loc 1 438 3 view .LVU153
 455 01ca 90F824C0 		ldrb	ip, [r0, #36]	@ zero_extendqisi2
 456 01ce BCF1010F 		cmp	ip, #1
 457 01d2 37D0     		beq	.L26
 458              		.loc 1 438 3 discriminator 2 view .LVU154
 459 01d4 4FF0010C 		mov	ip, #1
 460 01d8 80F824C0 		strb	ip, [r0, #36]
 461              		.loc 1 438 3 discriminator 2 view .LVU155
 439:../Drivers/STM32L4xx_HAL_Driver/Src/stm32l4xx_hal_dma.c **** 
 440:../Drivers/STM32L4xx_HAL_Driver/Src/stm32l4xx_hal_dma.c ****   if(HAL_DMA_STATE_READY == hdma->State)
 462              		.loc 1 440 3 discriminator 2 view .LVU156
 463              		.loc 1 440 33 is_stmt 0 discriminator 2 view .LVU157
 464 01dc 90F825C0 		ldrb	ip, [r0, #37]	@ zero_extendqisi2
 465 01e0 5FFA8CFC 		uxtb	ip, ip
 466              		.loc 1 440 5 discriminator 2 view .LVU158
 467 01e4 BCF1010F 		cmp	ip, #1
 468 01e8 05D0     		beq	.L27
 441:../Drivers/STM32L4xx_HAL_Driver/Src/stm32l4xx_hal_dma.c ****   {
 442:../Drivers/STM32L4xx_HAL_Driver/Src/stm32l4xx_hal_dma.c ****     /* Change DMA peripheral state */
 443:../Drivers/STM32L4xx_HAL_Driver/Src/stm32l4xx_hal_dma.c ****     hdma->State = HAL_DMA_STATE_BUSY;
 444:../Drivers/STM32L4xx_HAL_Driver/Src/stm32l4xx_hal_dma.c ****     hdma->ErrorCode = HAL_DMA_ERROR_NONE;
 445:../Drivers/STM32L4xx_HAL_Driver/Src/stm32l4xx_hal_dma.c **** 
 446:../Drivers/STM32L4xx_HAL_Driver/Src/stm32l4xx_hal_dma.c ****     /* Disable the peripheral */
 447:../Drivers/STM32L4xx_HAL_Driver/Src/stm32l4xx_hal_dma.c ****     __HAL_DMA_DISABLE(hdma);
 448:../Drivers/STM32L4xx_HAL_Driver/Src/stm32l4xx_hal_dma.c **** 
 449:../Drivers/STM32L4xx_HAL_Driver/Src/stm32l4xx_hal_dma.c ****     /* Configure the source, destination address and the data length & clear flags*/
 450:../Drivers/STM32L4xx_HAL_Driver/Src/stm32l4xx_hal_dma.c ****     DMA_SetConfig(hdma, SrcAddress, DstAddress, DataLength);
 451:../Drivers/STM32L4xx_HAL_Driver/Src/stm32l4xx_hal_dma.c **** 
 452:../Drivers/STM32L4xx_HAL_Driver/Src/stm32l4xx_hal_dma.c ****     /* Enable the Peripheral */
 453:../Drivers/STM32L4xx_HAL_Driver/Src/stm32l4xx_hal_dma.c ****     __HAL_DMA_ENABLE(hdma);
 454:../Drivers/STM32L4xx_HAL_Driver/Src/stm32l4xx_hal_dma.c ****   }
 455:../Drivers/STM32L4xx_HAL_Driver/Src/stm32l4xx_hal_dma.c ****   else
 456:../Drivers/STM32L4xx_HAL_Driver/Src/stm32l4xx_hal_dma.c ****   {
 457:../Drivers/STM32L4xx_HAL_Driver/Src/stm32l4xx_hal_dma.c ****     /* Process Unlocked */
 458:../Drivers/STM32L4xx_HAL_Driver/Src/stm32l4xx_hal_dma.c ****     __HAL_UNLOCK(hdma);
 469              		.loc 1 458 5 is_stmt 1 view .LVU159
 470              		.loc 1 458 5 view .LVU160
 471 01ea 0023     		movs	r3, #0
 472              	.LVL20:
 473              		.loc 1 458 5 is_stmt 0 view .LVU161
 474 01ec 80F82430 		strb	r3, [r0, #36]
 475              		.loc 1 458 5 is_stmt 1 view .LVU162
ARM GAS  C:\Users\hoodc\AppData\Local\Temp\cc4eu5v8.s 			page 18


 459:../Drivers/STM32L4xx_HAL_Driver/Src/stm32l4xx_hal_dma.c ****     status = HAL_BUSY;
 476              		.loc 1 459 5 view .LVU163
 477              	.LVL21:
 478              		.loc 1 459 12 is_stmt 0 view .LVU164
 479 01f0 0220     		movs	r0, #2
 480              	.LVL22:
 481              	.L22:
 460:../Drivers/STM32L4xx_HAL_Driver/Src/stm32l4xx_hal_dma.c ****   }
 461:../Drivers/STM32L4xx_HAL_Driver/Src/stm32l4xx_hal_dma.c ****   return status;
 462:../Drivers/STM32L4xx_HAL_Driver/Src/stm32l4xx_hal_dma.c **** }
 482              		.loc 1 462 1 view .LVU165
 483 01f2 30BC     		pop	{r4, r5}
 484              	.LCFI7:
 485              		.cfi_remember_state
 486              		.cfi_restore 5
 487              		.cfi_restore 4
 488              		.cfi_def_cfa_offset 0
 489 01f4 7047     		bx	lr
 490              	.LVL23:
 491              	.L27:
 492              	.LCFI8:
 493              		.cfi_restore_state
 443:../Drivers/STM32L4xx_HAL_Driver/Src/stm32l4xx_hal_dma.c ****     hdma->ErrorCode = HAL_DMA_ERROR_NONE;
 494              		.loc 1 443 5 is_stmt 1 view .LVU166
 443:../Drivers/STM32L4xx_HAL_Driver/Src/stm32l4xx_hal_dma.c ****     hdma->ErrorCode = HAL_DMA_ERROR_NONE;
 495              		.loc 1 443 17 is_stmt 0 view .LVU167
 496 01f6 0224     		movs	r4, #2
 497 01f8 80F82540 		strb	r4, [r0, #37]
 444:../Drivers/STM32L4xx_HAL_Driver/Src/stm32l4xx_hal_dma.c **** 
 498              		.loc 1 444 5 is_stmt 1 view .LVU168
 444:../Drivers/STM32L4xx_HAL_Driver/Src/stm32l4xx_hal_dma.c **** 
 499              		.loc 1 444 21 is_stmt 0 view .LVU169
 500 01fc 0024     		movs	r4, #0
 501 01fe C463     		str	r4, [r0, #60]
 447:../Drivers/STM32L4xx_HAL_Driver/Src/stm32l4xx_hal_dma.c **** 
 502              		.loc 1 447 5 is_stmt 1 view .LVU170
 503 0200 0568     		ldr	r5, [r0]
 504 0202 2C68     		ldr	r4, [r5]
 505 0204 24F00104 		bic	r4, r4, #1
 506 0208 2C60     		str	r4, [r5]
 450:../Drivers/STM32L4xx_HAL_Driver/Src/stm32l4xx_hal_dma.c **** 
 507              		.loc 1 450 5 view .LVU171
 508              	.LVL24:
 509              	.LBB4:
 510              	.LBI4:
 463:../Drivers/STM32L4xx_HAL_Driver/Src/stm32l4xx_hal_dma.c **** 
 464:../Drivers/STM32L4xx_HAL_Driver/Src/stm32l4xx_hal_dma.c **** /**
 465:../Drivers/STM32L4xx_HAL_Driver/Src/stm32l4xx_hal_dma.c ****   * @brief  Start the DMA Transfer with interrupt enabled.
 466:../Drivers/STM32L4xx_HAL_Driver/Src/stm32l4xx_hal_dma.c ****   * @param  hdma pointer to a DMA_HandleTypeDef structure that contains
 467:../Drivers/STM32L4xx_HAL_Driver/Src/stm32l4xx_hal_dma.c ****   *               the configuration information for the specified DMA Channel.
 468:../Drivers/STM32L4xx_HAL_Driver/Src/stm32l4xx_hal_dma.c ****   * @param  SrcAddress The source memory Buffer address
 469:../Drivers/STM32L4xx_HAL_Driver/Src/stm32l4xx_hal_dma.c ****   * @param  DstAddress The destination memory Buffer address
 470:../Drivers/STM32L4xx_HAL_Driver/Src/stm32l4xx_hal_dma.c ****   * @param  DataLength The length of data to be transferred from source to destination
 471:../Drivers/STM32L4xx_HAL_Driver/Src/stm32l4xx_hal_dma.c ****   * @retval HAL status
 472:../Drivers/STM32L4xx_HAL_Driver/Src/stm32l4xx_hal_dma.c ****   */
 473:../Drivers/STM32L4xx_HAL_Driver/Src/stm32l4xx_hal_dma.c **** HAL_StatusTypeDef HAL_DMA_Start_IT(DMA_HandleTypeDef *hdma, uint32_t SrcAddress, uint32_t DstAddres
 474:../Drivers/STM32L4xx_HAL_Driver/Src/stm32l4xx_hal_dma.c **** {
ARM GAS  C:\Users\hoodc\AppData\Local\Temp\cc4eu5v8.s 			page 19


 475:../Drivers/STM32L4xx_HAL_Driver/Src/stm32l4xx_hal_dma.c ****   HAL_StatusTypeDef status = HAL_OK;
 476:../Drivers/STM32L4xx_HAL_Driver/Src/stm32l4xx_hal_dma.c **** 
 477:../Drivers/STM32L4xx_HAL_Driver/Src/stm32l4xx_hal_dma.c ****   /* Check the parameters */
 478:../Drivers/STM32L4xx_HAL_Driver/Src/stm32l4xx_hal_dma.c ****   assert_param(IS_DMA_BUFFER_SIZE(DataLength));
 479:../Drivers/STM32L4xx_HAL_Driver/Src/stm32l4xx_hal_dma.c **** 
 480:../Drivers/STM32L4xx_HAL_Driver/Src/stm32l4xx_hal_dma.c ****   /* Process locked */
 481:../Drivers/STM32L4xx_HAL_Driver/Src/stm32l4xx_hal_dma.c ****   __HAL_LOCK(hdma);
 482:../Drivers/STM32L4xx_HAL_Driver/Src/stm32l4xx_hal_dma.c **** 
 483:../Drivers/STM32L4xx_HAL_Driver/Src/stm32l4xx_hal_dma.c ****   if(HAL_DMA_STATE_READY == hdma->State)
 484:../Drivers/STM32L4xx_HAL_Driver/Src/stm32l4xx_hal_dma.c ****   {
 485:../Drivers/STM32L4xx_HAL_Driver/Src/stm32l4xx_hal_dma.c ****     /* Change DMA peripheral state */
 486:../Drivers/STM32L4xx_HAL_Driver/Src/stm32l4xx_hal_dma.c ****     hdma->State = HAL_DMA_STATE_BUSY;
 487:../Drivers/STM32L4xx_HAL_Driver/Src/stm32l4xx_hal_dma.c ****     hdma->ErrorCode = HAL_DMA_ERROR_NONE;
 488:../Drivers/STM32L4xx_HAL_Driver/Src/stm32l4xx_hal_dma.c **** 
 489:../Drivers/STM32L4xx_HAL_Driver/Src/stm32l4xx_hal_dma.c ****     /* Disable the peripheral */
 490:../Drivers/STM32L4xx_HAL_Driver/Src/stm32l4xx_hal_dma.c ****     __HAL_DMA_DISABLE(hdma);
 491:../Drivers/STM32L4xx_HAL_Driver/Src/stm32l4xx_hal_dma.c **** 
 492:../Drivers/STM32L4xx_HAL_Driver/Src/stm32l4xx_hal_dma.c ****     /* Configure the source, destination address and the data length & clear flags*/
 493:../Drivers/STM32L4xx_HAL_Driver/Src/stm32l4xx_hal_dma.c ****     DMA_SetConfig(hdma, SrcAddress, DstAddress, DataLength);
 494:../Drivers/STM32L4xx_HAL_Driver/Src/stm32l4xx_hal_dma.c **** 
 495:../Drivers/STM32L4xx_HAL_Driver/Src/stm32l4xx_hal_dma.c ****     /* Enable the transfer complete interrupt */
 496:../Drivers/STM32L4xx_HAL_Driver/Src/stm32l4xx_hal_dma.c ****     /* Enable the transfer Error interrupt */
 497:../Drivers/STM32L4xx_HAL_Driver/Src/stm32l4xx_hal_dma.c ****     if(NULL != hdma->XferHalfCpltCallback )
 498:../Drivers/STM32L4xx_HAL_Driver/Src/stm32l4xx_hal_dma.c ****     {
 499:../Drivers/STM32L4xx_HAL_Driver/Src/stm32l4xx_hal_dma.c ****       /* Enable the Half transfer complete interrupt as well */
 500:../Drivers/STM32L4xx_HAL_Driver/Src/stm32l4xx_hal_dma.c ****       __HAL_DMA_ENABLE_IT(hdma, (DMA_IT_TC | DMA_IT_HT | DMA_IT_TE));
 501:../Drivers/STM32L4xx_HAL_Driver/Src/stm32l4xx_hal_dma.c ****     }
 502:../Drivers/STM32L4xx_HAL_Driver/Src/stm32l4xx_hal_dma.c ****     else
 503:../Drivers/STM32L4xx_HAL_Driver/Src/stm32l4xx_hal_dma.c ****     {
 504:../Drivers/STM32L4xx_HAL_Driver/Src/stm32l4xx_hal_dma.c ****       __HAL_DMA_DISABLE_IT(hdma, DMA_IT_HT);
 505:../Drivers/STM32L4xx_HAL_Driver/Src/stm32l4xx_hal_dma.c ****       __HAL_DMA_ENABLE_IT(hdma, (DMA_IT_TC | DMA_IT_TE));
 506:../Drivers/STM32L4xx_HAL_Driver/Src/stm32l4xx_hal_dma.c ****     }
 507:../Drivers/STM32L4xx_HAL_Driver/Src/stm32l4xx_hal_dma.c **** 
 508:../Drivers/STM32L4xx_HAL_Driver/Src/stm32l4xx_hal_dma.c **** #ifdef DMAMUX1
 509:../Drivers/STM32L4xx_HAL_Driver/Src/stm32l4xx_hal_dma.c **** 
 510:../Drivers/STM32L4xx_HAL_Driver/Src/stm32l4xx_hal_dma.c ****     /* Check if DMAMUX Synchronization is enabled*/
 511:../Drivers/STM32L4xx_HAL_Driver/Src/stm32l4xx_hal_dma.c ****     if((hdma->DMAmuxChannel->CCR & DMAMUX_CxCR_SE) != 0U)
 512:../Drivers/STM32L4xx_HAL_Driver/Src/stm32l4xx_hal_dma.c ****     {
 513:../Drivers/STM32L4xx_HAL_Driver/Src/stm32l4xx_hal_dma.c ****       /* Enable DMAMUX sync overrun IT*/
 514:../Drivers/STM32L4xx_HAL_Driver/Src/stm32l4xx_hal_dma.c ****       hdma->DMAmuxChannel->CCR |= DMAMUX_CxCR_SOIE;
 515:../Drivers/STM32L4xx_HAL_Driver/Src/stm32l4xx_hal_dma.c ****     }
 516:../Drivers/STM32L4xx_HAL_Driver/Src/stm32l4xx_hal_dma.c **** 
 517:../Drivers/STM32L4xx_HAL_Driver/Src/stm32l4xx_hal_dma.c ****     if(hdma->DMAmuxRequestGen != 0U)
 518:../Drivers/STM32L4xx_HAL_Driver/Src/stm32l4xx_hal_dma.c ****     {
 519:../Drivers/STM32L4xx_HAL_Driver/Src/stm32l4xx_hal_dma.c ****       /* if using DMAMUX request generator, enable the DMAMUX request generator overrun IT*/
 520:../Drivers/STM32L4xx_HAL_Driver/Src/stm32l4xx_hal_dma.c ****       /* enable the request gen overrun IT*/
 521:../Drivers/STM32L4xx_HAL_Driver/Src/stm32l4xx_hal_dma.c ****       hdma->DMAmuxRequestGen->RGCR |= DMAMUX_RGxCR_OIE;
 522:../Drivers/STM32L4xx_HAL_Driver/Src/stm32l4xx_hal_dma.c ****     }
 523:../Drivers/STM32L4xx_HAL_Driver/Src/stm32l4xx_hal_dma.c **** 
 524:../Drivers/STM32L4xx_HAL_Driver/Src/stm32l4xx_hal_dma.c **** #endif /* DMAMUX1 */
 525:../Drivers/STM32L4xx_HAL_Driver/Src/stm32l4xx_hal_dma.c **** 
 526:../Drivers/STM32L4xx_HAL_Driver/Src/stm32l4xx_hal_dma.c ****     /* Enable the Peripheral */
 527:../Drivers/STM32L4xx_HAL_Driver/Src/stm32l4xx_hal_dma.c ****     __HAL_DMA_ENABLE(hdma);
 528:../Drivers/STM32L4xx_HAL_Driver/Src/stm32l4xx_hal_dma.c ****   }
 529:../Drivers/STM32L4xx_HAL_Driver/Src/stm32l4xx_hal_dma.c ****   else
 530:../Drivers/STM32L4xx_HAL_Driver/Src/stm32l4xx_hal_dma.c ****   {
 531:../Drivers/STM32L4xx_HAL_Driver/Src/stm32l4xx_hal_dma.c ****     /* Process Unlocked */
ARM GAS  C:\Users\hoodc\AppData\Local\Temp\cc4eu5v8.s 			page 20


 532:../Drivers/STM32L4xx_HAL_Driver/Src/stm32l4xx_hal_dma.c ****     __HAL_UNLOCK(hdma);
 533:../Drivers/STM32L4xx_HAL_Driver/Src/stm32l4xx_hal_dma.c **** 
 534:../Drivers/STM32L4xx_HAL_Driver/Src/stm32l4xx_hal_dma.c ****     /* Remain BUSY */
 535:../Drivers/STM32L4xx_HAL_Driver/Src/stm32l4xx_hal_dma.c ****     status = HAL_BUSY;
 536:../Drivers/STM32L4xx_HAL_Driver/Src/stm32l4xx_hal_dma.c ****   }
 537:../Drivers/STM32L4xx_HAL_Driver/Src/stm32l4xx_hal_dma.c ****   return status;
 538:../Drivers/STM32L4xx_HAL_Driver/Src/stm32l4xx_hal_dma.c **** }
 539:../Drivers/STM32L4xx_HAL_Driver/Src/stm32l4xx_hal_dma.c **** 
 540:../Drivers/STM32L4xx_HAL_Driver/Src/stm32l4xx_hal_dma.c **** /**
 541:../Drivers/STM32L4xx_HAL_Driver/Src/stm32l4xx_hal_dma.c ****   * @brief  Abort the DMA Transfer.
 542:../Drivers/STM32L4xx_HAL_Driver/Src/stm32l4xx_hal_dma.c ****   * @param  hdma pointer to a DMA_HandleTypeDef structure that contains
 543:../Drivers/STM32L4xx_HAL_Driver/Src/stm32l4xx_hal_dma.c ****   *               the configuration information for the specified DMA Channel.
 544:../Drivers/STM32L4xx_HAL_Driver/Src/stm32l4xx_hal_dma.c ****     * @retval HAL status
 545:../Drivers/STM32L4xx_HAL_Driver/Src/stm32l4xx_hal_dma.c ****   */
 546:../Drivers/STM32L4xx_HAL_Driver/Src/stm32l4xx_hal_dma.c **** HAL_StatusTypeDef HAL_DMA_Abort(DMA_HandleTypeDef *hdma)
 547:../Drivers/STM32L4xx_HAL_Driver/Src/stm32l4xx_hal_dma.c **** {
 548:../Drivers/STM32L4xx_HAL_Driver/Src/stm32l4xx_hal_dma.c ****   HAL_StatusTypeDef status = HAL_OK;
 549:../Drivers/STM32L4xx_HAL_Driver/Src/stm32l4xx_hal_dma.c **** 
 550:../Drivers/STM32L4xx_HAL_Driver/Src/stm32l4xx_hal_dma.c ****   /* Check the DMA peripheral state */
 551:../Drivers/STM32L4xx_HAL_Driver/Src/stm32l4xx_hal_dma.c ****   if(hdma->State != HAL_DMA_STATE_BUSY)
 552:../Drivers/STM32L4xx_HAL_Driver/Src/stm32l4xx_hal_dma.c ****   {
 553:../Drivers/STM32L4xx_HAL_Driver/Src/stm32l4xx_hal_dma.c ****     hdma->ErrorCode = HAL_DMA_ERROR_NO_XFER;
 554:../Drivers/STM32L4xx_HAL_Driver/Src/stm32l4xx_hal_dma.c **** 
 555:../Drivers/STM32L4xx_HAL_Driver/Src/stm32l4xx_hal_dma.c ****     /* Process Unlocked */
 556:../Drivers/STM32L4xx_HAL_Driver/Src/stm32l4xx_hal_dma.c ****     __HAL_UNLOCK(hdma);
 557:../Drivers/STM32L4xx_HAL_Driver/Src/stm32l4xx_hal_dma.c **** 
 558:../Drivers/STM32L4xx_HAL_Driver/Src/stm32l4xx_hal_dma.c ****     return HAL_ERROR;
 559:../Drivers/STM32L4xx_HAL_Driver/Src/stm32l4xx_hal_dma.c ****   }
 560:../Drivers/STM32L4xx_HAL_Driver/Src/stm32l4xx_hal_dma.c ****   else
 561:../Drivers/STM32L4xx_HAL_Driver/Src/stm32l4xx_hal_dma.c ****   {
 562:../Drivers/STM32L4xx_HAL_Driver/Src/stm32l4xx_hal_dma.c ****     /* Disable DMA IT */
 563:../Drivers/STM32L4xx_HAL_Driver/Src/stm32l4xx_hal_dma.c ****     __HAL_DMA_DISABLE_IT(hdma, (DMA_IT_TC | DMA_IT_HT | DMA_IT_TE));
 564:../Drivers/STM32L4xx_HAL_Driver/Src/stm32l4xx_hal_dma.c **** 
 565:../Drivers/STM32L4xx_HAL_Driver/Src/stm32l4xx_hal_dma.c **** #if defined(DMAMUX1)
 566:../Drivers/STM32L4xx_HAL_Driver/Src/stm32l4xx_hal_dma.c ****     /* disable the DMAMUX sync overrun IT*/
 567:../Drivers/STM32L4xx_HAL_Driver/Src/stm32l4xx_hal_dma.c ****     hdma->DMAmuxChannel->CCR &= ~DMAMUX_CxCR_SOIE;
 568:../Drivers/STM32L4xx_HAL_Driver/Src/stm32l4xx_hal_dma.c **** #endif /* DMAMUX1 */
 569:../Drivers/STM32L4xx_HAL_Driver/Src/stm32l4xx_hal_dma.c **** 
 570:../Drivers/STM32L4xx_HAL_Driver/Src/stm32l4xx_hal_dma.c ****     /* Disable the channel */
 571:../Drivers/STM32L4xx_HAL_Driver/Src/stm32l4xx_hal_dma.c ****     __HAL_DMA_DISABLE(hdma);
 572:../Drivers/STM32L4xx_HAL_Driver/Src/stm32l4xx_hal_dma.c **** 
 573:../Drivers/STM32L4xx_HAL_Driver/Src/stm32l4xx_hal_dma.c ****     /* Clear all flags */
 574:../Drivers/STM32L4xx_HAL_Driver/Src/stm32l4xx_hal_dma.c ****     hdma->DmaBaseAddress->IFCR = (DMA_ISR_GIF1 << (hdma->ChannelIndex & 0x1CU));
 575:../Drivers/STM32L4xx_HAL_Driver/Src/stm32l4xx_hal_dma.c **** 
 576:../Drivers/STM32L4xx_HAL_Driver/Src/stm32l4xx_hal_dma.c **** #if defined(DMAMUX1)
 577:../Drivers/STM32L4xx_HAL_Driver/Src/stm32l4xx_hal_dma.c ****     /* Clear the DMAMUX synchro overrun flag */
 578:../Drivers/STM32L4xx_HAL_Driver/Src/stm32l4xx_hal_dma.c ****     hdma->DMAmuxChannelStatus->CFR = hdma->DMAmuxChannelStatusMask;
 579:../Drivers/STM32L4xx_HAL_Driver/Src/stm32l4xx_hal_dma.c **** 
 580:../Drivers/STM32L4xx_HAL_Driver/Src/stm32l4xx_hal_dma.c ****     if(hdma->DMAmuxRequestGen != 0U)
 581:../Drivers/STM32L4xx_HAL_Driver/Src/stm32l4xx_hal_dma.c ****     {
 582:../Drivers/STM32L4xx_HAL_Driver/Src/stm32l4xx_hal_dma.c ****       /* if using DMAMUX request generator, disable the DMAMUX request generator overrun IT*/
 583:../Drivers/STM32L4xx_HAL_Driver/Src/stm32l4xx_hal_dma.c ****       /* disable the request gen overrun IT*/
 584:../Drivers/STM32L4xx_HAL_Driver/Src/stm32l4xx_hal_dma.c ****       hdma->DMAmuxRequestGen->RGCR &= ~DMAMUX_RGxCR_OIE;
 585:../Drivers/STM32L4xx_HAL_Driver/Src/stm32l4xx_hal_dma.c **** 
 586:../Drivers/STM32L4xx_HAL_Driver/Src/stm32l4xx_hal_dma.c ****       /* Clear the DMAMUX request generator overrun flag */
 587:../Drivers/STM32L4xx_HAL_Driver/Src/stm32l4xx_hal_dma.c ****       hdma->DMAmuxRequestGenStatus->RGCFR = hdma->DMAmuxRequestGenStatusMask;
 588:../Drivers/STM32L4xx_HAL_Driver/Src/stm32l4xx_hal_dma.c ****     }
ARM GAS  C:\Users\hoodc\AppData\Local\Temp\cc4eu5v8.s 			page 21


 589:../Drivers/STM32L4xx_HAL_Driver/Src/stm32l4xx_hal_dma.c **** 
 590:../Drivers/STM32L4xx_HAL_Driver/Src/stm32l4xx_hal_dma.c **** #endif /* DMAMUX1 */
 591:../Drivers/STM32L4xx_HAL_Driver/Src/stm32l4xx_hal_dma.c **** 
 592:../Drivers/STM32L4xx_HAL_Driver/Src/stm32l4xx_hal_dma.c ****     /* Change the DMA state */
 593:../Drivers/STM32L4xx_HAL_Driver/Src/stm32l4xx_hal_dma.c ****     hdma->State = HAL_DMA_STATE_READY;
 594:../Drivers/STM32L4xx_HAL_Driver/Src/stm32l4xx_hal_dma.c **** 
 595:../Drivers/STM32L4xx_HAL_Driver/Src/stm32l4xx_hal_dma.c ****     /* Process Unlocked */
 596:../Drivers/STM32L4xx_HAL_Driver/Src/stm32l4xx_hal_dma.c ****     __HAL_UNLOCK(hdma);
 597:../Drivers/STM32L4xx_HAL_Driver/Src/stm32l4xx_hal_dma.c **** 
 598:../Drivers/STM32L4xx_HAL_Driver/Src/stm32l4xx_hal_dma.c ****     return status;
 599:../Drivers/STM32L4xx_HAL_Driver/Src/stm32l4xx_hal_dma.c ****   }
 600:../Drivers/STM32L4xx_HAL_Driver/Src/stm32l4xx_hal_dma.c **** }
 601:../Drivers/STM32L4xx_HAL_Driver/Src/stm32l4xx_hal_dma.c **** 
 602:../Drivers/STM32L4xx_HAL_Driver/Src/stm32l4xx_hal_dma.c **** /**
 603:../Drivers/STM32L4xx_HAL_Driver/Src/stm32l4xx_hal_dma.c ****   * @brief  Aborts the DMA Transfer in Interrupt mode.
 604:../Drivers/STM32L4xx_HAL_Driver/Src/stm32l4xx_hal_dma.c ****   * @param  hdma pointer to a DMA_HandleTypeDef structure that contains
 605:../Drivers/STM32L4xx_HAL_Driver/Src/stm32l4xx_hal_dma.c ****   *                 the configuration information for the specified DMA Channel.
 606:../Drivers/STM32L4xx_HAL_Driver/Src/stm32l4xx_hal_dma.c ****   * @retval HAL status
 607:../Drivers/STM32L4xx_HAL_Driver/Src/stm32l4xx_hal_dma.c ****   */
 608:../Drivers/STM32L4xx_HAL_Driver/Src/stm32l4xx_hal_dma.c **** HAL_StatusTypeDef HAL_DMA_Abort_IT(DMA_HandleTypeDef *hdma)
 609:../Drivers/STM32L4xx_HAL_Driver/Src/stm32l4xx_hal_dma.c **** {
 610:../Drivers/STM32L4xx_HAL_Driver/Src/stm32l4xx_hal_dma.c ****   HAL_StatusTypeDef status = HAL_OK;
 611:../Drivers/STM32L4xx_HAL_Driver/Src/stm32l4xx_hal_dma.c **** 
 612:../Drivers/STM32L4xx_HAL_Driver/Src/stm32l4xx_hal_dma.c ****   if(HAL_DMA_STATE_BUSY != hdma->State)
 613:../Drivers/STM32L4xx_HAL_Driver/Src/stm32l4xx_hal_dma.c ****   {
 614:../Drivers/STM32L4xx_HAL_Driver/Src/stm32l4xx_hal_dma.c ****     /* no transfer ongoing */
 615:../Drivers/STM32L4xx_HAL_Driver/Src/stm32l4xx_hal_dma.c ****     hdma->ErrorCode = HAL_DMA_ERROR_NO_XFER;
 616:../Drivers/STM32L4xx_HAL_Driver/Src/stm32l4xx_hal_dma.c **** 
 617:../Drivers/STM32L4xx_HAL_Driver/Src/stm32l4xx_hal_dma.c ****     status = HAL_ERROR;
 618:../Drivers/STM32L4xx_HAL_Driver/Src/stm32l4xx_hal_dma.c ****   }
 619:../Drivers/STM32L4xx_HAL_Driver/Src/stm32l4xx_hal_dma.c ****   else
 620:../Drivers/STM32L4xx_HAL_Driver/Src/stm32l4xx_hal_dma.c ****   {
 621:../Drivers/STM32L4xx_HAL_Driver/Src/stm32l4xx_hal_dma.c ****     /* Disable DMA IT */
 622:../Drivers/STM32L4xx_HAL_Driver/Src/stm32l4xx_hal_dma.c ****     __HAL_DMA_DISABLE_IT(hdma, (DMA_IT_TC | DMA_IT_HT | DMA_IT_TE));
 623:../Drivers/STM32L4xx_HAL_Driver/Src/stm32l4xx_hal_dma.c **** 
 624:../Drivers/STM32L4xx_HAL_Driver/Src/stm32l4xx_hal_dma.c ****     /* Disable the channel */
 625:../Drivers/STM32L4xx_HAL_Driver/Src/stm32l4xx_hal_dma.c ****     __HAL_DMA_DISABLE(hdma);
 626:../Drivers/STM32L4xx_HAL_Driver/Src/stm32l4xx_hal_dma.c **** 
 627:../Drivers/STM32L4xx_HAL_Driver/Src/stm32l4xx_hal_dma.c **** #if defined(DMAMUX1)
 628:../Drivers/STM32L4xx_HAL_Driver/Src/stm32l4xx_hal_dma.c ****     /* disable the DMAMUX sync overrun IT*/
 629:../Drivers/STM32L4xx_HAL_Driver/Src/stm32l4xx_hal_dma.c ****     hdma->DMAmuxChannel->CCR &= ~DMAMUX_CxCR_SOIE;
 630:../Drivers/STM32L4xx_HAL_Driver/Src/stm32l4xx_hal_dma.c **** 
 631:../Drivers/STM32L4xx_HAL_Driver/Src/stm32l4xx_hal_dma.c ****     /* Clear all flags */
 632:../Drivers/STM32L4xx_HAL_Driver/Src/stm32l4xx_hal_dma.c ****     hdma->DmaBaseAddress->IFCR = (DMA_ISR_GIF1 << (hdma->ChannelIndex & 0x1CU));
 633:../Drivers/STM32L4xx_HAL_Driver/Src/stm32l4xx_hal_dma.c **** 
 634:../Drivers/STM32L4xx_HAL_Driver/Src/stm32l4xx_hal_dma.c ****     /* Clear the DMAMUX synchro overrun flag */
 635:../Drivers/STM32L4xx_HAL_Driver/Src/stm32l4xx_hal_dma.c ****     hdma->DMAmuxChannelStatus->CFR = hdma->DMAmuxChannelStatusMask;
 636:../Drivers/STM32L4xx_HAL_Driver/Src/stm32l4xx_hal_dma.c **** 
 637:../Drivers/STM32L4xx_HAL_Driver/Src/stm32l4xx_hal_dma.c ****     if(hdma->DMAmuxRequestGen != 0U)
 638:../Drivers/STM32L4xx_HAL_Driver/Src/stm32l4xx_hal_dma.c ****     {
 639:../Drivers/STM32L4xx_HAL_Driver/Src/stm32l4xx_hal_dma.c ****       /* if using DMAMUX request generator, disable the DMAMUX request generator overrun IT*/
 640:../Drivers/STM32L4xx_HAL_Driver/Src/stm32l4xx_hal_dma.c ****       /* disable the request gen overrun IT*/
 641:../Drivers/STM32L4xx_HAL_Driver/Src/stm32l4xx_hal_dma.c ****       hdma->DMAmuxRequestGen->RGCR &= ~DMAMUX_RGxCR_OIE;
 642:../Drivers/STM32L4xx_HAL_Driver/Src/stm32l4xx_hal_dma.c **** 
 643:../Drivers/STM32L4xx_HAL_Driver/Src/stm32l4xx_hal_dma.c ****       /* Clear the DMAMUX request generator overrun flag */
 644:../Drivers/STM32L4xx_HAL_Driver/Src/stm32l4xx_hal_dma.c ****       hdma->DMAmuxRequestGenStatus->RGCFR = hdma->DMAmuxRequestGenStatusMask;
 645:../Drivers/STM32L4xx_HAL_Driver/Src/stm32l4xx_hal_dma.c ****     }
ARM GAS  C:\Users\hoodc\AppData\Local\Temp\cc4eu5v8.s 			page 22


 646:../Drivers/STM32L4xx_HAL_Driver/Src/stm32l4xx_hal_dma.c **** 
 647:../Drivers/STM32L4xx_HAL_Driver/Src/stm32l4xx_hal_dma.c **** #else
 648:../Drivers/STM32L4xx_HAL_Driver/Src/stm32l4xx_hal_dma.c ****     /* Clear all flags */
 649:../Drivers/STM32L4xx_HAL_Driver/Src/stm32l4xx_hal_dma.c ****     hdma->DmaBaseAddress->IFCR = (DMA_ISR_GIF1 << (hdma->ChannelIndex & 0x1CU));
 650:../Drivers/STM32L4xx_HAL_Driver/Src/stm32l4xx_hal_dma.c **** #endif /* DMAMUX1 */
 651:../Drivers/STM32L4xx_HAL_Driver/Src/stm32l4xx_hal_dma.c **** 
 652:../Drivers/STM32L4xx_HAL_Driver/Src/stm32l4xx_hal_dma.c ****     /* Change the DMA state */
 653:../Drivers/STM32L4xx_HAL_Driver/Src/stm32l4xx_hal_dma.c ****     hdma->State = HAL_DMA_STATE_READY;
 654:../Drivers/STM32L4xx_HAL_Driver/Src/stm32l4xx_hal_dma.c **** 
 655:../Drivers/STM32L4xx_HAL_Driver/Src/stm32l4xx_hal_dma.c ****     /* Process Unlocked */
 656:../Drivers/STM32L4xx_HAL_Driver/Src/stm32l4xx_hal_dma.c ****     __HAL_UNLOCK(hdma);
 657:../Drivers/STM32L4xx_HAL_Driver/Src/stm32l4xx_hal_dma.c **** 
 658:../Drivers/STM32L4xx_HAL_Driver/Src/stm32l4xx_hal_dma.c ****     /* Call User Abort callback */
 659:../Drivers/STM32L4xx_HAL_Driver/Src/stm32l4xx_hal_dma.c ****     if(hdma->XferAbortCallback != NULL)
 660:../Drivers/STM32L4xx_HAL_Driver/Src/stm32l4xx_hal_dma.c ****     {
 661:../Drivers/STM32L4xx_HAL_Driver/Src/stm32l4xx_hal_dma.c ****       hdma->XferAbortCallback(hdma);
 662:../Drivers/STM32L4xx_HAL_Driver/Src/stm32l4xx_hal_dma.c ****     }
 663:../Drivers/STM32L4xx_HAL_Driver/Src/stm32l4xx_hal_dma.c ****   }
 664:../Drivers/STM32L4xx_HAL_Driver/Src/stm32l4xx_hal_dma.c ****   return status;
 665:../Drivers/STM32L4xx_HAL_Driver/Src/stm32l4xx_hal_dma.c **** }
 666:../Drivers/STM32L4xx_HAL_Driver/Src/stm32l4xx_hal_dma.c **** 
 667:../Drivers/STM32L4xx_HAL_Driver/Src/stm32l4xx_hal_dma.c **** /**
 668:../Drivers/STM32L4xx_HAL_Driver/Src/stm32l4xx_hal_dma.c ****   * @brief  Polling for transfer complete.
 669:../Drivers/STM32L4xx_HAL_Driver/Src/stm32l4xx_hal_dma.c ****   * @param  hdma pointer to a DMA_HandleTypeDef structure that contains
 670:../Drivers/STM32L4xx_HAL_Driver/Src/stm32l4xx_hal_dma.c ****   *                  the configuration information for the specified DMA Channel.
 671:../Drivers/STM32L4xx_HAL_Driver/Src/stm32l4xx_hal_dma.c ****   * @param  CompleteLevel Specifies the DMA level complete.
 672:../Drivers/STM32L4xx_HAL_Driver/Src/stm32l4xx_hal_dma.c ****   * @param  Timeout       Timeout duration.
 673:../Drivers/STM32L4xx_HAL_Driver/Src/stm32l4xx_hal_dma.c ****   * @retval HAL status
 674:../Drivers/STM32L4xx_HAL_Driver/Src/stm32l4xx_hal_dma.c ****   */
 675:../Drivers/STM32L4xx_HAL_Driver/Src/stm32l4xx_hal_dma.c **** HAL_StatusTypeDef HAL_DMA_PollForTransfer(DMA_HandleTypeDef *hdma, HAL_DMA_LevelCompleteTypeDef Com
 676:../Drivers/STM32L4xx_HAL_Driver/Src/stm32l4xx_hal_dma.c **** {
 677:../Drivers/STM32L4xx_HAL_Driver/Src/stm32l4xx_hal_dma.c ****   uint32_t temp;
 678:../Drivers/STM32L4xx_HAL_Driver/Src/stm32l4xx_hal_dma.c ****   uint32_t tickstart;
 679:../Drivers/STM32L4xx_HAL_Driver/Src/stm32l4xx_hal_dma.c **** 
 680:../Drivers/STM32L4xx_HAL_Driver/Src/stm32l4xx_hal_dma.c ****   if(HAL_DMA_STATE_BUSY != hdma->State)
 681:../Drivers/STM32L4xx_HAL_Driver/Src/stm32l4xx_hal_dma.c ****   {
 682:../Drivers/STM32L4xx_HAL_Driver/Src/stm32l4xx_hal_dma.c ****     /* no transfer ongoing */
 683:../Drivers/STM32L4xx_HAL_Driver/Src/stm32l4xx_hal_dma.c ****     hdma->ErrorCode = HAL_DMA_ERROR_NO_XFER;
 684:../Drivers/STM32L4xx_HAL_Driver/Src/stm32l4xx_hal_dma.c ****     __HAL_UNLOCK(hdma);
 685:../Drivers/STM32L4xx_HAL_Driver/Src/stm32l4xx_hal_dma.c ****     return HAL_ERROR;
 686:../Drivers/STM32L4xx_HAL_Driver/Src/stm32l4xx_hal_dma.c ****   }
 687:../Drivers/STM32L4xx_HAL_Driver/Src/stm32l4xx_hal_dma.c **** 
 688:../Drivers/STM32L4xx_HAL_Driver/Src/stm32l4xx_hal_dma.c ****   /* Polling mode not supported in circular mode */
 689:../Drivers/STM32L4xx_HAL_Driver/Src/stm32l4xx_hal_dma.c ****   if ((hdma->Instance->CCR & DMA_CCR_CIRC) != 0U)
 690:../Drivers/STM32L4xx_HAL_Driver/Src/stm32l4xx_hal_dma.c ****   {
 691:../Drivers/STM32L4xx_HAL_Driver/Src/stm32l4xx_hal_dma.c ****     hdma->ErrorCode = HAL_DMA_ERROR_NOT_SUPPORTED;
 692:../Drivers/STM32L4xx_HAL_Driver/Src/stm32l4xx_hal_dma.c ****     return HAL_ERROR;
 693:../Drivers/STM32L4xx_HAL_Driver/Src/stm32l4xx_hal_dma.c ****   }
 694:../Drivers/STM32L4xx_HAL_Driver/Src/stm32l4xx_hal_dma.c **** 
 695:../Drivers/STM32L4xx_HAL_Driver/Src/stm32l4xx_hal_dma.c ****   /* Get the level transfer complete flag */
 696:../Drivers/STM32L4xx_HAL_Driver/Src/stm32l4xx_hal_dma.c ****   if (HAL_DMA_FULL_TRANSFER == CompleteLevel)
 697:../Drivers/STM32L4xx_HAL_Driver/Src/stm32l4xx_hal_dma.c ****   {
 698:../Drivers/STM32L4xx_HAL_Driver/Src/stm32l4xx_hal_dma.c ****     /* Transfer Complete flag */
 699:../Drivers/STM32L4xx_HAL_Driver/Src/stm32l4xx_hal_dma.c ****     temp = DMA_FLAG_TC1 << (hdma->ChannelIndex & 0x1CU);
 700:../Drivers/STM32L4xx_HAL_Driver/Src/stm32l4xx_hal_dma.c ****   }
 701:../Drivers/STM32L4xx_HAL_Driver/Src/stm32l4xx_hal_dma.c ****   else
 702:../Drivers/STM32L4xx_HAL_Driver/Src/stm32l4xx_hal_dma.c ****   {
ARM GAS  C:\Users\hoodc\AppData\Local\Temp\cc4eu5v8.s 			page 23


 703:../Drivers/STM32L4xx_HAL_Driver/Src/stm32l4xx_hal_dma.c ****     /* Half Transfer Complete flag */
 704:../Drivers/STM32L4xx_HAL_Driver/Src/stm32l4xx_hal_dma.c ****     temp = DMA_FLAG_HT1 << (hdma->ChannelIndex & 0x1CU);
 705:../Drivers/STM32L4xx_HAL_Driver/Src/stm32l4xx_hal_dma.c ****   }
 706:../Drivers/STM32L4xx_HAL_Driver/Src/stm32l4xx_hal_dma.c **** 
 707:../Drivers/STM32L4xx_HAL_Driver/Src/stm32l4xx_hal_dma.c ****   /* Get tick */
 708:../Drivers/STM32L4xx_HAL_Driver/Src/stm32l4xx_hal_dma.c ****   tickstart = HAL_GetTick();
 709:../Drivers/STM32L4xx_HAL_Driver/Src/stm32l4xx_hal_dma.c **** 
 710:../Drivers/STM32L4xx_HAL_Driver/Src/stm32l4xx_hal_dma.c ****   while((hdma->DmaBaseAddress->ISR & temp) == 0U)
 711:../Drivers/STM32L4xx_HAL_Driver/Src/stm32l4xx_hal_dma.c ****   {
 712:../Drivers/STM32L4xx_HAL_Driver/Src/stm32l4xx_hal_dma.c ****     if((hdma->DmaBaseAddress->ISR & (DMA_FLAG_TE1 << (hdma->ChannelIndex& 0x1CU))) != 0U)
 713:../Drivers/STM32L4xx_HAL_Driver/Src/stm32l4xx_hal_dma.c ****     {
 714:../Drivers/STM32L4xx_HAL_Driver/Src/stm32l4xx_hal_dma.c ****       /* When a DMA transfer error occurs */
 715:../Drivers/STM32L4xx_HAL_Driver/Src/stm32l4xx_hal_dma.c ****       /* A hardware clear of its EN bits is performed */
 716:../Drivers/STM32L4xx_HAL_Driver/Src/stm32l4xx_hal_dma.c ****       /* Clear all flags */
 717:../Drivers/STM32L4xx_HAL_Driver/Src/stm32l4xx_hal_dma.c ****       hdma->DmaBaseAddress->IFCR = (DMA_ISR_GIF1 << (hdma->ChannelIndex & 0x1CU));
 718:../Drivers/STM32L4xx_HAL_Driver/Src/stm32l4xx_hal_dma.c **** 
 719:../Drivers/STM32L4xx_HAL_Driver/Src/stm32l4xx_hal_dma.c ****       /* Update error code */
 720:../Drivers/STM32L4xx_HAL_Driver/Src/stm32l4xx_hal_dma.c ****       hdma->ErrorCode = HAL_DMA_ERROR_TE;
 721:../Drivers/STM32L4xx_HAL_Driver/Src/stm32l4xx_hal_dma.c **** 
 722:../Drivers/STM32L4xx_HAL_Driver/Src/stm32l4xx_hal_dma.c ****       /* Change the DMA state */
 723:../Drivers/STM32L4xx_HAL_Driver/Src/stm32l4xx_hal_dma.c ****       hdma->State= HAL_DMA_STATE_READY;
 724:../Drivers/STM32L4xx_HAL_Driver/Src/stm32l4xx_hal_dma.c **** 
 725:../Drivers/STM32L4xx_HAL_Driver/Src/stm32l4xx_hal_dma.c ****       /* Process Unlocked */
 726:../Drivers/STM32L4xx_HAL_Driver/Src/stm32l4xx_hal_dma.c ****       __HAL_UNLOCK(hdma);
 727:../Drivers/STM32L4xx_HAL_Driver/Src/stm32l4xx_hal_dma.c **** 
 728:../Drivers/STM32L4xx_HAL_Driver/Src/stm32l4xx_hal_dma.c ****       return HAL_ERROR;
 729:../Drivers/STM32L4xx_HAL_Driver/Src/stm32l4xx_hal_dma.c ****     }
 730:../Drivers/STM32L4xx_HAL_Driver/Src/stm32l4xx_hal_dma.c ****     /* Check for the Timeout */
 731:../Drivers/STM32L4xx_HAL_Driver/Src/stm32l4xx_hal_dma.c ****     if(Timeout != HAL_MAX_DELAY)
 732:../Drivers/STM32L4xx_HAL_Driver/Src/stm32l4xx_hal_dma.c ****     {
 733:../Drivers/STM32L4xx_HAL_Driver/Src/stm32l4xx_hal_dma.c ****       if(((HAL_GetTick() - tickstart) > Timeout) ||  (Timeout == 0U))
 734:../Drivers/STM32L4xx_HAL_Driver/Src/stm32l4xx_hal_dma.c ****       {
 735:../Drivers/STM32L4xx_HAL_Driver/Src/stm32l4xx_hal_dma.c ****         /* Update error code */
 736:../Drivers/STM32L4xx_HAL_Driver/Src/stm32l4xx_hal_dma.c ****         hdma->ErrorCode = HAL_DMA_ERROR_TIMEOUT;
 737:../Drivers/STM32L4xx_HAL_Driver/Src/stm32l4xx_hal_dma.c **** 
 738:../Drivers/STM32L4xx_HAL_Driver/Src/stm32l4xx_hal_dma.c ****         /* Change the DMA state */
 739:../Drivers/STM32L4xx_HAL_Driver/Src/stm32l4xx_hal_dma.c ****         hdma->State = HAL_DMA_STATE_READY;
 740:../Drivers/STM32L4xx_HAL_Driver/Src/stm32l4xx_hal_dma.c **** 
 741:../Drivers/STM32L4xx_HAL_Driver/Src/stm32l4xx_hal_dma.c ****         /* Process Unlocked */
 742:../Drivers/STM32L4xx_HAL_Driver/Src/stm32l4xx_hal_dma.c ****         __HAL_UNLOCK(hdma);
 743:../Drivers/STM32L4xx_HAL_Driver/Src/stm32l4xx_hal_dma.c **** 
 744:../Drivers/STM32L4xx_HAL_Driver/Src/stm32l4xx_hal_dma.c ****         return HAL_ERROR;
 745:../Drivers/STM32L4xx_HAL_Driver/Src/stm32l4xx_hal_dma.c ****       }
 746:../Drivers/STM32L4xx_HAL_Driver/Src/stm32l4xx_hal_dma.c ****     }
 747:../Drivers/STM32L4xx_HAL_Driver/Src/stm32l4xx_hal_dma.c ****   }
 748:../Drivers/STM32L4xx_HAL_Driver/Src/stm32l4xx_hal_dma.c **** 
 749:../Drivers/STM32L4xx_HAL_Driver/Src/stm32l4xx_hal_dma.c **** #if defined(DMAMUX1)
 750:../Drivers/STM32L4xx_HAL_Driver/Src/stm32l4xx_hal_dma.c ****   /*Check for DMAMUX Request generator (if used) overrun status */
 751:../Drivers/STM32L4xx_HAL_Driver/Src/stm32l4xx_hal_dma.c ****   if(hdma->DMAmuxRequestGen != 0U)
 752:../Drivers/STM32L4xx_HAL_Driver/Src/stm32l4xx_hal_dma.c ****   {
 753:../Drivers/STM32L4xx_HAL_Driver/Src/stm32l4xx_hal_dma.c ****     /* if using DMAMUX request generator Check for DMAMUX request generator overrun */
 754:../Drivers/STM32L4xx_HAL_Driver/Src/stm32l4xx_hal_dma.c ****     if((hdma->DMAmuxRequestGenStatus->RGSR & hdma->DMAmuxRequestGenStatusMask) != 0U)
 755:../Drivers/STM32L4xx_HAL_Driver/Src/stm32l4xx_hal_dma.c ****     {
 756:../Drivers/STM32L4xx_HAL_Driver/Src/stm32l4xx_hal_dma.c ****       /* Disable the request gen overrun interrupt */
 757:../Drivers/STM32L4xx_HAL_Driver/Src/stm32l4xx_hal_dma.c ****       hdma->DMAmuxRequestGen->RGCR |= DMAMUX_RGxCR_OIE;
 758:../Drivers/STM32L4xx_HAL_Driver/Src/stm32l4xx_hal_dma.c **** 
 759:../Drivers/STM32L4xx_HAL_Driver/Src/stm32l4xx_hal_dma.c ****       /* Clear the DMAMUX request generator overrun flag */
ARM GAS  C:\Users\hoodc\AppData\Local\Temp\cc4eu5v8.s 			page 24


 760:../Drivers/STM32L4xx_HAL_Driver/Src/stm32l4xx_hal_dma.c ****       hdma->DMAmuxRequestGenStatus->RGCFR = hdma->DMAmuxRequestGenStatusMask;
 761:../Drivers/STM32L4xx_HAL_Driver/Src/stm32l4xx_hal_dma.c **** 
 762:../Drivers/STM32L4xx_HAL_Driver/Src/stm32l4xx_hal_dma.c ****       /* Update error code */
 763:../Drivers/STM32L4xx_HAL_Driver/Src/stm32l4xx_hal_dma.c ****       hdma->ErrorCode |= HAL_DMA_ERROR_REQGEN;
 764:../Drivers/STM32L4xx_HAL_Driver/Src/stm32l4xx_hal_dma.c ****     }
 765:../Drivers/STM32L4xx_HAL_Driver/Src/stm32l4xx_hal_dma.c ****   }
 766:../Drivers/STM32L4xx_HAL_Driver/Src/stm32l4xx_hal_dma.c **** 
 767:../Drivers/STM32L4xx_HAL_Driver/Src/stm32l4xx_hal_dma.c ****   /* Check for DMAMUX Synchronization overrun */
 768:../Drivers/STM32L4xx_HAL_Driver/Src/stm32l4xx_hal_dma.c ****   if((hdma->DMAmuxChannelStatus->CSR & hdma->DMAmuxChannelStatusMask) != 0U)
 769:../Drivers/STM32L4xx_HAL_Driver/Src/stm32l4xx_hal_dma.c ****   {
 770:../Drivers/STM32L4xx_HAL_Driver/Src/stm32l4xx_hal_dma.c ****     /* Clear the DMAMUX synchro overrun flag */
 771:../Drivers/STM32L4xx_HAL_Driver/Src/stm32l4xx_hal_dma.c ****     hdma->DMAmuxChannelStatus->CFR = hdma->DMAmuxChannelStatusMask;
 772:../Drivers/STM32L4xx_HAL_Driver/Src/stm32l4xx_hal_dma.c **** 
 773:../Drivers/STM32L4xx_HAL_Driver/Src/stm32l4xx_hal_dma.c ****     /* Update error code */
 774:../Drivers/STM32L4xx_HAL_Driver/Src/stm32l4xx_hal_dma.c ****     hdma->ErrorCode |= HAL_DMA_ERROR_SYNC;
 775:../Drivers/STM32L4xx_HAL_Driver/Src/stm32l4xx_hal_dma.c ****   }
 776:../Drivers/STM32L4xx_HAL_Driver/Src/stm32l4xx_hal_dma.c **** #endif /* DMAMUX1 */
 777:../Drivers/STM32L4xx_HAL_Driver/Src/stm32l4xx_hal_dma.c **** 
 778:../Drivers/STM32L4xx_HAL_Driver/Src/stm32l4xx_hal_dma.c ****   if(HAL_DMA_FULL_TRANSFER == CompleteLevel)
 779:../Drivers/STM32L4xx_HAL_Driver/Src/stm32l4xx_hal_dma.c ****   {
 780:../Drivers/STM32L4xx_HAL_Driver/Src/stm32l4xx_hal_dma.c ****     /* Clear the transfer complete flag */
 781:../Drivers/STM32L4xx_HAL_Driver/Src/stm32l4xx_hal_dma.c ****     hdma->DmaBaseAddress->IFCR = (DMA_FLAG_TC1 << (hdma->ChannelIndex& 0x1CU));
 782:../Drivers/STM32L4xx_HAL_Driver/Src/stm32l4xx_hal_dma.c **** 
 783:../Drivers/STM32L4xx_HAL_Driver/Src/stm32l4xx_hal_dma.c ****     /* The selected Channelx EN bit is cleared (DMA is disabled and
 784:../Drivers/STM32L4xx_HAL_Driver/Src/stm32l4xx_hal_dma.c ****     all transfers are complete) */
 785:../Drivers/STM32L4xx_HAL_Driver/Src/stm32l4xx_hal_dma.c ****     hdma->State = HAL_DMA_STATE_READY;
 786:../Drivers/STM32L4xx_HAL_Driver/Src/stm32l4xx_hal_dma.c ****   }
 787:../Drivers/STM32L4xx_HAL_Driver/Src/stm32l4xx_hal_dma.c ****   else
 788:../Drivers/STM32L4xx_HAL_Driver/Src/stm32l4xx_hal_dma.c ****   {
 789:../Drivers/STM32L4xx_HAL_Driver/Src/stm32l4xx_hal_dma.c ****     /* Clear the half transfer complete flag */
 790:../Drivers/STM32L4xx_HAL_Driver/Src/stm32l4xx_hal_dma.c ****     hdma->DmaBaseAddress->IFCR = (DMA_FLAG_HT1 << (hdma->ChannelIndex & 0x1CU));
 791:../Drivers/STM32L4xx_HAL_Driver/Src/stm32l4xx_hal_dma.c ****   }
 792:../Drivers/STM32L4xx_HAL_Driver/Src/stm32l4xx_hal_dma.c **** 
 793:../Drivers/STM32L4xx_HAL_Driver/Src/stm32l4xx_hal_dma.c ****   /* Process unlocked */
 794:../Drivers/STM32L4xx_HAL_Driver/Src/stm32l4xx_hal_dma.c ****   __HAL_UNLOCK(hdma);
 795:../Drivers/STM32L4xx_HAL_Driver/Src/stm32l4xx_hal_dma.c **** 
 796:../Drivers/STM32L4xx_HAL_Driver/Src/stm32l4xx_hal_dma.c ****   return HAL_OK;
 797:../Drivers/STM32L4xx_HAL_Driver/Src/stm32l4xx_hal_dma.c **** }
 798:../Drivers/STM32L4xx_HAL_Driver/Src/stm32l4xx_hal_dma.c **** 
 799:../Drivers/STM32L4xx_HAL_Driver/Src/stm32l4xx_hal_dma.c **** /**
 800:../Drivers/STM32L4xx_HAL_Driver/Src/stm32l4xx_hal_dma.c ****   * @brief  Handle DMA interrupt request.
 801:../Drivers/STM32L4xx_HAL_Driver/Src/stm32l4xx_hal_dma.c ****   * @param  hdma pointer to a DMA_HandleTypeDef structure that contains
 802:../Drivers/STM32L4xx_HAL_Driver/Src/stm32l4xx_hal_dma.c ****   *               the configuration information for the specified DMA Channel.
 803:../Drivers/STM32L4xx_HAL_Driver/Src/stm32l4xx_hal_dma.c ****   * @retval None
 804:../Drivers/STM32L4xx_HAL_Driver/Src/stm32l4xx_hal_dma.c ****   */
 805:../Drivers/STM32L4xx_HAL_Driver/Src/stm32l4xx_hal_dma.c **** void HAL_DMA_IRQHandler(DMA_HandleTypeDef *hdma)
 806:../Drivers/STM32L4xx_HAL_Driver/Src/stm32l4xx_hal_dma.c **** {
 807:../Drivers/STM32L4xx_HAL_Driver/Src/stm32l4xx_hal_dma.c ****   uint32_t flag_it = hdma->DmaBaseAddress->ISR;
 808:../Drivers/STM32L4xx_HAL_Driver/Src/stm32l4xx_hal_dma.c ****   uint32_t source_it = hdma->Instance->CCR;
 809:../Drivers/STM32L4xx_HAL_Driver/Src/stm32l4xx_hal_dma.c **** 
 810:../Drivers/STM32L4xx_HAL_Driver/Src/stm32l4xx_hal_dma.c ****   /* Half Transfer Complete Interrupt management ******************************/
 811:../Drivers/STM32L4xx_HAL_Driver/Src/stm32l4xx_hal_dma.c ****   if (((flag_it & (DMA_FLAG_HT1 << (hdma->ChannelIndex & 0x1CU))) != 0U) && ((source_it & DMA_IT_HT
 812:../Drivers/STM32L4xx_HAL_Driver/Src/stm32l4xx_hal_dma.c ****   {
 813:../Drivers/STM32L4xx_HAL_Driver/Src/stm32l4xx_hal_dma.c ****       /* Disable the half transfer interrupt if the DMA mode is not CIRCULAR */
 814:../Drivers/STM32L4xx_HAL_Driver/Src/stm32l4xx_hal_dma.c ****       if((hdma->Instance->CCR & DMA_CCR_CIRC) == 0U)
 815:../Drivers/STM32L4xx_HAL_Driver/Src/stm32l4xx_hal_dma.c ****       {
 816:../Drivers/STM32L4xx_HAL_Driver/Src/stm32l4xx_hal_dma.c ****         /* Disable the half transfer interrupt */
ARM GAS  C:\Users\hoodc\AppData\Local\Temp\cc4eu5v8.s 			page 25


 817:../Drivers/STM32L4xx_HAL_Driver/Src/stm32l4xx_hal_dma.c ****         __HAL_DMA_DISABLE_IT(hdma, DMA_IT_HT);
 818:../Drivers/STM32L4xx_HAL_Driver/Src/stm32l4xx_hal_dma.c ****       }
 819:../Drivers/STM32L4xx_HAL_Driver/Src/stm32l4xx_hal_dma.c ****       /* Clear the half transfer complete flag */
 820:../Drivers/STM32L4xx_HAL_Driver/Src/stm32l4xx_hal_dma.c ****       hdma->DmaBaseAddress->IFCR = DMA_ISR_HTIF1 << (hdma->ChannelIndex & 0x1CU);
 821:../Drivers/STM32L4xx_HAL_Driver/Src/stm32l4xx_hal_dma.c **** 
 822:../Drivers/STM32L4xx_HAL_Driver/Src/stm32l4xx_hal_dma.c ****       /* DMA peripheral state is not updated in Half Transfer */
 823:../Drivers/STM32L4xx_HAL_Driver/Src/stm32l4xx_hal_dma.c ****       /* but in Transfer Complete case */
 824:../Drivers/STM32L4xx_HAL_Driver/Src/stm32l4xx_hal_dma.c **** 
 825:../Drivers/STM32L4xx_HAL_Driver/Src/stm32l4xx_hal_dma.c ****       if(hdma->XferHalfCpltCallback != NULL)
 826:../Drivers/STM32L4xx_HAL_Driver/Src/stm32l4xx_hal_dma.c ****       {
 827:../Drivers/STM32L4xx_HAL_Driver/Src/stm32l4xx_hal_dma.c ****         /* Half transfer callback */
 828:../Drivers/STM32L4xx_HAL_Driver/Src/stm32l4xx_hal_dma.c ****         hdma->XferHalfCpltCallback(hdma);
 829:../Drivers/STM32L4xx_HAL_Driver/Src/stm32l4xx_hal_dma.c ****       }
 830:../Drivers/STM32L4xx_HAL_Driver/Src/stm32l4xx_hal_dma.c ****   }
 831:../Drivers/STM32L4xx_HAL_Driver/Src/stm32l4xx_hal_dma.c **** 
 832:../Drivers/STM32L4xx_HAL_Driver/Src/stm32l4xx_hal_dma.c ****   /* Transfer Complete Interrupt management ***********************************/
 833:../Drivers/STM32L4xx_HAL_Driver/Src/stm32l4xx_hal_dma.c ****   else if (((flag_it & (DMA_FLAG_TC1 << (hdma->ChannelIndex & 0x1CU))) != 0U) && ((source_it & DMA_
 834:../Drivers/STM32L4xx_HAL_Driver/Src/stm32l4xx_hal_dma.c ****   {
 835:../Drivers/STM32L4xx_HAL_Driver/Src/stm32l4xx_hal_dma.c ****     if((hdma->Instance->CCR & DMA_CCR_CIRC) == 0U)
 836:../Drivers/STM32L4xx_HAL_Driver/Src/stm32l4xx_hal_dma.c ****     {
 837:../Drivers/STM32L4xx_HAL_Driver/Src/stm32l4xx_hal_dma.c ****       /* Disable the transfer complete interrupt if the DMA mode is not CIRCULAR */
 838:../Drivers/STM32L4xx_HAL_Driver/Src/stm32l4xx_hal_dma.c ****       /* Disable the transfer complete and error interrupt */
 839:../Drivers/STM32L4xx_HAL_Driver/Src/stm32l4xx_hal_dma.c ****       /* if the DMA mode is not CIRCULAR  */
 840:../Drivers/STM32L4xx_HAL_Driver/Src/stm32l4xx_hal_dma.c ****       __HAL_DMA_DISABLE_IT(hdma, DMA_IT_TE | DMA_IT_TC);
 841:../Drivers/STM32L4xx_HAL_Driver/Src/stm32l4xx_hal_dma.c **** 
 842:../Drivers/STM32L4xx_HAL_Driver/Src/stm32l4xx_hal_dma.c ****       /* Change the DMA state */
 843:../Drivers/STM32L4xx_HAL_Driver/Src/stm32l4xx_hal_dma.c ****       hdma->State = HAL_DMA_STATE_READY;
 844:../Drivers/STM32L4xx_HAL_Driver/Src/stm32l4xx_hal_dma.c ****     }
 845:../Drivers/STM32L4xx_HAL_Driver/Src/stm32l4xx_hal_dma.c ****     /* Clear the transfer complete flag */
 846:../Drivers/STM32L4xx_HAL_Driver/Src/stm32l4xx_hal_dma.c ****     hdma->DmaBaseAddress->IFCR = (DMA_ISR_TCIF1 << (hdma->ChannelIndex & 0x1CU));
 847:../Drivers/STM32L4xx_HAL_Driver/Src/stm32l4xx_hal_dma.c **** 
 848:../Drivers/STM32L4xx_HAL_Driver/Src/stm32l4xx_hal_dma.c ****     /* Process Unlocked */
 849:../Drivers/STM32L4xx_HAL_Driver/Src/stm32l4xx_hal_dma.c ****     __HAL_UNLOCK(hdma);
 850:../Drivers/STM32L4xx_HAL_Driver/Src/stm32l4xx_hal_dma.c **** 
 851:../Drivers/STM32L4xx_HAL_Driver/Src/stm32l4xx_hal_dma.c ****     if(hdma->XferCpltCallback != NULL)
 852:../Drivers/STM32L4xx_HAL_Driver/Src/stm32l4xx_hal_dma.c ****     {
 853:../Drivers/STM32L4xx_HAL_Driver/Src/stm32l4xx_hal_dma.c ****       /* Transfer complete callback */
 854:../Drivers/STM32L4xx_HAL_Driver/Src/stm32l4xx_hal_dma.c ****       hdma->XferCpltCallback(hdma);
 855:../Drivers/STM32L4xx_HAL_Driver/Src/stm32l4xx_hal_dma.c ****     }
 856:../Drivers/STM32L4xx_HAL_Driver/Src/stm32l4xx_hal_dma.c ****   }
 857:../Drivers/STM32L4xx_HAL_Driver/Src/stm32l4xx_hal_dma.c **** 
 858:../Drivers/STM32L4xx_HAL_Driver/Src/stm32l4xx_hal_dma.c ****   /* Transfer Error Interrupt management **************************************/
 859:../Drivers/STM32L4xx_HAL_Driver/Src/stm32l4xx_hal_dma.c ****   else if (((flag_it & (DMA_FLAG_TE1 << (hdma->ChannelIndex & 0x1CU))) != 0U) && ((source_it & DMA_
 860:../Drivers/STM32L4xx_HAL_Driver/Src/stm32l4xx_hal_dma.c ****   {
 861:../Drivers/STM32L4xx_HAL_Driver/Src/stm32l4xx_hal_dma.c ****     /* When a DMA transfer error occurs */
 862:../Drivers/STM32L4xx_HAL_Driver/Src/stm32l4xx_hal_dma.c ****     /* A hardware clear of its EN bits is performed */
 863:../Drivers/STM32L4xx_HAL_Driver/Src/stm32l4xx_hal_dma.c ****     /* Disable ALL DMA IT */
 864:../Drivers/STM32L4xx_HAL_Driver/Src/stm32l4xx_hal_dma.c ****     __HAL_DMA_DISABLE_IT(hdma, (DMA_IT_TC | DMA_IT_HT | DMA_IT_TE));
 865:../Drivers/STM32L4xx_HAL_Driver/Src/stm32l4xx_hal_dma.c **** 
 866:../Drivers/STM32L4xx_HAL_Driver/Src/stm32l4xx_hal_dma.c ****     /* Clear all flags */
 867:../Drivers/STM32L4xx_HAL_Driver/Src/stm32l4xx_hal_dma.c ****     hdma->DmaBaseAddress->IFCR = (DMA_ISR_GIF1 << (hdma->ChannelIndex & 0x1CU));
 868:../Drivers/STM32L4xx_HAL_Driver/Src/stm32l4xx_hal_dma.c **** 
 869:../Drivers/STM32L4xx_HAL_Driver/Src/stm32l4xx_hal_dma.c ****     /* Update error code */
 870:../Drivers/STM32L4xx_HAL_Driver/Src/stm32l4xx_hal_dma.c ****     hdma->ErrorCode = HAL_DMA_ERROR_TE;
 871:../Drivers/STM32L4xx_HAL_Driver/Src/stm32l4xx_hal_dma.c **** 
 872:../Drivers/STM32L4xx_HAL_Driver/Src/stm32l4xx_hal_dma.c ****     /* Change the DMA state */
 873:../Drivers/STM32L4xx_HAL_Driver/Src/stm32l4xx_hal_dma.c ****     hdma->State = HAL_DMA_STATE_READY;
ARM GAS  C:\Users\hoodc\AppData\Local\Temp\cc4eu5v8.s 			page 26


 874:../Drivers/STM32L4xx_HAL_Driver/Src/stm32l4xx_hal_dma.c **** 
 875:../Drivers/STM32L4xx_HAL_Driver/Src/stm32l4xx_hal_dma.c ****     /* Process Unlocked */
 876:../Drivers/STM32L4xx_HAL_Driver/Src/stm32l4xx_hal_dma.c ****     __HAL_UNLOCK(hdma);
 877:../Drivers/STM32L4xx_HAL_Driver/Src/stm32l4xx_hal_dma.c **** 
 878:../Drivers/STM32L4xx_HAL_Driver/Src/stm32l4xx_hal_dma.c ****     if (hdma->XferErrorCallback != NULL)
 879:../Drivers/STM32L4xx_HAL_Driver/Src/stm32l4xx_hal_dma.c ****     {
 880:../Drivers/STM32L4xx_HAL_Driver/Src/stm32l4xx_hal_dma.c ****       /* Transfer error callback */
 881:../Drivers/STM32L4xx_HAL_Driver/Src/stm32l4xx_hal_dma.c ****       hdma->XferErrorCallback(hdma);
 882:../Drivers/STM32L4xx_HAL_Driver/Src/stm32l4xx_hal_dma.c ****     }
 883:../Drivers/STM32L4xx_HAL_Driver/Src/stm32l4xx_hal_dma.c ****   }
 884:../Drivers/STM32L4xx_HAL_Driver/Src/stm32l4xx_hal_dma.c ****   else
 885:../Drivers/STM32L4xx_HAL_Driver/Src/stm32l4xx_hal_dma.c ****   {
 886:../Drivers/STM32L4xx_HAL_Driver/Src/stm32l4xx_hal_dma.c ****     /* Nothing To Do */
 887:../Drivers/STM32L4xx_HAL_Driver/Src/stm32l4xx_hal_dma.c ****   }
 888:../Drivers/STM32L4xx_HAL_Driver/Src/stm32l4xx_hal_dma.c ****   return;
 889:../Drivers/STM32L4xx_HAL_Driver/Src/stm32l4xx_hal_dma.c **** }
 890:../Drivers/STM32L4xx_HAL_Driver/Src/stm32l4xx_hal_dma.c **** 
 891:../Drivers/STM32L4xx_HAL_Driver/Src/stm32l4xx_hal_dma.c **** /**
 892:../Drivers/STM32L4xx_HAL_Driver/Src/stm32l4xx_hal_dma.c ****   * @brief  Register callbacks
 893:../Drivers/STM32L4xx_HAL_Driver/Src/stm32l4xx_hal_dma.c ****   * @param  hdma                 pointer to a DMA_HandleTypeDef structure that contains
 894:../Drivers/STM32L4xx_HAL_Driver/Src/stm32l4xx_hal_dma.c ****   *                               the configuration information for the specified DMA Channel.
 895:../Drivers/STM32L4xx_HAL_Driver/Src/stm32l4xx_hal_dma.c ****   * @param  CallbackID           User Callback identifer
 896:../Drivers/STM32L4xx_HAL_Driver/Src/stm32l4xx_hal_dma.c ****   *                               a HAL_DMA_CallbackIDTypeDef ENUM as parameter.
 897:../Drivers/STM32L4xx_HAL_Driver/Src/stm32l4xx_hal_dma.c ****   * @param  pCallback            pointer to private callbacsk function which has pointer to
 898:../Drivers/STM32L4xx_HAL_Driver/Src/stm32l4xx_hal_dma.c ****   *                               a DMA_HandleTypeDef structure as parameter.
 899:../Drivers/STM32L4xx_HAL_Driver/Src/stm32l4xx_hal_dma.c ****   * @retval HAL status
 900:../Drivers/STM32L4xx_HAL_Driver/Src/stm32l4xx_hal_dma.c ****   */
 901:../Drivers/STM32L4xx_HAL_Driver/Src/stm32l4xx_hal_dma.c **** HAL_StatusTypeDef HAL_DMA_RegisterCallback(DMA_HandleTypeDef *hdma, HAL_DMA_CallbackIDTypeDef Callb
 902:../Drivers/STM32L4xx_HAL_Driver/Src/stm32l4xx_hal_dma.c **** {
 903:../Drivers/STM32L4xx_HAL_Driver/Src/stm32l4xx_hal_dma.c ****   HAL_StatusTypeDef status = HAL_OK;
 904:../Drivers/STM32L4xx_HAL_Driver/Src/stm32l4xx_hal_dma.c **** 
 905:../Drivers/STM32L4xx_HAL_Driver/Src/stm32l4xx_hal_dma.c ****   /* Process locked */
 906:../Drivers/STM32L4xx_HAL_Driver/Src/stm32l4xx_hal_dma.c ****   __HAL_LOCK(hdma);
 907:../Drivers/STM32L4xx_HAL_Driver/Src/stm32l4xx_hal_dma.c **** 
 908:../Drivers/STM32L4xx_HAL_Driver/Src/stm32l4xx_hal_dma.c ****   if(HAL_DMA_STATE_READY == hdma->State)
 909:../Drivers/STM32L4xx_HAL_Driver/Src/stm32l4xx_hal_dma.c ****   {
 910:../Drivers/STM32L4xx_HAL_Driver/Src/stm32l4xx_hal_dma.c ****     switch (CallbackID)
 911:../Drivers/STM32L4xx_HAL_Driver/Src/stm32l4xx_hal_dma.c ****     {
 912:../Drivers/STM32L4xx_HAL_Driver/Src/stm32l4xx_hal_dma.c ****      case  HAL_DMA_XFER_CPLT_CB_ID:
 913:../Drivers/STM32L4xx_HAL_Driver/Src/stm32l4xx_hal_dma.c ****            hdma->XferCpltCallback = pCallback;
 914:../Drivers/STM32L4xx_HAL_Driver/Src/stm32l4xx_hal_dma.c ****            break;
 915:../Drivers/STM32L4xx_HAL_Driver/Src/stm32l4xx_hal_dma.c **** 
 916:../Drivers/STM32L4xx_HAL_Driver/Src/stm32l4xx_hal_dma.c ****      case  HAL_DMA_XFER_HALFCPLT_CB_ID:
 917:../Drivers/STM32L4xx_HAL_Driver/Src/stm32l4xx_hal_dma.c ****            hdma->XferHalfCpltCallback = pCallback;
 918:../Drivers/STM32L4xx_HAL_Driver/Src/stm32l4xx_hal_dma.c ****            break;
 919:../Drivers/STM32L4xx_HAL_Driver/Src/stm32l4xx_hal_dma.c **** 
 920:../Drivers/STM32L4xx_HAL_Driver/Src/stm32l4xx_hal_dma.c ****      case  HAL_DMA_XFER_ERROR_CB_ID:
 921:../Drivers/STM32L4xx_HAL_Driver/Src/stm32l4xx_hal_dma.c ****            hdma->XferErrorCallback = pCallback;
 922:../Drivers/STM32L4xx_HAL_Driver/Src/stm32l4xx_hal_dma.c ****            break;
 923:../Drivers/STM32L4xx_HAL_Driver/Src/stm32l4xx_hal_dma.c **** 
 924:../Drivers/STM32L4xx_HAL_Driver/Src/stm32l4xx_hal_dma.c ****      case  HAL_DMA_XFER_ABORT_CB_ID:
 925:../Drivers/STM32L4xx_HAL_Driver/Src/stm32l4xx_hal_dma.c ****            hdma->XferAbortCallback = pCallback;
 926:../Drivers/STM32L4xx_HAL_Driver/Src/stm32l4xx_hal_dma.c ****            break;
 927:../Drivers/STM32L4xx_HAL_Driver/Src/stm32l4xx_hal_dma.c **** 
 928:../Drivers/STM32L4xx_HAL_Driver/Src/stm32l4xx_hal_dma.c ****      default:
 929:../Drivers/STM32L4xx_HAL_Driver/Src/stm32l4xx_hal_dma.c ****            status = HAL_ERROR;
 930:../Drivers/STM32L4xx_HAL_Driver/Src/stm32l4xx_hal_dma.c ****            break;
ARM GAS  C:\Users\hoodc\AppData\Local\Temp\cc4eu5v8.s 			page 27


 931:../Drivers/STM32L4xx_HAL_Driver/Src/stm32l4xx_hal_dma.c ****     }
 932:../Drivers/STM32L4xx_HAL_Driver/Src/stm32l4xx_hal_dma.c ****   }
 933:../Drivers/STM32L4xx_HAL_Driver/Src/stm32l4xx_hal_dma.c ****   else
 934:../Drivers/STM32L4xx_HAL_Driver/Src/stm32l4xx_hal_dma.c ****   {
 935:../Drivers/STM32L4xx_HAL_Driver/Src/stm32l4xx_hal_dma.c ****     status = HAL_ERROR;
 936:../Drivers/STM32L4xx_HAL_Driver/Src/stm32l4xx_hal_dma.c ****   }
 937:../Drivers/STM32L4xx_HAL_Driver/Src/stm32l4xx_hal_dma.c **** 
 938:../Drivers/STM32L4xx_HAL_Driver/Src/stm32l4xx_hal_dma.c ****   /* Release Lock */
 939:../Drivers/STM32L4xx_HAL_Driver/Src/stm32l4xx_hal_dma.c ****   __HAL_UNLOCK(hdma);
 940:../Drivers/STM32L4xx_HAL_Driver/Src/stm32l4xx_hal_dma.c **** 
 941:../Drivers/STM32L4xx_HAL_Driver/Src/stm32l4xx_hal_dma.c ****   return status;
 942:../Drivers/STM32L4xx_HAL_Driver/Src/stm32l4xx_hal_dma.c **** }
 943:../Drivers/STM32L4xx_HAL_Driver/Src/stm32l4xx_hal_dma.c **** 
 944:../Drivers/STM32L4xx_HAL_Driver/Src/stm32l4xx_hal_dma.c **** /**
 945:../Drivers/STM32L4xx_HAL_Driver/Src/stm32l4xx_hal_dma.c ****   * @brief  UnRegister callbacks
 946:../Drivers/STM32L4xx_HAL_Driver/Src/stm32l4xx_hal_dma.c ****   * @param  hdma                 pointer to a DMA_HandleTypeDef structure that contains
 947:../Drivers/STM32L4xx_HAL_Driver/Src/stm32l4xx_hal_dma.c ****   *                               the configuration information for the specified DMA Channel.
 948:../Drivers/STM32L4xx_HAL_Driver/Src/stm32l4xx_hal_dma.c ****   * @param  CallbackID           User Callback identifer
 949:../Drivers/STM32L4xx_HAL_Driver/Src/stm32l4xx_hal_dma.c ****   *                               a HAL_DMA_CallbackIDTypeDef ENUM as parameter.
 950:../Drivers/STM32L4xx_HAL_Driver/Src/stm32l4xx_hal_dma.c ****   * @retval HAL status
 951:../Drivers/STM32L4xx_HAL_Driver/Src/stm32l4xx_hal_dma.c ****   */
 952:../Drivers/STM32L4xx_HAL_Driver/Src/stm32l4xx_hal_dma.c **** HAL_StatusTypeDef HAL_DMA_UnRegisterCallback(DMA_HandleTypeDef *hdma, HAL_DMA_CallbackIDTypeDef Cal
 953:../Drivers/STM32L4xx_HAL_Driver/Src/stm32l4xx_hal_dma.c **** {
 954:../Drivers/STM32L4xx_HAL_Driver/Src/stm32l4xx_hal_dma.c ****   HAL_StatusTypeDef status = HAL_OK;
 955:../Drivers/STM32L4xx_HAL_Driver/Src/stm32l4xx_hal_dma.c **** 
 956:../Drivers/STM32L4xx_HAL_Driver/Src/stm32l4xx_hal_dma.c ****     /* Process locked */
 957:../Drivers/STM32L4xx_HAL_Driver/Src/stm32l4xx_hal_dma.c ****   __HAL_LOCK(hdma);
 958:../Drivers/STM32L4xx_HAL_Driver/Src/stm32l4xx_hal_dma.c **** 
 959:../Drivers/STM32L4xx_HAL_Driver/Src/stm32l4xx_hal_dma.c ****   if(HAL_DMA_STATE_READY == hdma->State)
 960:../Drivers/STM32L4xx_HAL_Driver/Src/stm32l4xx_hal_dma.c ****   {
 961:../Drivers/STM32L4xx_HAL_Driver/Src/stm32l4xx_hal_dma.c ****     switch (CallbackID)
 962:../Drivers/STM32L4xx_HAL_Driver/Src/stm32l4xx_hal_dma.c ****     {
 963:../Drivers/STM32L4xx_HAL_Driver/Src/stm32l4xx_hal_dma.c ****      case  HAL_DMA_XFER_CPLT_CB_ID:
 964:../Drivers/STM32L4xx_HAL_Driver/Src/stm32l4xx_hal_dma.c ****            hdma->XferCpltCallback = NULL;
 965:../Drivers/STM32L4xx_HAL_Driver/Src/stm32l4xx_hal_dma.c ****            break;
 966:../Drivers/STM32L4xx_HAL_Driver/Src/stm32l4xx_hal_dma.c **** 
 967:../Drivers/STM32L4xx_HAL_Driver/Src/stm32l4xx_hal_dma.c ****      case  HAL_DMA_XFER_HALFCPLT_CB_ID:
 968:../Drivers/STM32L4xx_HAL_Driver/Src/stm32l4xx_hal_dma.c ****            hdma->XferHalfCpltCallback = NULL;
 969:../Drivers/STM32L4xx_HAL_Driver/Src/stm32l4xx_hal_dma.c ****            break;
 970:../Drivers/STM32L4xx_HAL_Driver/Src/stm32l4xx_hal_dma.c **** 
 971:../Drivers/STM32L4xx_HAL_Driver/Src/stm32l4xx_hal_dma.c ****      case  HAL_DMA_XFER_ERROR_CB_ID:
 972:../Drivers/STM32L4xx_HAL_Driver/Src/stm32l4xx_hal_dma.c ****            hdma->XferErrorCallback = NULL;
 973:../Drivers/STM32L4xx_HAL_Driver/Src/stm32l4xx_hal_dma.c ****            break;
 974:../Drivers/STM32L4xx_HAL_Driver/Src/stm32l4xx_hal_dma.c **** 
 975:../Drivers/STM32L4xx_HAL_Driver/Src/stm32l4xx_hal_dma.c ****      case  HAL_DMA_XFER_ABORT_CB_ID:
 976:../Drivers/STM32L4xx_HAL_Driver/Src/stm32l4xx_hal_dma.c ****            hdma->XferAbortCallback = NULL;
 977:../Drivers/STM32L4xx_HAL_Driver/Src/stm32l4xx_hal_dma.c ****            break;
 978:../Drivers/STM32L4xx_HAL_Driver/Src/stm32l4xx_hal_dma.c **** 
 979:../Drivers/STM32L4xx_HAL_Driver/Src/stm32l4xx_hal_dma.c ****     case   HAL_DMA_XFER_ALL_CB_ID:
 980:../Drivers/STM32L4xx_HAL_Driver/Src/stm32l4xx_hal_dma.c ****            hdma->XferCpltCallback = NULL;
 981:../Drivers/STM32L4xx_HAL_Driver/Src/stm32l4xx_hal_dma.c ****            hdma->XferHalfCpltCallback = NULL;
 982:../Drivers/STM32L4xx_HAL_Driver/Src/stm32l4xx_hal_dma.c ****            hdma->XferErrorCallback = NULL;
 983:../Drivers/STM32L4xx_HAL_Driver/Src/stm32l4xx_hal_dma.c ****            hdma->XferAbortCallback = NULL;
 984:../Drivers/STM32L4xx_HAL_Driver/Src/stm32l4xx_hal_dma.c ****            break;
 985:../Drivers/STM32L4xx_HAL_Driver/Src/stm32l4xx_hal_dma.c **** 
 986:../Drivers/STM32L4xx_HAL_Driver/Src/stm32l4xx_hal_dma.c ****     default:
 987:../Drivers/STM32L4xx_HAL_Driver/Src/stm32l4xx_hal_dma.c ****            status = HAL_ERROR;
ARM GAS  C:\Users\hoodc\AppData\Local\Temp\cc4eu5v8.s 			page 28


 988:../Drivers/STM32L4xx_HAL_Driver/Src/stm32l4xx_hal_dma.c ****            break;
 989:../Drivers/STM32L4xx_HAL_Driver/Src/stm32l4xx_hal_dma.c ****     }
 990:../Drivers/STM32L4xx_HAL_Driver/Src/stm32l4xx_hal_dma.c ****   }
 991:../Drivers/STM32L4xx_HAL_Driver/Src/stm32l4xx_hal_dma.c ****   else
 992:../Drivers/STM32L4xx_HAL_Driver/Src/stm32l4xx_hal_dma.c ****   {
 993:../Drivers/STM32L4xx_HAL_Driver/Src/stm32l4xx_hal_dma.c ****     status = HAL_ERROR;
 994:../Drivers/STM32L4xx_HAL_Driver/Src/stm32l4xx_hal_dma.c ****   }
 995:../Drivers/STM32L4xx_HAL_Driver/Src/stm32l4xx_hal_dma.c **** 
 996:../Drivers/STM32L4xx_HAL_Driver/Src/stm32l4xx_hal_dma.c ****   /* Release Lock */
 997:../Drivers/STM32L4xx_HAL_Driver/Src/stm32l4xx_hal_dma.c ****   __HAL_UNLOCK(hdma);
 998:../Drivers/STM32L4xx_HAL_Driver/Src/stm32l4xx_hal_dma.c **** 
 999:../Drivers/STM32L4xx_HAL_Driver/Src/stm32l4xx_hal_dma.c ****   return status;
1000:../Drivers/STM32L4xx_HAL_Driver/Src/stm32l4xx_hal_dma.c **** }
1001:../Drivers/STM32L4xx_HAL_Driver/Src/stm32l4xx_hal_dma.c **** 
1002:../Drivers/STM32L4xx_HAL_Driver/Src/stm32l4xx_hal_dma.c **** /**
1003:../Drivers/STM32L4xx_HAL_Driver/Src/stm32l4xx_hal_dma.c ****   * @}
1004:../Drivers/STM32L4xx_HAL_Driver/Src/stm32l4xx_hal_dma.c ****   */
1005:../Drivers/STM32L4xx_HAL_Driver/Src/stm32l4xx_hal_dma.c **** 
1006:../Drivers/STM32L4xx_HAL_Driver/Src/stm32l4xx_hal_dma.c **** 
1007:../Drivers/STM32L4xx_HAL_Driver/Src/stm32l4xx_hal_dma.c **** 
1008:../Drivers/STM32L4xx_HAL_Driver/Src/stm32l4xx_hal_dma.c **** /** @defgroup DMA_Exported_Functions_Group3 Peripheral State and Errors functions
1009:../Drivers/STM32L4xx_HAL_Driver/Src/stm32l4xx_hal_dma.c ****  *  @brief    Peripheral State and Errors functions
1010:../Drivers/STM32L4xx_HAL_Driver/Src/stm32l4xx_hal_dma.c ****  *
1011:../Drivers/STM32L4xx_HAL_Driver/Src/stm32l4xx_hal_dma.c **** @verbatim
1012:../Drivers/STM32L4xx_HAL_Driver/Src/stm32l4xx_hal_dma.c ****  ===============================================================================
1013:../Drivers/STM32L4xx_HAL_Driver/Src/stm32l4xx_hal_dma.c ****             ##### Peripheral State and Errors functions #####
1014:../Drivers/STM32L4xx_HAL_Driver/Src/stm32l4xx_hal_dma.c ****  ===============================================================================
1015:../Drivers/STM32L4xx_HAL_Driver/Src/stm32l4xx_hal_dma.c ****     [..]
1016:../Drivers/STM32L4xx_HAL_Driver/Src/stm32l4xx_hal_dma.c ****     This subsection provides functions allowing to
1017:../Drivers/STM32L4xx_HAL_Driver/Src/stm32l4xx_hal_dma.c ****       (+) Check the DMA state
1018:../Drivers/STM32L4xx_HAL_Driver/Src/stm32l4xx_hal_dma.c ****       (+) Get error code
1019:../Drivers/STM32L4xx_HAL_Driver/Src/stm32l4xx_hal_dma.c **** 
1020:../Drivers/STM32L4xx_HAL_Driver/Src/stm32l4xx_hal_dma.c **** @endverbatim
1021:../Drivers/STM32L4xx_HAL_Driver/Src/stm32l4xx_hal_dma.c ****   * @{
1022:../Drivers/STM32L4xx_HAL_Driver/Src/stm32l4xx_hal_dma.c ****   */
1023:../Drivers/STM32L4xx_HAL_Driver/Src/stm32l4xx_hal_dma.c **** 
1024:../Drivers/STM32L4xx_HAL_Driver/Src/stm32l4xx_hal_dma.c **** /**
1025:../Drivers/STM32L4xx_HAL_Driver/Src/stm32l4xx_hal_dma.c ****   * @brief  Return the DMA handle state.
1026:../Drivers/STM32L4xx_HAL_Driver/Src/stm32l4xx_hal_dma.c ****   * @param  hdma pointer to a DMA_HandleTypeDef structure that contains
1027:../Drivers/STM32L4xx_HAL_Driver/Src/stm32l4xx_hal_dma.c ****   *               the configuration information for the specified DMA Channel.
1028:../Drivers/STM32L4xx_HAL_Driver/Src/stm32l4xx_hal_dma.c ****   * @retval HAL state
1029:../Drivers/STM32L4xx_HAL_Driver/Src/stm32l4xx_hal_dma.c ****   */
1030:../Drivers/STM32L4xx_HAL_Driver/Src/stm32l4xx_hal_dma.c **** HAL_DMA_StateTypeDef HAL_DMA_GetState(DMA_HandleTypeDef *hdma)
1031:../Drivers/STM32L4xx_HAL_Driver/Src/stm32l4xx_hal_dma.c **** {
1032:../Drivers/STM32L4xx_HAL_Driver/Src/stm32l4xx_hal_dma.c ****   /* Return DMA handle state */
1033:../Drivers/STM32L4xx_HAL_Driver/Src/stm32l4xx_hal_dma.c ****   return hdma->State;
1034:../Drivers/STM32L4xx_HAL_Driver/Src/stm32l4xx_hal_dma.c **** }
1035:../Drivers/STM32L4xx_HAL_Driver/Src/stm32l4xx_hal_dma.c **** 
1036:../Drivers/STM32L4xx_HAL_Driver/Src/stm32l4xx_hal_dma.c **** /**
1037:../Drivers/STM32L4xx_HAL_Driver/Src/stm32l4xx_hal_dma.c ****   * @brief  Return the DMA error code.
1038:../Drivers/STM32L4xx_HAL_Driver/Src/stm32l4xx_hal_dma.c ****   * @param  hdma : pointer to a DMA_HandleTypeDef structure that contains
1039:../Drivers/STM32L4xx_HAL_Driver/Src/stm32l4xx_hal_dma.c ****   *              the configuration information for the specified DMA Channel.
1040:../Drivers/STM32L4xx_HAL_Driver/Src/stm32l4xx_hal_dma.c ****   * @retval DMA Error Code
1041:../Drivers/STM32L4xx_HAL_Driver/Src/stm32l4xx_hal_dma.c ****   */
1042:../Drivers/STM32L4xx_HAL_Driver/Src/stm32l4xx_hal_dma.c **** uint32_t HAL_DMA_GetError(DMA_HandleTypeDef *hdma)
1043:../Drivers/STM32L4xx_HAL_Driver/Src/stm32l4xx_hal_dma.c **** {
1044:../Drivers/STM32L4xx_HAL_Driver/Src/stm32l4xx_hal_dma.c ****   return hdma->ErrorCode;
ARM GAS  C:\Users\hoodc\AppData\Local\Temp\cc4eu5v8.s 			page 29


1045:../Drivers/STM32L4xx_HAL_Driver/Src/stm32l4xx_hal_dma.c **** }
1046:../Drivers/STM32L4xx_HAL_Driver/Src/stm32l4xx_hal_dma.c **** 
1047:../Drivers/STM32L4xx_HAL_Driver/Src/stm32l4xx_hal_dma.c **** /**
1048:../Drivers/STM32L4xx_HAL_Driver/Src/stm32l4xx_hal_dma.c ****   * @}
1049:../Drivers/STM32L4xx_HAL_Driver/Src/stm32l4xx_hal_dma.c ****   */
1050:../Drivers/STM32L4xx_HAL_Driver/Src/stm32l4xx_hal_dma.c **** 
1051:../Drivers/STM32L4xx_HAL_Driver/Src/stm32l4xx_hal_dma.c **** /**
1052:../Drivers/STM32L4xx_HAL_Driver/Src/stm32l4xx_hal_dma.c ****   * @}
1053:../Drivers/STM32L4xx_HAL_Driver/Src/stm32l4xx_hal_dma.c ****   */
1054:../Drivers/STM32L4xx_HAL_Driver/Src/stm32l4xx_hal_dma.c **** 
1055:../Drivers/STM32L4xx_HAL_Driver/Src/stm32l4xx_hal_dma.c **** /** @addtogroup DMA_Private_Functions
1056:../Drivers/STM32L4xx_HAL_Driver/Src/stm32l4xx_hal_dma.c ****   * @{
1057:../Drivers/STM32L4xx_HAL_Driver/Src/stm32l4xx_hal_dma.c ****   */
1058:../Drivers/STM32L4xx_HAL_Driver/Src/stm32l4xx_hal_dma.c **** 
1059:../Drivers/STM32L4xx_HAL_Driver/Src/stm32l4xx_hal_dma.c **** /**
1060:../Drivers/STM32L4xx_HAL_Driver/Src/stm32l4xx_hal_dma.c ****   * @brief  Sets the DMA Transfer parameter.
1061:../Drivers/STM32L4xx_HAL_Driver/Src/stm32l4xx_hal_dma.c ****   * @param  hdma       pointer to a DMA_HandleTypeDef structure that contains
1062:../Drivers/STM32L4xx_HAL_Driver/Src/stm32l4xx_hal_dma.c ****   *                     the configuration information for the specified DMA Channel.
1063:../Drivers/STM32L4xx_HAL_Driver/Src/stm32l4xx_hal_dma.c ****   * @param  SrcAddress The source memory Buffer address
1064:../Drivers/STM32L4xx_HAL_Driver/Src/stm32l4xx_hal_dma.c ****   * @param  DstAddress The destination memory Buffer address
1065:../Drivers/STM32L4xx_HAL_Driver/Src/stm32l4xx_hal_dma.c ****   * @param  DataLength The length of data to be transferred from source to destination
1066:../Drivers/STM32L4xx_HAL_Driver/Src/stm32l4xx_hal_dma.c ****   * @retval HAL status
1067:../Drivers/STM32L4xx_HAL_Driver/Src/stm32l4xx_hal_dma.c ****   */
1068:../Drivers/STM32L4xx_HAL_Driver/Src/stm32l4xx_hal_dma.c **** static void DMA_SetConfig(DMA_HandleTypeDef *hdma, uint32_t SrcAddress, uint32_t DstAddress, uint32
 511              		.loc 1 1068 13 view .LVU172
 512              	.LBB5:
1069:../Drivers/STM32L4xx_HAL_Driver/Src/stm32l4xx_hal_dma.c **** {
1070:../Drivers/STM32L4xx_HAL_Driver/Src/stm32l4xx_hal_dma.c **** #if defined(DMAMUX1)
1071:../Drivers/STM32L4xx_HAL_Driver/Src/stm32l4xx_hal_dma.c ****   /* Clear the DMAMUX synchro overrun flag */
1072:../Drivers/STM32L4xx_HAL_Driver/Src/stm32l4xx_hal_dma.c ****   hdma->DMAmuxChannelStatus->CFR = hdma->DMAmuxChannelStatusMask;
1073:../Drivers/STM32L4xx_HAL_Driver/Src/stm32l4xx_hal_dma.c **** 
1074:../Drivers/STM32L4xx_HAL_Driver/Src/stm32l4xx_hal_dma.c ****   if(hdma->DMAmuxRequestGen != 0U)
1075:../Drivers/STM32L4xx_HAL_Driver/Src/stm32l4xx_hal_dma.c ****   {
1076:../Drivers/STM32L4xx_HAL_Driver/Src/stm32l4xx_hal_dma.c ****     /* Clear the DMAMUX request generator overrun flag */
1077:../Drivers/STM32L4xx_HAL_Driver/Src/stm32l4xx_hal_dma.c ****     hdma->DMAmuxRequestGenStatus->RGCFR = hdma->DMAmuxRequestGenStatusMask;
1078:../Drivers/STM32L4xx_HAL_Driver/Src/stm32l4xx_hal_dma.c ****   }
1079:../Drivers/STM32L4xx_HAL_Driver/Src/stm32l4xx_hal_dma.c **** #endif
1080:../Drivers/STM32L4xx_HAL_Driver/Src/stm32l4xx_hal_dma.c **** 
1081:../Drivers/STM32L4xx_HAL_Driver/Src/stm32l4xx_hal_dma.c ****   /* Clear all flags */
1082:../Drivers/STM32L4xx_HAL_Driver/Src/stm32l4xx_hal_dma.c ****   hdma->DmaBaseAddress->IFCR = (DMA_ISR_GIF1 << (hdma->ChannelIndex & 0x1CU));
 513              		.loc 1 1082 3 view .LVU173
 514              		.loc 1 1082 69 is_stmt 0 view .LVU174
 515 020a 446C     		ldr	r4, [r0, #68]
 516 020c 04F01C0C 		and	ip, r4, #28
 517              		.loc 1 1082 46 view .LVU175
 518 0210 0124     		movs	r4, #1
 519 0212 04FA0CF4 		lsl	r4, r4, ip
 520              		.loc 1 1082 30 view .LVU176
 521 0216 056C     		ldr	r5, [r0, #64]
 522 0218 6C60     		str	r4, [r5, #4]
1083:../Drivers/STM32L4xx_HAL_Driver/Src/stm32l4xx_hal_dma.c **** 
1084:../Drivers/STM32L4xx_HAL_Driver/Src/stm32l4xx_hal_dma.c ****   /* Configure DMA Channel data length */
1085:../Drivers/STM32L4xx_HAL_Driver/Src/stm32l4xx_hal_dma.c ****   hdma->Instance->CNDTR = DataLength;
 523              		.loc 1 1085 3 is_stmt 1 view .LVU177
 524              		.loc 1 1085 7 is_stmt 0 view .LVU178
 525 021a 0468     		ldr	r4, [r0]
 526              		.loc 1 1085 25 view .LVU179
ARM GAS  C:\Users\hoodc\AppData\Local\Temp\cc4eu5v8.s 			page 30


 527 021c 6360     		str	r3, [r4, #4]
1086:../Drivers/STM32L4xx_HAL_Driver/Src/stm32l4xx_hal_dma.c **** 
1087:../Drivers/STM32L4xx_HAL_Driver/Src/stm32l4xx_hal_dma.c ****   /* Memory to Peripheral */
1088:../Drivers/STM32L4xx_HAL_Driver/Src/stm32l4xx_hal_dma.c ****   if((hdma->Init.Direction) == DMA_MEMORY_TO_PERIPH)
 528              		.loc 1 1088 3 is_stmt 1 view .LVU180
 529              		.loc 1 1088 5 is_stmt 0 view .LVU181
 530 021e 8368     		ldr	r3, [r0, #8]
 531              	.LVL25:
 532              		.loc 1 1088 5 view .LVU182
 533 0220 102B     		cmp	r3, #16
 534 0222 0AD0     		beq	.L28
1089:../Drivers/STM32L4xx_HAL_Driver/Src/stm32l4xx_hal_dma.c ****   {
1090:../Drivers/STM32L4xx_HAL_Driver/Src/stm32l4xx_hal_dma.c ****     /* Configure DMA Channel destination address */
1091:../Drivers/STM32L4xx_HAL_Driver/Src/stm32l4xx_hal_dma.c ****     hdma->Instance->CPAR = DstAddress;
1092:../Drivers/STM32L4xx_HAL_Driver/Src/stm32l4xx_hal_dma.c **** 
1093:../Drivers/STM32L4xx_HAL_Driver/Src/stm32l4xx_hal_dma.c ****     /* Configure DMA Channel source address */
1094:../Drivers/STM32L4xx_HAL_Driver/Src/stm32l4xx_hal_dma.c ****     hdma->Instance->CMAR = SrcAddress;
1095:../Drivers/STM32L4xx_HAL_Driver/Src/stm32l4xx_hal_dma.c ****   }
1096:../Drivers/STM32L4xx_HAL_Driver/Src/stm32l4xx_hal_dma.c ****   /* Peripheral to Memory */
1097:../Drivers/STM32L4xx_HAL_Driver/Src/stm32l4xx_hal_dma.c ****   else
1098:../Drivers/STM32L4xx_HAL_Driver/Src/stm32l4xx_hal_dma.c ****   {
1099:../Drivers/STM32L4xx_HAL_Driver/Src/stm32l4xx_hal_dma.c ****     /* Configure DMA Channel source address */
1100:../Drivers/STM32L4xx_HAL_Driver/Src/stm32l4xx_hal_dma.c ****     hdma->Instance->CPAR = SrcAddress;
 535              		.loc 1 1100 5 is_stmt 1 view .LVU183
 536              		.loc 1 1100 9 is_stmt 0 view .LVU184
 537 0224 0368     		ldr	r3, [r0]
 538              		.loc 1 1100 26 view .LVU185
 539 0226 9960     		str	r1, [r3, #8]
 540              	.LVL26:
1101:../Drivers/STM32L4xx_HAL_Driver/Src/stm32l4xx_hal_dma.c **** 
1102:../Drivers/STM32L4xx_HAL_Driver/Src/stm32l4xx_hal_dma.c ****     /* Configure DMA Channel destination address */
1103:../Drivers/STM32L4xx_HAL_Driver/Src/stm32l4xx_hal_dma.c ****     hdma->Instance->CMAR = DstAddress;
 541              		.loc 1 1103 5 is_stmt 1 view .LVU186
 542              		.loc 1 1103 9 is_stmt 0 view .LVU187
 543 0228 0368     		ldr	r3, [r0]
 544              		.loc 1 1103 26 view .LVU188
 545 022a DA60     		str	r2, [r3, #12]
 546              	.L25:
 547              	.LVL27:
 548              		.loc 1 1103 26 view .LVU189
 549              	.LBE5:
 550              	.LBE4:
 453:../Drivers/STM32L4xx_HAL_Driver/Src/stm32l4xx_hal_dma.c ****   }
 551              		.loc 1 453 5 is_stmt 1 view .LVU190
 552 022c 0268     		ldr	r2, [r0]
 553              	.LVL28:
 453:../Drivers/STM32L4xx_HAL_Driver/Src/stm32l4xx_hal_dma.c ****   }
 554              		.loc 1 453 5 is_stmt 0 view .LVU191
 555 022e 1368     		ldr	r3, [r2]
 556 0230 43F00103 		orr	r3, r3, #1
 557 0234 1360     		str	r3, [r2]
 432:../Drivers/STM32L4xx_HAL_Driver/Src/stm32l4xx_hal_dma.c **** 
 558              		.loc 1 432 21 view .LVU192
 559 0236 0020     		movs	r0, #0
 560              	.LVL29:
 432:../Drivers/STM32L4xx_HAL_Driver/Src/stm32l4xx_hal_dma.c **** 
 561              		.loc 1 432 21 view .LVU193
ARM GAS  C:\Users\hoodc\AppData\Local\Temp\cc4eu5v8.s 			page 31


 562 0238 DBE7     		b	.L22
 563              	.LVL30:
 564              	.L28:
 565              	.LBB7:
 566              	.LBB6:
1091:../Drivers/STM32L4xx_HAL_Driver/Src/stm32l4xx_hal_dma.c **** 
 567              		.loc 1 1091 5 is_stmt 1 view .LVU194
1091:../Drivers/STM32L4xx_HAL_Driver/Src/stm32l4xx_hal_dma.c **** 
 568              		.loc 1 1091 9 is_stmt 0 view .LVU195
 569 023a 0368     		ldr	r3, [r0]
1091:../Drivers/STM32L4xx_HAL_Driver/Src/stm32l4xx_hal_dma.c **** 
 570              		.loc 1 1091 26 view .LVU196
 571 023c 9A60     		str	r2, [r3, #8]
 572              	.LVL31:
1094:../Drivers/STM32L4xx_HAL_Driver/Src/stm32l4xx_hal_dma.c ****   }
 573              		.loc 1 1094 5 is_stmt 1 view .LVU197
1094:../Drivers/STM32L4xx_HAL_Driver/Src/stm32l4xx_hal_dma.c ****   }
 574              		.loc 1 1094 9 is_stmt 0 view .LVU198
 575 023e 0368     		ldr	r3, [r0]
1094:../Drivers/STM32L4xx_HAL_Driver/Src/stm32l4xx_hal_dma.c ****   }
 576              		.loc 1 1094 26 view .LVU199
 577 0240 D960     		str	r1, [r3, #12]
 578 0242 F3E7     		b	.L25
 579              	.LVL32:
 580              	.L26:
1094:../Drivers/STM32L4xx_HAL_Driver/Src/stm32l4xx_hal_dma.c ****   }
 581              		.loc 1 1094 26 view .LVU200
 582              	.LBE6:
 583              	.LBE7:
 438:../Drivers/STM32L4xx_HAL_Driver/Src/stm32l4xx_hal_dma.c **** 
 584              		.loc 1 438 3 view .LVU201
 585 0244 0220     		movs	r0, #2
 586              	.LVL33:
 438:../Drivers/STM32L4xx_HAL_Driver/Src/stm32l4xx_hal_dma.c **** 
 587              		.loc 1 438 3 view .LVU202
 588 0246 D4E7     		b	.L22
 589              		.cfi_endproc
 590              	.LFE135:
 591              		.size	HAL_DMA_Start, .-HAL_DMA_Start
 592              		.align	1
 593              		.global	HAL_DMA_Start_IT
 594              		.syntax unified
 595              		.thumb
 596              		.thumb_func
 597              		.fpu softvfp
 598              		.type	HAL_DMA_Start_IT, %function
 599              	HAL_DMA_Start_IT:
 600              	.LVL34:
 601              	.LFB136:
 474:../Drivers/STM32L4xx_HAL_Driver/Src/stm32l4xx_hal_dma.c ****   HAL_StatusTypeDef status = HAL_OK;
 602              		.loc 1 474 1 is_stmt 1 view -0
 603              		.cfi_startproc
 604              		@ args = 0, pretend = 0, frame = 0
 605              		@ frame_needed = 0, uses_anonymous_args = 0
 606              		@ link register save eliminated.
 474:../Drivers/STM32L4xx_HAL_Driver/Src/stm32l4xx_hal_dma.c ****   HAL_StatusTypeDef status = HAL_OK;
 607              		.loc 1 474 1 is_stmt 0 view .LVU204
ARM GAS  C:\Users\hoodc\AppData\Local\Temp\cc4eu5v8.s 			page 32


 608 0248 30B4     		push	{r4, r5}
 609              	.LCFI9:
 610              		.cfi_def_cfa_offset 8
 611              		.cfi_offset 4, -8
 612              		.cfi_offset 5, -4
 475:../Drivers/STM32L4xx_HAL_Driver/Src/stm32l4xx_hal_dma.c **** 
 613              		.loc 1 475 3 is_stmt 1 view .LVU205
 614              	.LVL35:
 478:../Drivers/STM32L4xx_HAL_Driver/Src/stm32l4xx_hal_dma.c **** 
 615              		.loc 1 478 3 view .LVU206
 481:../Drivers/STM32L4xx_HAL_Driver/Src/stm32l4xx_hal_dma.c **** 
 616              		.loc 1 481 3 view .LVU207
 481:../Drivers/STM32L4xx_HAL_Driver/Src/stm32l4xx_hal_dma.c **** 
 617              		.loc 1 481 3 view .LVU208
 618 024a 90F824C0 		ldrb	ip, [r0, #36]	@ zero_extendqisi2
 619 024e BCF1010F 		cmp	ip, #1
 620 0252 49D0     		beq	.L36
 481:../Drivers/STM32L4xx_HAL_Driver/Src/stm32l4xx_hal_dma.c **** 
 621              		.loc 1 481 3 discriminator 2 view .LVU209
 622 0254 4FF0010C 		mov	ip, #1
 623 0258 80F824C0 		strb	ip, [r0, #36]
 481:../Drivers/STM32L4xx_HAL_Driver/Src/stm32l4xx_hal_dma.c **** 
 624              		.loc 1 481 3 discriminator 2 view .LVU210
 483:../Drivers/STM32L4xx_HAL_Driver/Src/stm32l4xx_hal_dma.c ****   {
 625              		.loc 1 483 3 discriminator 2 view .LVU211
 483:../Drivers/STM32L4xx_HAL_Driver/Src/stm32l4xx_hal_dma.c ****   {
 626              		.loc 1 483 33 is_stmt 0 discriminator 2 view .LVU212
 627 025c 90F825C0 		ldrb	ip, [r0, #37]	@ zero_extendqisi2
 628 0260 5FFA8CFC 		uxtb	ip, ip
 483:../Drivers/STM32L4xx_HAL_Driver/Src/stm32l4xx_hal_dma.c ****   {
 629              		.loc 1 483 5 discriminator 2 view .LVU213
 630 0264 BCF1010F 		cmp	ip, #1
 631 0268 05D0     		beq	.L37
 532:../Drivers/STM32L4xx_HAL_Driver/Src/stm32l4xx_hal_dma.c **** 
 632              		.loc 1 532 5 is_stmt 1 view .LVU214
 532:../Drivers/STM32L4xx_HAL_Driver/Src/stm32l4xx_hal_dma.c **** 
 633              		.loc 1 532 5 view .LVU215
 634 026a 0023     		movs	r3, #0
 635              	.LVL36:
 532:../Drivers/STM32L4xx_HAL_Driver/Src/stm32l4xx_hal_dma.c **** 
 636              		.loc 1 532 5 is_stmt 0 view .LVU216
 637 026c 80F82430 		strb	r3, [r0, #36]
 532:../Drivers/STM32L4xx_HAL_Driver/Src/stm32l4xx_hal_dma.c **** 
 638              		.loc 1 532 5 is_stmt 1 view .LVU217
 535:../Drivers/STM32L4xx_HAL_Driver/Src/stm32l4xx_hal_dma.c ****   }
 639              		.loc 1 535 5 view .LVU218
 640              	.LVL37:
 535:../Drivers/STM32L4xx_HAL_Driver/Src/stm32l4xx_hal_dma.c ****   }
 641              		.loc 1 535 12 is_stmt 0 view .LVU219
 642 0270 0220     		movs	r0, #2
 643              	.LVL38:
 644              	.L30:
 538:../Drivers/STM32L4xx_HAL_Driver/Src/stm32l4xx_hal_dma.c **** 
 645              		.loc 1 538 1 view .LVU220
 646 0272 30BC     		pop	{r4, r5}
 647              	.LCFI10:
 648              		.cfi_remember_state
ARM GAS  C:\Users\hoodc\AppData\Local\Temp\cc4eu5v8.s 			page 33


 649              		.cfi_restore 5
 650              		.cfi_restore 4
 651              		.cfi_def_cfa_offset 0
 652 0274 7047     		bx	lr
 653              	.LVL39:
 654              	.L37:
 655              	.LCFI11:
 656              		.cfi_restore_state
 486:../Drivers/STM32L4xx_HAL_Driver/Src/stm32l4xx_hal_dma.c ****     hdma->ErrorCode = HAL_DMA_ERROR_NONE;
 657              		.loc 1 486 5 is_stmt 1 view .LVU221
 486:../Drivers/STM32L4xx_HAL_Driver/Src/stm32l4xx_hal_dma.c ****     hdma->ErrorCode = HAL_DMA_ERROR_NONE;
 658              		.loc 1 486 17 is_stmt 0 view .LVU222
 659 0276 0224     		movs	r4, #2
 660 0278 80F82540 		strb	r4, [r0, #37]
 487:../Drivers/STM32L4xx_HAL_Driver/Src/stm32l4xx_hal_dma.c **** 
 661              		.loc 1 487 5 is_stmt 1 view .LVU223
 487:../Drivers/STM32L4xx_HAL_Driver/Src/stm32l4xx_hal_dma.c **** 
 662              		.loc 1 487 21 is_stmt 0 view .LVU224
 663 027c 0024     		movs	r4, #0
 664 027e C463     		str	r4, [r0, #60]
 490:../Drivers/STM32L4xx_HAL_Driver/Src/stm32l4xx_hal_dma.c **** 
 665              		.loc 1 490 5 is_stmt 1 view .LVU225
 666 0280 0568     		ldr	r5, [r0]
 667 0282 2C68     		ldr	r4, [r5]
 668 0284 24F00104 		bic	r4, r4, #1
 669 0288 2C60     		str	r4, [r5]
 493:../Drivers/STM32L4xx_HAL_Driver/Src/stm32l4xx_hal_dma.c **** 
 670              		.loc 1 493 5 view .LVU226
 671              	.LVL40:
 672              	.LBB10:
 673              	.LBI10:
1068:../Drivers/STM32L4xx_HAL_Driver/Src/stm32l4xx_hal_dma.c **** {
 674              		.loc 1 1068 13 view .LVU227
 675              	.LBB11:
1082:../Drivers/STM32L4xx_HAL_Driver/Src/stm32l4xx_hal_dma.c **** 
 676              		.loc 1 1082 3 view .LVU228
1082:../Drivers/STM32L4xx_HAL_Driver/Src/stm32l4xx_hal_dma.c **** 
 677              		.loc 1 1082 69 is_stmt 0 view .LVU229
 678 028a 446C     		ldr	r4, [r0, #68]
 679 028c 04F01C0C 		and	ip, r4, #28
1082:../Drivers/STM32L4xx_HAL_Driver/Src/stm32l4xx_hal_dma.c **** 
 680              		.loc 1 1082 46 view .LVU230
 681 0290 0124     		movs	r4, #1
 682 0292 04FA0CF4 		lsl	r4, r4, ip
1082:../Drivers/STM32L4xx_HAL_Driver/Src/stm32l4xx_hal_dma.c **** 
 683              		.loc 1 1082 30 view .LVU231
 684 0296 056C     		ldr	r5, [r0, #64]
 685 0298 6C60     		str	r4, [r5, #4]
1085:../Drivers/STM32L4xx_HAL_Driver/Src/stm32l4xx_hal_dma.c **** 
 686              		.loc 1 1085 3 is_stmt 1 view .LVU232
1085:../Drivers/STM32L4xx_HAL_Driver/Src/stm32l4xx_hal_dma.c **** 
 687              		.loc 1 1085 7 is_stmt 0 view .LVU233
 688 029a 0468     		ldr	r4, [r0]
1085:../Drivers/STM32L4xx_HAL_Driver/Src/stm32l4xx_hal_dma.c **** 
 689              		.loc 1 1085 25 view .LVU234
 690 029c 6360     		str	r3, [r4, #4]
1088:../Drivers/STM32L4xx_HAL_Driver/Src/stm32l4xx_hal_dma.c ****   {
ARM GAS  C:\Users\hoodc\AppData\Local\Temp\cc4eu5v8.s 			page 34


 691              		.loc 1 1088 3 is_stmt 1 view .LVU235
1088:../Drivers/STM32L4xx_HAL_Driver/Src/stm32l4xx_hal_dma.c ****   {
 692              		.loc 1 1088 5 is_stmt 0 view .LVU236
 693 029e 8368     		ldr	r3, [r0, #8]
 694              	.LVL41:
1088:../Drivers/STM32L4xx_HAL_Driver/Src/stm32l4xx_hal_dma.c ****   {
 695              		.loc 1 1088 5 view .LVU237
 696 02a0 102B     		cmp	r3, #16
 697 02a2 11D0     		beq	.L38
1100:../Drivers/STM32L4xx_HAL_Driver/Src/stm32l4xx_hal_dma.c **** 
 698              		.loc 1 1100 5 is_stmt 1 view .LVU238
1100:../Drivers/STM32L4xx_HAL_Driver/Src/stm32l4xx_hal_dma.c **** 
 699              		.loc 1 1100 9 is_stmt 0 view .LVU239
 700 02a4 0368     		ldr	r3, [r0]
1100:../Drivers/STM32L4xx_HAL_Driver/Src/stm32l4xx_hal_dma.c **** 
 701              		.loc 1 1100 26 view .LVU240
 702 02a6 9960     		str	r1, [r3, #8]
 703              	.LVL42:
 704              		.loc 1 1103 5 is_stmt 1 view .LVU241
 705              		.loc 1 1103 9 is_stmt 0 view .LVU242
 706 02a8 0368     		ldr	r3, [r0]
 707              		.loc 1 1103 26 view .LVU243
 708 02aa DA60     		str	r2, [r3, #12]
 709              	.L33:
 710              	.LVL43:
 711              		.loc 1 1103 26 view .LVU244
 712              	.LBE11:
 713              	.LBE10:
 497:../Drivers/STM32L4xx_HAL_Driver/Src/stm32l4xx_hal_dma.c ****     {
 714              		.loc 1 497 5 is_stmt 1 view .LVU245
 497:../Drivers/STM32L4xx_HAL_Driver/Src/stm32l4xx_hal_dma.c ****     {
 715              		.loc 1 497 7 is_stmt 0 view .LVU246
 716 02ac 036B     		ldr	r3, [r0, #48]
 717 02ae 83B1     		cbz	r3, .L34
 500:../Drivers/STM32L4xx_HAL_Driver/Src/stm32l4xx_hal_dma.c ****     }
 718              		.loc 1 500 7 is_stmt 1 view .LVU247
 719 02b0 0268     		ldr	r2, [r0]
 720              	.LVL44:
 500:../Drivers/STM32L4xx_HAL_Driver/Src/stm32l4xx_hal_dma.c ****     }
 721              		.loc 1 500 7 is_stmt 0 view .LVU248
 722 02b2 1368     		ldr	r3, [r2]
 723 02b4 43F00E03 		orr	r3, r3, #14
 724 02b8 1360     		str	r3, [r2]
 725              	.L35:
 527:../Drivers/STM32L4xx_HAL_Driver/Src/stm32l4xx_hal_dma.c ****   }
 726              		.loc 1 527 5 is_stmt 1 view .LVU249
 727 02ba 0268     		ldr	r2, [r0]
 728 02bc 1368     		ldr	r3, [r2]
 729 02be 43F00103 		orr	r3, r3, #1
 730 02c2 1360     		str	r3, [r2]
 475:../Drivers/STM32L4xx_HAL_Driver/Src/stm32l4xx_hal_dma.c **** 
 731              		.loc 1 475 21 is_stmt 0 view .LVU250
 732 02c4 0020     		movs	r0, #0
 733              	.LVL45:
 475:../Drivers/STM32L4xx_HAL_Driver/Src/stm32l4xx_hal_dma.c **** 
 734              		.loc 1 475 21 view .LVU251
 735 02c6 D4E7     		b	.L30
ARM GAS  C:\Users\hoodc\AppData\Local\Temp\cc4eu5v8.s 			page 35


 736              	.LVL46:
 737              	.L38:
 738              	.LBB13:
 739              	.LBB12:
1091:../Drivers/STM32L4xx_HAL_Driver/Src/stm32l4xx_hal_dma.c **** 
 740              		.loc 1 1091 5 is_stmt 1 view .LVU252
1091:../Drivers/STM32L4xx_HAL_Driver/Src/stm32l4xx_hal_dma.c **** 
 741              		.loc 1 1091 9 is_stmt 0 view .LVU253
 742 02c8 0368     		ldr	r3, [r0]
1091:../Drivers/STM32L4xx_HAL_Driver/Src/stm32l4xx_hal_dma.c **** 
 743              		.loc 1 1091 26 view .LVU254
 744 02ca 9A60     		str	r2, [r3, #8]
 745              	.LVL47:
1094:../Drivers/STM32L4xx_HAL_Driver/Src/stm32l4xx_hal_dma.c ****   }
 746              		.loc 1 1094 5 is_stmt 1 view .LVU255
1094:../Drivers/STM32L4xx_HAL_Driver/Src/stm32l4xx_hal_dma.c ****   }
 747              		.loc 1 1094 9 is_stmt 0 view .LVU256
 748 02cc 0368     		ldr	r3, [r0]
1094:../Drivers/STM32L4xx_HAL_Driver/Src/stm32l4xx_hal_dma.c ****   }
 749              		.loc 1 1094 26 view .LVU257
 750 02ce D960     		str	r1, [r3, #12]
 751 02d0 ECE7     		b	.L33
 752              	.LVL48:
 753              	.L34:
1094:../Drivers/STM32L4xx_HAL_Driver/Src/stm32l4xx_hal_dma.c ****   }
 754              		.loc 1 1094 26 view .LVU258
 755              	.LBE12:
 756              	.LBE13:
 504:../Drivers/STM32L4xx_HAL_Driver/Src/stm32l4xx_hal_dma.c ****       __HAL_DMA_ENABLE_IT(hdma, (DMA_IT_TC | DMA_IT_TE));
 757              		.loc 1 504 7 is_stmt 1 view .LVU259
 758 02d2 0268     		ldr	r2, [r0]
 759              	.LVL49:
 504:../Drivers/STM32L4xx_HAL_Driver/Src/stm32l4xx_hal_dma.c ****       __HAL_DMA_ENABLE_IT(hdma, (DMA_IT_TC | DMA_IT_TE));
 760              		.loc 1 504 7 is_stmt 0 view .LVU260
 761 02d4 1368     		ldr	r3, [r2]
 762 02d6 23F00403 		bic	r3, r3, #4
 763 02da 1360     		str	r3, [r2]
 505:../Drivers/STM32L4xx_HAL_Driver/Src/stm32l4xx_hal_dma.c ****     }
 764              		.loc 1 505 7 is_stmt 1 view .LVU261
 765 02dc 0268     		ldr	r2, [r0]
 766 02de 1368     		ldr	r3, [r2]
 767 02e0 43F00A03 		orr	r3, r3, #10
 768 02e4 1360     		str	r3, [r2]
 769 02e6 E8E7     		b	.L35
 770              	.LVL50:
 771              	.L36:
 481:../Drivers/STM32L4xx_HAL_Driver/Src/stm32l4xx_hal_dma.c **** 
 772              		.loc 1 481 3 is_stmt 0 view .LVU262
 773 02e8 0220     		movs	r0, #2
 774              	.LVL51:
 481:../Drivers/STM32L4xx_HAL_Driver/Src/stm32l4xx_hal_dma.c **** 
 775              		.loc 1 481 3 view .LVU263
 776 02ea C2E7     		b	.L30
 777              		.cfi_endproc
 778              	.LFE136:
 779              		.size	HAL_DMA_Start_IT, .-HAL_DMA_Start_IT
 780              		.align	1
ARM GAS  C:\Users\hoodc\AppData\Local\Temp\cc4eu5v8.s 			page 36


 781              		.global	HAL_DMA_Abort
 782              		.syntax unified
 783              		.thumb
 784              		.thumb_func
 785              		.fpu softvfp
 786              		.type	HAL_DMA_Abort, %function
 787              	HAL_DMA_Abort:
 788              	.LVL52:
 789              	.LFB137:
 547:../Drivers/STM32L4xx_HAL_Driver/Src/stm32l4xx_hal_dma.c ****   HAL_StatusTypeDef status = HAL_OK;
 790              		.loc 1 547 1 is_stmt 1 view -0
 791              		.cfi_startproc
 792              		@ args = 0, pretend = 0, frame = 0
 793              		@ frame_needed = 0, uses_anonymous_args = 0
 794              		@ link register save eliminated.
 548:../Drivers/STM32L4xx_HAL_Driver/Src/stm32l4xx_hal_dma.c **** 
 795              		.loc 1 548 3 view .LVU265
 551:../Drivers/STM32L4xx_HAL_Driver/Src/stm32l4xx_hal_dma.c ****   {
 796              		.loc 1 551 3 view .LVU266
 551:../Drivers/STM32L4xx_HAL_Driver/Src/stm32l4xx_hal_dma.c ****   {
 797              		.loc 1 551 10 is_stmt 0 view .LVU267
 798 02ec 90F82530 		ldrb	r3, [r0, #37]	@ zero_extendqisi2
 799 02f0 DBB2     		uxtb	r3, r3
 551:../Drivers/STM32L4xx_HAL_Driver/Src/stm32l4xx_hal_dma.c ****   {
 800              		.loc 1 551 5 view .LVU268
 801 02f2 022B     		cmp	r3, #2
 802 02f4 06D0     		beq	.L40
 553:../Drivers/STM32L4xx_HAL_Driver/Src/stm32l4xx_hal_dma.c **** 
 803              		.loc 1 553 5 is_stmt 1 view .LVU269
 553:../Drivers/STM32L4xx_HAL_Driver/Src/stm32l4xx_hal_dma.c **** 
 804              		.loc 1 553 21 is_stmt 0 view .LVU270
 805 02f6 0423     		movs	r3, #4
 806 02f8 C363     		str	r3, [r0, #60]
 556:../Drivers/STM32L4xx_HAL_Driver/Src/stm32l4xx_hal_dma.c **** 
 807              		.loc 1 556 5 is_stmt 1 view .LVU271
 556:../Drivers/STM32L4xx_HAL_Driver/Src/stm32l4xx_hal_dma.c **** 
 808              		.loc 1 556 5 view .LVU272
 809 02fa 0023     		movs	r3, #0
 810 02fc 80F82430 		strb	r3, [r0, #36]
 556:../Drivers/STM32L4xx_HAL_Driver/Src/stm32l4xx_hal_dma.c **** 
 811              		.loc 1 556 5 view .LVU273
 558:../Drivers/STM32L4xx_HAL_Driver/Src/stm32l4xx_hal_dma.c ****   }
 812              		.loc 1 558 5 view .LVU274
 558:../Drivers/STM32L4xx_HAL_Driver/Src/stm32l4xx_hal_dma.c ****   }
 813              		.loc 1 558 12 is_stmt 0 view .LVU275
 814 0300 0120     		movs	r0, #1
 815              	.LVL53:
 558:../Drivers/STM32L4xx_HAL_Driver/Src/stm32l4xx_hal_dma.c ****   }
 816              		.loc 1 558 12 view .LVU276
 817 0302 7047     		bx	lr
 818              	.LVL54:
 819              	.L40:
 563:../Drivers/STM32L4xx_HAL_Driver/Src/stm32l4xx_hal_dma.c **** 
 820              		.loc 1 563 5 is_stmt 1 view .LVU277
 821 0304 0268     		ldr	r2, [r0]
 822 0306 1368     		ldr	r3, [r2]
 823 0308 23F00E03 		bic	r3, r3, #14
ARM GAS  C:\Users\hoodc\AppData\Local\Temp\cc4eu5v8.s 			page 37


 824 030c 1360     		str	r3, [r2]
 571:../Drivers/STM32L4xx_HAL_Driver/Src/stm32l4xx_hal_dma.c **** 
 825              		.loc 1 571 5 view .LVU278
 826 030e 0268     		ldr	r2, [r0]
 827 0310 1368     		ldr	r3, [r2]
 828 0312 23F00103 		bic	r3, r3, #1
 829 0316 1360     		str	r3, [r2]
 574:../Drivers/STM32L4xx_HAL_Driver/Src/stm32l4xx_hal_dma.c **** 
 830              		.loc 1 574 5 view .LVU279
 574:../Drivers/STM32L4xx_HAL_Driver/Src/stm32l4xx_hal_dma.c **** 
 831              		.loc 1 574 9 is_stmt 0 view .LVU280
 832 0318 016C     		ldr	r1, [r0, #64]
 574:../Drivers/STM32L4xx_HAL_Driver/Src/stm32l4xx_hal_dma.c **** 
 833              		.loc 1 574 71 view .LVU281
 834 031a 436C     		ldr	r3, [r0, #68]
 835 031c 03F01C03 		and	r3, r3, #28
 574:../Drivers/STM32L4xx_HAL_Driver/Src/stm32l4xx_hal_dma.c **** 
 836              		.loc 1 574 48 view .LVU282
 837 0320 0122     		movs	r2, #1
 838 0322 02FA03F3 		lsl	r3, r2, r3
 574:../Drivers/STM32L4xx_HAL_Driver/Src/stm32l4xx_hal_dma.c **** 
 839              		.loc 1 574 32 view .LVU283
 840 0326 4B60     		str	r3, [r1, #4]
 593:../Drivers/STM32L4xx_HAL_Driver/Src/stm32l4xx_hal_dma.c **** 
 841              		.loc 1 593 5 is_stmt 1 view .LVU284
 593:../Drivers/STM32L4xx_HAL_Driver/Src/stm32l4xx_hal_dma.c **** 
 842              		.loc 1 593 17 is_stmt 0 view .LVU285
 843 0328 80F82520 		strb	r2, [r0, #37]
 596:../Drivers/STM32L4xx_HAL_Driver/Src/stm32l4xx_hal_dma.c **** 
 844              		.loc 1 596 5 is_stmt 1 view .LVU286
 596:../Drivers/STM32L4xx_HAL_Driver/Src/stm32l4xx_hal_dma.c **** 
 845              		.loc 1 596 5 view .LVU287
 846 032c 0023     		movs	r3, #0
 847 032e 80F82430 		strb	r3, [r0, #36]
 596:../Drivers/STM32L4xx_HAL_Driver/Src/stm32l4xx_hal_dma.c **** 
 848              		.loc 1 596 5 view .LVU288
 598:../Drivers/STM32L4xx_HAL_Driver/Src/stm32l4xx_hal_dma.c ****   }
 849              		.loc 1 598 5 view .LVU289
 598:../Drivers/STM32L4xx_HAL_Driver/Src/stm32l4xx_hal_dma.c ****   }
 850              		.loc 1 598 12 is_stmt 0 view .LVU290
 851 0332 1846     		mov	r0, r3
 852              	.LVL55:
 600:../Drivers/STM32L4xx_HAL_Driver/Src/stm32l4xx_hal_dma.c **** 
 853              		.loc 1 600 1 view .LVU291
 854 0334 7047     		bx	lr
 855              		.cfi_endproc
 856              	.LFE137:
 857              		.size	HAL_DMA_Abort, .-HAL_DMA_Abort
 858              		.align	1
 859              		.global	HAL_DMA_Abort_IT
 860              		.syntax unified
 861              		.thumb
 862              		.thumb_func
 863              		.fpu softvfp
 864              		.type	HAL_DMA_Abort_IT, %function
 865              	HAL_DMA_Abort_IT:
 866              	.LVL56:
ARM GAS  C:\Users\hoodc\AppData\Local\Temp\cc4eu5v8.s 			page 38


 867              	.LFB138:
 609:../Drivers/STM32L4xx_HAL_Driver/Src/stm32l4xx_hal_dma.c ****   HAL_StatusTypeDef status = HAL_OK;
 868              		.loc 1 609 1 is_stmt 1 view -0
 869              		.cfi_startproc
 870              		@ args = 0, pretend = 0, frame = 0
 871              		@ frame_needed = 0, uses_anonymous_args = 0
 609:../Drivers/STM32L4xx_HAL_Driver/Src/stm32l4xx_hal_dma.c ****   HAL_StatusTypeDef status = HAL_OK;
 872              		.loc 1 609 1 is_stmt 0 view .LVU293
 873 0336 08B5     		push	{r3, lr}
 874              	.LCFI12:
 875              		.cfi_def_cfa_offset 8
 876              		.cfi_offset 3, -8
 877              		.cfi_offset 14, -4
 610:../Drivers/STM32L4xx_HAL_Driver/Src/stm32l4xx_hal_dma.c **** 
 878              		.loc 1 610 3 is_stmt 1 view .LVU294
 879              	.LVL57:
 612:../Drivers/STM32L4xx_HAL_Driver/Src/stm32l4xx_hal_dma.c ****   {
 880              		.loc 1 612 3 view .LVU295
 612:../Drivers/STM32L4xx_HAL_Driver/Src/stm32l4xx_hal_dma.c ****   {
 881              		.loc 1 612 32 is_stmt 0 view .LVU296
 882 0338 90F82530 		ldrb	r3, [r0, #37]	@ zero_extendqisi2
 883 033c DBB2     		uxtb	r3, r3
 612:../Drivers/STM32L4xx_HAL_Driver/Src/stm32l4xx_hal_dma.c ****   {
 884              		.loc 1 612 5 view .LVU297
 885 033e 022B     		cmp	r3, #2
 886 0340 03D0     		beq	.L43
 615:../Drivers/STM32L4xx_HAL_Driver/Src/stm32l4xx_hal_dma.c **** 
 887              		.loc 1 615 5 is_stmt 1 view .LVU298
 615:../Drivers/STM32L4xx_HAL_Driver/Src/stm32l4xx_hal_dma.c **** 
 888              		.loc 1 615 21 is_stmt 0 view .LVU299
 889 0342 0423     		movs	r3, #4
 890 0344 C363     		str	r3, [r0, #60]
 617:../Drivers/STM32L4xx_HAL_Driver/Src/stm32l4xx_hal_dma.c ****   }
 891              		.loc 1 617 5 is_stmt 1 view .LVU300
 892              	.LVL58:
 617:../Drivers/STM32L4xx_HAL_Driver/Src/stm32l4xx_hal_dma.c ****   }
 893              		.loc 1 617 12 is_stmt 0 view .LVU301
 894 0346 0120     		movs	r0, #1
 895              	.LVL59:
 896              	.L44:
 664:../Drivers/STM32L4xx_HAL_Driver/Src/stm32l4xx_hal_dma.c **** }
 897              		.loc 1 664 3 is_stmt 1 view .LVU302
 665:../Drivers/STM32L4xx_HAL_Driver/Src/stm32l4xx_hal_dma.c **** 
 898              		.loc 1 665 1 is_stmt 0 view .LVU303
 899 0348 08BD     		pop	{r3, pc}
 900              	.LVL60:
 901              	.L43:
 622:../Drivers/STM32L4xx_HAL_Driver/Src/stm32l4xx_hal_dma.c **** 
 902              		.loc 1 622 5 is_stmt 1 view .LVU304
 903 034a 0268     		ldr	r2, [r0]
 904 034c 1368     		ldr	r3, [r2]
 905 034e 23F00E03 		bic	r3, r3, #14
 906 0352 1360     		str	r3, [r2]
 625:../Drivers/STM32L4xx_HAL_Driver/Src/stm32l4xx_hal_dma.c **** 
 907              		.loc 1 625 5 view .LVU305
 908 0354 0268     		ldr	r2, [r0]
 909 0356 1368     		ldr	r3, [r2]
ARM GAS  C:\Users\hoodc\AppData\Local\Temp\cc4eu5v8.s 			page 39


 910 0358 23F00103 		bic	r3, r3, #1
 911 035c 1360     		str	r3, [r2]
 649:../Drivers/STM32L4xx_HAL_Driver/Src/stm32l4xx_hal_dma.c **** #endif /* DMAMUX1 */
 912              		.loc 1 649 5 view .LVU306
 649:../Drivers/STM32L4xx_HAL_Driver/Src/stm32l4xx_hal_dma.c **** #endif /* DMAMUX1 */
 913              		.loc 1 649 9 is_stmt 0 view .LVU307
 914 035e 016C     		ldr	r1, [r0, #64]
 649:../Drivers/STM32L4xx_HAL_Driver/Src/stm32l4xx_hal_dma.c **** #endif /* DMAMUX1 */
 915              		.loc 1 649 71 view .LVU308
 916 0360 436C     		ldr	r3, [r0, #68]
 917 0362 03F01C03 		and	r3, r3, #28
 649:../Drivers/STM32L4xx_HAL_Driver/Src/stm32l4xx_hal_dma.c **** #endif /* DMAMUX1 */
 918              		.loc 1 649 48 view .LVU309
 919 0366 0122     		movs	r2, #1
 920 0368 02FA03F3 		lsl	r3, r2, r3
 649:../Drivers/STM32L4xx_HAL_Driver/Src/stm32l4xx_hal_dma.c **** #endif /* DMAMUX1 */
 921              		.loc 1 649 32 view .LVU310
 922 036c 4B60     		str	r3, [r1, #4]
 653:../Drivers/STM32L4xx_HAL_Driver/Src/stm32l4xx_hal_dma.c **** 
 923              		.loc 1 653 5 is_stmt 1 view .LVU311
 653:../Drivers/STM32L4xx_HAL_Driver/Src/stm32l4xx_hal_dma.c **** 
 924              		.loc 1 653 17 is_stmt 0 view .LVU312
 925 036e 80F82520 		strb	r2, [r0, #37]
 656:../Drivers/STM32L4xx_HAL_Driver/Src/stm32l4xx_hal_dma.c **** 
 926              		.loc 1 656 5 is_stmt 1 view .LVU313
 656:../Drivers/STM32L4xx_HAL_Driver/Src/stm32l4xx_hal_dma.c **** 
 927              		.loc 1 656 5 view .LVU314
 928 0372 0023     		movs	r3, #0
 929 0374 80F82430 		strb	r3, [r0, #36]
 656:../Drivers/STM32L4xx_HAL_Driver/Src/stm32l4xx_hal_dma.c **** 
 930              		.loc 1 656 5 view .LVU315
 659:../Drivers/STM32L4xx_HAL_Driver/Src/stm32l4xx_hal_dma.c ****     {
 931              		.loc 1 659 5 view .LVU316
 659:../Drivers/STM32L4xx_HAL_Driver/Src/stm32l4xx_hal_dma.c ****     {
 932              		.loc 1 659 12 is_stmt 0 view .LVU317
 933 0378 836B     		ldr	r3, [r0, #56]
 659:../Drivers/STM32L4xx_HAL_Driver/Src/stm32l4xx_hal_dma.c ****     {
 934              		.loc 1 659 7 view .LVU318
 935 037a 13B1     		cbz	r3, .L45
 661:../Drivers/STM32L4xx_HAL_Driver/Src/stm32l4xx_hal_dma.c ****     }
 936              		.loc 1 661 7 is_stmt 1 view .LVU319
 937 037c 9847     		blx	r3
 938              	.LVL61:
 610:../Drivers/STM32L4xx_HAL_Driver/Src/stm32l4xx_hal_dma.c **** 
 939              		.loc 1 610 21 is_stmt 0 view .LVU320
 940 037e 0020     		movs	r0, #0
 941 0380 E2E7     		b	.L44
 942              	.LVL62:
 943              	.L45:
 610:../Drivers/STM32L4xx_HAL_Driver/Src/stm32l4xx_hal_dma.c **** 
 944              		.loc 1 610 21 view .LVU321
 945 0382 0020     		movs	r0, #0
 946              	.LVL63:
 610:../Drivers/STM32L4xx_HAL_Driver/Src/stm32l4xx_hal_dma.c **** 
 947              		.loc 1 610 21 view .LVU322
 948 0384 E0E7     		b	.L44
 949              		.cfi_endproc
ARM GAS  C:\Users\hoodc\AppData\Local\Temp\cc4eu5v8.s 			page 40


 950              	.LFE138:
 951              		.size	HAL_DMA_Abort_IT, .-HAL_DMA_Abort_IT
 952              		.align	1
 953              		.global	HAL_DMA_PollForTransfer
 954              		.syntax unified
 955              		.thumb
 956              		.thumb_func
 957              		.fpu softvfp
 958              		.type	HAL_DMA_PollForTransfer, %function
 959              	HAL_DMA_PollForTransfer:
 960              	.LVL64:
 961              	.LFB139:
 676:../Drivers/STM32L4xx_HAL_Driver/Src/stm32l4xx_hal_dma.c ****   uint32_t temp;
 962              		.loc 1 676 1 is_stmt 1 view -0
 963              		.cfi_startproc
 964              		@ args = 0, pretend = 0, frame = 0
 965              		@ frame_needed = 0, uses_anonymous_args = 0
 676:../Drivers/STM32L4xx_HAL_Driver/Src/stm32l4xx_hal_dma.c ****   uint32_t temp;
 966              		.loc 1 676 1 is_stmt 0 view .LVU324
 967 0386 2DE9F843 		push	{r3, r4, r5, r6, r7, r8, r9, lr}
 968              	.LCFI13:
 969              		.cfi_def_cfa_offset 32
 970              		.cfi_offset 3, -32
 971              		.cfi_offset 4, -28
 972              		.cfi_offset 5, -24
 973              		.cfi_offset 6, -20
 974              		.cfi_offset 7, -16
 975              		.cfi_offset 8, -12
 976              		.cfi_offset 9, -8
 977              		.cfi_offset 14, -4
 978 038a 0446     		mov	r4, r0
 979 038c 8846     		mov	r8, r1
 980 038e 1546     		mov	r5, r2
 677:../Drivers/STM32L4xx_HAL_Driver/Src/stm32l4xx_hal_dma.c ****   uint32_t tickstart;
 981              		.loc 1 677 3 is_stmt 1 view .LVU325
 678:../Drivers/STM32L4xx_HAL_Driver/Src/stm32l4xx_hal_dma.c **** 
 982              		.loc 1 678 3 view .LVU326
 680:../Drivers/STM32L4xx_HAL_Driver/Src/stm32l4xx_hal_dma.c ****   {
 983              		.loc 1 680 3 view .LVU327
 680:../Drivers/STM32L4xx_HAL_Driver/Src/stm32l4xx_hal_dma.c ****   {
 984              		.loc 1 680 32 is_stmt 0 view .LVU328
 985 0390 90F82530 		ldrb	r3, [r0, #37]	@ zero_extendqisi2
 986 0394 DBB2     		uxtb	r3, r3
 680:../Drivers/STM32L4xx_HAL_Driver/Src/stm32l4xx_hal_dma.c ****   {
 987              		.loc 1 680 5 view .LVU329
 988 0396 022B     		cmp	r3, #2
 989 0398 07D0     		beq	.L47
 683:../Drivers/STM32L4xx_HAL_Driver/Src/stm32l4xx_hal_dma.c ****     __HAL_UNLOCK(hdma);
 990              		.loc 1 683 5 is_stmt 1 view .LVU330
 683:../Drivers/STM32L4xx_HAL_Driver/Src/stm32l4xx_hal_dma.c ****     __HAL_UNLOCK(hdma);
 991              		.loc 1 683 21 is_stmt 0 view .LVU331
 992 039a 0423     		movs	r3, #4
 993 039c C363     		str	r3, [r0, #60]
 684:../Drivers/STM32L4xx_HAL_Driver/Src/stm32l4xx_hal_dma.c ****     return HAL_ERROR;
 994              		.loc 1 684 5 is_stmt 1 view .LVU332
 684:../Drivers/STM32L4xx_HAL_Driver/Src/stm32l4xx_hal_dma.c ****     return HAL_ERROR;
 995              		.loc 1 684 5 view .LVU333
ARM GAS  C:\Users\hoodc\AppData\Local\Temp\cc4eu5v8.s 			page 41


 996 039e 0023     		movs	r3, #0
 997 03a0 80F82430 		strb	r3, [r0, #36]
 684:../Drivers/STM32L4xx_HAL_Driver/Src/stm32l4xx_hal_dma.c ****     return HAL_ERROR;
 998              		.loc 1 684 5 view .LVU334
 685:../Drivers/STM32L4xx_HAL_Driver/Src/stm32l4xx_hal_dma.c ****   }
 999              		.loc 1 685 5 view .LVU335
 685:../Drivers/STM32L4xx_HAL_Driver/Src/stm32l4xx_hal_dma.c ****   }
 1000              		.loc 1 685 12 is_stmt 0 view .LVU336
 1001 03a4 0120     		movs	r0, #1
 1002              	.LVL65:
 1003              	.L48:
 797:../Drivers/STM32L4xx_HAL_Driver/Src/stm32l4xx_hal_dma.c **** 
 1004              		.loc 1 797 1 view .LVU337
 1005 03a6 BDE8F883 		pop	{r3, r4, r5, r6, r7, r8, r9, pc}
 1006              	.LVL66:
 1007              	.L47:
 689:../Drivers/STM32L4xx_HAL_Driver/Src/stm32l4xx_hal_dma.c ****   {
 1008              		.loc 1 689 3 is_stmt 1 view .LVU338
 689:../Drivers/STM32L4xx_HAL_Driver/Src/stm32l4xx_hal_dma.c ****   {
 1009              		.loc 1 689 12 is_stmt 0 view .LVU339
 1010 03aa 0368     		ldr	r3, [r0]
 689:../Drivers/STM32L4xx_HAL_Driver/Src/stm32l4xx_hal_dma.c ****   {
 1011              		.loc 1 689 22 view .LVU340
 1012 03ac 1B68     		ldr	r3, [r3]
 689:../Drivers/STM32L4xx_HAL_Driver/Src/stm32l4xx_hal_dma.c ****   {
 1013              		.loc 1 689 6 view .LVU341
 1014 03ae 13F0200F 		tst	r3, #32
 1015 03b2 2AD1     		bne	.L61
 696:../Drivers/STM32L4xx_HAL_Driver/Src/stm32l4xx_hal_dma.c ****   {
 1016              		.loc 1 696 3 is_stmt 1 view .LVU342
 696:../Drivers/STM32L4xx_HAL_Driver/Src/stm32l4xx_hal_dma.c ****   {
 1017              		.loc 1 696 6 is_stmt 0 view .LVU343
 1018 03b4 71BB     		cbnz	r1, .L50
 699:../Drivers/STM32L4xx_HAL_Driver/Src/stm32l4xx_hal_dma.c ****   }
 1019              		.loc 1 699 5 is_stmt 1 view .LVU344
 699:../Drivers/STM32L4xx_HAL_Driver/Src/stm32l4xx_hal_dma.c ****   }
 1020              		.loc 1 699 48 is_stmt 0 view .LVU345
 1021 03b6 466C     		ldr	r6, [r0, #68]
 1022 03b8 06F01C06 		and	r6, r6, #28
 699:../Drivers/STM32L4xx_HAL_Driver/Src/stm32l4xx_hal_dma.c ****   }
 1023              		.loc 1 699 10 view .LVU346
 1024 03bc 0223     		movs	r3, #2
 1025 03be 03FA06F6 		lsl	r6, r3, r6
 1026              	.LVL67:
 1027              	.L51:
 708:../Drivers/STM32L4xx_HAL_Driver/Src/stm32l4xx_hal_dma.c **** 
 1028              		.loc 1 708 3 is_stmt 1 view .LVU347
 708:../Drivers/STM32L4xx_HAL_Driver/Src/stm32l4xx_hal_dma.c **** 
 1029              		.loc 1 708 15 is_stmt 0 view .LVU348
 1030 03c2 FFF7FEFF 		bl	HAL_GetTick
 1031              	.LVL68:
 708:../Drivers/STM32L4xx_HAL_Driver/Src/stm32l4xx_hal_dma.c **** 
 1032              		.loc 1 708 15 view .LVU349
 1033 03c6 8146     		mov	r9, r0
 1034              	.LVL69:
 710:../Drivers/STM32L4xx_HAL_Driver/Src/stm32l4xx_hal_dma.c ****   {
 1035              		.loc 1 710 3 is_stmt 1 view .LVU350
ARM GAS  C:\Users\hoodc\AppData\Local\Temp\cc4eu5v8.s 			page 42


 712:../Drivers/STM32L4xx_HAL_Driver/Src/stm32l4xx_hal_dma.c ****     {
 1036              		.loc 1 712 51 is_stmt 0 view .LVU351
 1037 03c8 0827     		movs	r7, #8
 1038              	.LVL70:
 1039              	.L52:
 710:../Drivers/STM32L4xx_HAL_Driver/Src/stm32l4xx_hal_dma.c ****   {
 1040              		.loc 1 710 14 view .LVU352
 1041 03ca 226C     		ldr	r2, [r4, #64]
 1042              	.L54:
 710:../Drivers/STM32L4xx_HAL_Driver/Src/stm32l4xx_hal_dma.c ****   {
 1043              		.loc 1 710 8 is_stmt 1 view .LVU353
 710:../Drivers/STM32L4xx_HAL_Driver/Src/stm32l4xx_hal_dma.c ****   {
 1044              		.loc 1 710 30 is_stmt 0 view .LVU354
 1045 03cc 1368     		ldr	r3, [r2]
 710:../Drivers/STM32L4xx_HAL_Driver/Src/stm32l4xx_hal_dma.c ****   {
 1046              		.loc 1 710 8 view .LVU355
 1047 03ce 3342     		tst	r3, r6
 1048 03d0 32D1     		bne	.L62
 712:../Drivers/STM32L4xx_HAL_Driver/Src/stm32l4xx_hal_dma.c ****     {
 1049              		.loc 1 712 5 is_stmt 1 view .LVU356
 712:../Drivers/STM32L4xx_HAL_Driver/Src/stm32l4xx_hal_dma.c ****     {
 1050              		.loc 1 712 29 is_stmt 0 view .LVU357
 1051 03d2 1168     		ldr	r1, [r2]
 712:../Drivers/STM32L4xx_HAL_Driver/Src/stm32l4xx_hal_dma.c ****     {
 1052              		.loc 1 712 73 view .LVU358
 1053 03d4 636C     		ldr	r3, [r4, #68]
 1054 03d6 03F01C03 		and	r3, r3, #28
 712:../Drivers/STM32L4xx_HAL_Driver/Src/stm32l4xx_hal_dma.c ****     {
 1055              		.loc 1 712 51 view .LVU359
 1056 03da 07FA03F0 		lsl	r0, r7, r3
 712:../Drivers/STM32L4xx_HAL_Driver/Src/stm32l4xx_hal_dma.c ****     {
 1057              		.loc 1 712 7 view .LVU360
 1058 03de 0842     		tst	r0, r1
 1059 03e0 1FD1     		bne	.L63
 731:../Drivers/STM32L4xx_HAL_Driver/Src/stm32l4xx_hal_dma.c ****     {
 1060              		.loc 1 731 5 is_stmt 1 view .LVU361
 731:../Drivers/STM32L4xx_HAL_Driver/Src/stm32l4xx_hal_dma.c ****     {
 1061              		.loc 1 731 7 is_stmt 0 view .LVU362
 1062 03e2 B5F1FF3F 		cmp	r5, #-1
 1063 03e6 F1D0     		beq	.L54
 733:../Drivers/STM32L4xx_HAL_Driver/Src/stm32l4xx_hal_dma.c ****       {
 1064              		.loc 1 733 7 is_stmt 1 view .LVU363
 733:../Drivers/STM32L4xx_HAL_Driver/Src/stm32l4xx_hal_dma.c ****       {
 1065              		.loc 1 733 12 is_stmt 0 view .LVU364
 1066 03e8 FFF7FEFF 		bl	HAL_GetTick
 1067              	.LVL71:
 733:../Drivers/STM32L4xx_HAL_Driver/Src/stm32l4xx_hal_dma.c ****       {
 1068              		.loc 1 733 26 view .LVU365
 1069 03ec A0EB0900 		sub	r0, r0, r9
 733:../Drivers/STM32L4xx_HAL_Driver/Src/stm32l4xx_hal_dma.c ****       {
 1070              		.loc 1 733 9 view .LVU366
 1071 03f0 A842     		cmp	r0, r5
 1072 03f2 01D8     		bhi	.L55
 733:../Drivers/STM32L4xx_HAL_Driver/Src/stm32l4xx_hal_dma.c ****       {
 1073              		.loc 1 733 50 discriminator 1 view .LVU367
 1074 03f4 002D     		cmp	r5, #0
 1075 03f6 E8D1     		bne	.L52
ARM GAS  C:\Users\hoodc\AppData\Local\Temp\cc4eu5v8.s 			page 43


 1076              	.L55:
 736:../Drivers/STM32L4xx_HAL_Driver/Src/stm32l4xx_hal_dma.c **** 
 1077              		.loc 1 736 9 is_stmt 1 view .LVU368
 736:../Drivers/STM32L4xx_HAL_Driver/Src/stm32l4xx_hal_dma.c **** 
 1078              		.loc 1 736 25 is_stmt 0 view .LVU369
 1079 03f8 2023     		movs	r3, #32
 1080 03fa E363     		str	r3, [r4, #60]
 739:../Drivers/STM32L4xx_HAL_Driver/Src/stm32l4xx_hal_dma.c **** 
 1081              		.loc 1 739 9 is_stmt 1 view .LVU370
 739:../Drivers/STM32L4xx_HAL_Driver/Src/stm32l4xx_hal_dma.c **** 
 1082              		.loc 1 739 21 is_stmt 0 view .LVU371
 1083 03fc 0120     		movs	r0, #1
 1084 03fe 84F82500 		strb	r0, [r4, #37]
 742:../Drivers/STM32L4xx_HAL_Driver/Src/stm32l4xx_hal_dma.c **** 
 1085              		.loc 1 742 9 is_stmt 1 view .LVU372
 742:../Drivers/STM32L4xx_HAL_Driver/Src/stm32l4xx_hal_dma.c **** 
 1086              		.loc 1 742 9 view .LVU373
 1087 0402 0023     		movs	r3, #0
 1088 0404 84F82430 		strb	r3, [r4, #36]
 742:../Drivers/STM32L4xx_HAL_Driver/Src/stm32l4xx_hal_dma.c **** 
 1089              		.loc 1 742 9 view .LVU374
 744:../Drivers/STM32L4xx_HAL_Driver/Src/stm32l4xx_hal_dma.c ****       }
 1090              		.loc 1 744 9 view .LVU375
 744:../Drivers/STM32L4xx_HAL_Driver/Src/stm32l4xx_hal_dma.c ****       }
 1091              		.loc 1 744 16 is_stmt 0 view .LVU376
 1092 0408 CDE7     		b	.L48
 1093              	.LVL72:
 1094              	.L61:
 691:../Drivers/STM32L4xx_HAL_Driver/Src/stm32l4xx_hal_dma.c ****     return HAL_ERROR;
 1095              		.loc 1 691 5 is_stmt 1 view .LVU377
 691:../Drivers/STM32L4xx_HAL_Driver/Src/stm32l4xx_hal_dma.c ****     return HAL_ERROR;
 1096              		.loc 1 691 21 is_stmt 0 view .LVU378
 1097 040a 4FF48073 		mov	r3, #256
 1098 040e C363     		str	r3, [r0, #60]
 692:../Drivers/STM32L4xx_HAL_Driver/Src/stm32l4xx_hal_dma.c ****   }
 1099              		.loc 1 692 5 is_stmt 1 view .LVU379
 692:../Drivers/STM32L4xx_HAL_Driver/Src/stm32l4xx_hal_dma.c ****   }
 1100              		.loc 1 692 12 is_stmt 0 view .LVU380
 1101 0410 0120     		movs	r0, #1
 1102              	.LVL73:
 692:../Drivers/STM32L4xx_HAL_Driver/Src/stm32l4xx_hal_dma.c ****   }
 1103              		.loc 1 692 12 view .LVU381
 1104 0412 C8E7     		b	.L48
 1105              	.LVL74:
 1106              	.L50:
 704:../Drivers/STM32L4xx_HAL_Driver/Src/stm32l4xx_hal_dma.c ****   }
 1107              		.loc 1 704 5 is_stmt 1 view .LVU382
 704:../Drivers/STM32L4xx_HAL_Driver/Src/stm32l4xx_hal_dma.c ****   }
 1108              		.loc 1 704 48 is_stmt 0 view .LVU383
 1109 0414 466C     		ldr	r6, [r0, #68]
 1110 0416 06F01C06 		and	r6, r6, #28
 704:../Drivers/STM32L4xx_HAL_Driver/Src/stm32l4xx_hal_dma.c ****   }
 1111              		.loc 1 704 10 view .LVU384
 1112 041a 0423     		movs	r3, #4
 1113 041c 03FA06F6 		lsl	r6, r3, r6
 1114              	.LVL75:
 704:../Drivers/STM32L4xx_HAL_Driver/Src/stm32l4xx_hal_dma.c ****   }
ARM GAS  C:\Users\hoodc\AppData\Local\Temp\cc4eu5v8.s 			page 44


 1115              		.loc 1 704 10 view .LVU385
 1116 0420 CFE7     		b	.L51
 1117              	.LVL76:
 1118              	.L63:
 717:../Drivers/STM32L4xx_HAL_Driver/Src/stm32l4xx_hal_dma.c **** 
 1119              		.loc 1 717 7 is_stmt 1 view .LVU386
 717:../Drivers/STM32L4xx_HAL_Driver/Src/stm32l4xx_hal_dma.c **** 
 1120              		.loc 1 717 50 is_stmt 0 view .LVU387
 1121 0422 0120     		movs	r0, #1
 1122 0424 00FA03F3 		lsl	r3, r0, r3
 717:../Drivers/STM32L4xx_HAL_Driver/Src/stm32l4xx_hal_dma.c **** 
 1123              		.loc 1 717 34 view .LVU388
 1124 0428 5360     		str	r3, [r2, #4]
 720:../Drivers/STM32L4xx_HAL_Driver/Src/stm32l4xx_hal_dma.c **** 
 1125              		.loc 1 720 7 is_stmt 1 view .LVU389
 720:../Drivers/STM32L4xx_HAL_Driver/Src/stm32l4xx_hal_dma.c **** 
 1126              		.loc 1 720 23 is_stmt 0 view .LVU390
 1127 042a E063     		str	r0, [r4, #60]
 723:../Drivers/STM32L4xx_HAL_Driver/Src/stm32l4xx_hal_dma.c **** 
 1128              		.loc 1 723 7 is_stmt 1 view .LVU391
 723:../Drivers/STM32L4xx_HAL_Driver/Src/stm32l4xx_hal_dma.c **** 
 1129              		.loc 1 723 18 is_stmt 0 view .LVU392
 1130 042c 84F82500 		strb	r0, [r4, #37]
 726:../Drivers/STM32L4xx_HAL_Driver/Src/stm32l4xx_hal_dma.c **** 
 1131              		.loc 1 726 7 is_stmt 1 view .LVU393
 726:../Drivers/STM32L4xx_HAL_Driver/Src/stm32l4xx_hal_dma.c **** 
 1132              		.loc 1 726 7 view .LVU394
 1133 0430 0023     		movs	r3, #0
 1134 0432 84F82430 		strb	r3, [r4, #36]
 726:../Drivers/STM32L4xx_HAL_Driver/Src/stm32l4xx_hal_dma.c **** 
 1135              		.loc 1 726 7 view .LVU395
 728:../Drivers/STM32L4xx_HAL_Driver/Src/stm32l4xx_hal_dma.c ****     }
 1136              		.loc 1 728 7 view .LVU396
 728:../Drivers/STM32L4xx_HAL_Driver/Src/stm32l4xx_hal_dma.c ****     }
 1137              		.loc 1 728 14 is_stmt 0 view .LVU397
 1138 0436 B6E7     		b	.L48
 1139              	.L62:
 778:../Drivers/STM32L4xx_HAL_Driver/Src/stm32l4xx_hal_dma.c ****   {
 1140              		.loc 1 778 3 is_stmt 1 view .LVU398
 778:../Drivers/STM32L4xx_HAL_Driver/Src/stm32l4xx_hal_dma.c ****   {
 1141              		.loc 1 778 5 is_stmt 0 view .LVU399
 1142 0438 B8F1000F 		cmp	r8, #0
 1143 043c 0CD1     		bne	.L57
 781:../Drivers/STM32L4xx_HAL_Driver/Src/stm32l4xx_hal_dma.c **** 
 1144              		.loc 1 781 5 is_stmt 1 view .LVU400
 781:../Drivers/STM32L4xx_HAL_Driver/Src/stm32l4xx_hal_dma.c **** 
 1145              		.loc 1 781 70 is_stmt 0 view .LVU401
 1146 043e 636C     		ldr	r3, [r4, #68]
 1147 0440 03F01C01 		and	r1, r3, #28
 781:../Drivers/STM32L4xx_HAL_Driver/Src/stm32l4xx_hal_dma.c **** 
 1148              		.loc 1 781 48 view .LVU402
 1149 0444 0223     		movs	r3, #2
 1150 0446 8B40     		lsls	r3, r3, r1
 781:../Drivers/STM32L4xx_HAL_Driver/Src/stm32l4xx_hal_dma.c **** 
 1151              		.loc 1 781 32 view .LVU403
 1152 0448 5360     		str	r3, [r2, #4]
 785:../Drivers/STM32L4xx_HAL_Driver/Src/stm32l4xx_hal_dma.c ****   }
ARM GAS  C:\Users\hoodc\AppData\Local\Temp\cc4eu5v8.s 			page 45


 1153              		.loc 1 785 5 is_stmt 1 view .LVU404
 785:../Drivers/STM32L4xx_HAL_Driver/Src/stm32l4xx_hal_dma.c ****   }
 1154              		.loc 1 785 17 is_stmt 0 view .LVU405
 1155 044a 0123     		movs	r3, #1
 1156 044c 84F82530 		strb	r3, [r4, #37]
 1157              	.L58:
 794:../Drivers/STM32L4xx_HAL_Driver/Src/stm32l4xx_hal_dma.c **** 
 1158              		.loc 1 794 3 is_stmt 1 view .LVU406
 794:../Drivers/STM32L4xx_HAL_Driver/Src/stm32l4xx_hal_dma.c **** 
 1159              		.loc 1 794 3 view .LVU407
 1160 0450 0020     		movs	r0, #0
 1161 0452 84F82400 		strb	r0, [r4, #36]
 794:../Drivers/STM32L4xx_HAL_Driver/Src/stm32l4xx_hal_dma.c **** 
 1162              		.loc 1 794 3 view .LVU408
 796:../Drivers/STM32L4xx_HAL_Driver/Src/stm32l4xx_hal_dma.c **** }
 1163              		.loc 1 796 3 view .LVU409
 796:../Drivers/STM32L4xx_HAL_Driver/Src/stm32l4xx_hal_dma.c **** }
 1164              		.loc 1 796 10 is_stmt 0 view .LVU410
 1165 0456 A6E7     		b	.L48
 1166              	.L57:
 790:../Drivers/STM32L4xx_HAL_Driver/Src/stm32l4xx_hal_dma.c ****   }
 1167              		.loc 1 790 5 is_stmt 1 view .LVU411
 790:../Drivers/STM32L4xx_HAL_Driver/Src/stm32l4xx_hal_dma.c ****   }
 1168              		.loc 1 790 71 is_stmt 0 view .LVU412
 1169 0458 636C     		ldr	r3, [r4, #68]
 1170 045a 03F01C01 		and	r1, r3, #28
 790:../Drivers/STM32L4xx_HAL_Driver/Src/stm32l4xx_hal_dma.c ****   }
 1171              		.loc 1 790 48 view .LVU413
 1172 045e 0423     		movs	r3, #4
 1173 0460 8B40     		lsls	r3, r3, r1
 790:../Drivers/STM32L4xx_HAL_Driver/Src/stm32l4xx_hal_dma.c ****   }
 1174              		.loc 1 790 32 view .LVU414
 1175 0462 5360     		str	r3, [r2, #4]
 1176 0464 F4E7     		b	.L58
 1177              		.cfi_endproc
 1178              	.LFE139:
 1179              		.size	HAL_DMA_PollForTransfer, .-HAL_DMA_PollForTransfer
 1180              		.align	1
 1181              		.global	HAL_DMA_IRQHandler
 1182              		.syntax unified
 1183              		.thumb
 1184              		.thumb_func
 1185              		.fpu softvfp
 1186              		.type	HAL_DMA_IRQHandler, %function
 1187              	HAL_DMA_IRQHandler:
 1188              	.LVL77:
 1189              	.LFB140:
 806:../Drivers/STM32L4xx_HAL_Driver/Src/stm32l4xx_hal_dma.c ****   uint32_t flag_it = hdma->DmaBaseAddress->ISR;
 1190              		.loc 1 806 1 is_stmt 1 view -0
 1191              		.cfi_startproc
 1192              		@ args = 0, pretend = 0, frame = 0
 1193              		@ frame_needed = 0, uses_anonymous_args = 0
 806:../Drivers/STM32L4xx_HAL_Driver/Src/stm32l4xx_hal_dma.c ****   uint32_t flag_it = hdma->DmaBaseAddress->ISR;
 1194              		.loc 1 806 1 is_stmt 0 view .LVU416
 1195 0466 38B5     		push	{r3, r4, r5, lr}
 1196              	.LCFI14:
 1197              		.cfi_def_cfa_offset 16
ARM GAS  C:\Users\hoodc\AppData\Local\Temp\cc4eu5v8.s 			page 46


 1198              		.cfi_offset 3, -16
 1199              		.cfi_offset 4, -12
 1200              		.cfi_offset 5, -8
 1201              		.cfi_offset 14, -4
 807:../Drivers/STM32L4xx_HAL_Driver/Src/stm32l4xx_hal_dma.c ****   uint32_t source_it = hdma->Instance->CCR;
 1202              		.loc 1 807 3 is_stmt 1 view .LVU417
 807:../Drivers/STM32L4xx_HAL_Driver/Src/stm32l4xx_hal_dma.c ****   uint32_t source_it = hdma->Instance->CCR;
 1203              		.loc 1 807 26 is_stmt 0 view .LVU418
 1204 0468 036C     		ldr	r3, [r0, #64]
 807:../Drivers/STM32L4xx_HAL_Driver/Src/stm32l4xx_hal_dma.c ****   uint32_t source_it = hdma->Instance->CCR;
 1205              		.loc 1 807 12 view .LVU419
 1206 046a 1968     		ldr	r1, [r3]
 1207              	.LVL78:
 808:../Drivers/STM32L4xx_HAL_Driver/Src/stm32l4xx_hal_dma.c **** 
 1208              		.loc 1 808 3 is_stmt 1 view .LVU420
 808:../Drivers/STM32L4xx_HAL_Driver/Src/stm32l4xx_hal_dma.c **** 
 1209              		.loc 1 808 28 is_stmt 0 view .LVU421
 1210 046c 0468     		ldr	r4, [r0]
 808:../Drivers/STM32L4xx_HAL_Driver/Src/stm32l4xx_hal_dma.c **** 
 1211              		.loc 1 808 12 view .LVU422
 1212 046e 2568     		ldr	r5, [r4]
 1213              	.LVL79:
 811:../Drivers/STM32L4xx_HAL_Driver/Src/stm32l4xx_hal_dma.c ****   {
 1214              		.loc 1 811 3 is_stmt 1 view .LVU423
 811:../Drivers/STM32L4xx_HAL_Driver/Src/stm32l4xx_hal_dma.c ****   {
 1215              		.loc 1 811 56 is_stmt 0 view .LVU424
 1216 0470 436C     		ldr	r3, [r0, #68]
 1217 0472 03F01C03 		and	r3, r3, #28
 811:../Drivers/STM32L4xx_HAL_Driver/Src/stm32l4xx_hal_dma.c ****   {
 1218              		.loc 1 811 33 view .LVU425
 1219 0476 0422     		movs	r2, #4
 1220 0478 9A40     		lsls	r2, r2, r3
 811:../Drivers/STM32L4xx_HAL_Driver/Src/stm32l4xx_hal_dma.c ****   {
 1221              		.loc 1 811 6 view .LVU426
 1222 047a 0A42     		tst	r2, r1
 1223 047c 15D0     		beq	.L65
 811:../Drivers/STM32L4xx_HAL_Driver/Src/stm32l4xx_hal_dma.c ****   {
 1224              		.loc 1 811 74 discriminator 1 view .LVU427
 1225 047e 15F0040F 		tst	r5, #4
 1226 0482 12D0     		beq	.L65
 814:../Drivers/STM32L4xx_HAL_Driver/Src/stm32l4xx_hal_dma.c ****       {
 1227              		.loc 1 814 7 is_stmt 1 view .LVU428
 814:../Drivers/STM32L4xx_HAL_Driver/Src/stm32l4xx_hal_dma.c ****       {
 1228              		.loc 1 814 25 is_stmt 0 view .LVU429
 1229 0484 2368     		ldr	r3, [r4]
 814:../Drivers/STM32L4xx_HAL_Driver/Src/stm32l4xx_hal_dma.c ****       {
 1230              		.loc 1 814 9 view .LVU430
 1231 0486 13F0200F 		tst	r3, #32
 1232 048a 03D1     		bne	.L66
 817:../Drivers/STM32L4xx_HAL_Driver/Src/stm32l4xx_hal_dma.c ****       }
 1233              		.loc 1 817 9 is_stmt 1 view .LVU431
 1234 048c 2368     		ldr	r3, [r4]
 1235 048e 23F00403 		bic	r3, r3, #4
 1236 0492 2360     		str	r3, [r4]
 1237              	.L66:
 820:../Drivers/STM32L4xx_HAL_Driver/Src/stm32l4xx_hal_dma.c **** 
 1238              		.loc 1 820 7 view .LVU432
ARM GAS  C:\Users\hoodc\AppData\Local\Temp\cc4eu5v8.s 			page 47


 820:../Drivers/STM32L4xx_HAL_Driver/Src/stm32l4xx_hal_dma.c **** 
 1239              		.loc 1 820 11 is_stmt 0 view .LVU433
 1240 0494 016C     		ldr	r1, [r0, #64]
 1241              	.LVL80:
 820:../Drivers/STM32L4xx_HAL_Driver/Src/stm32l4xx_hal_dma.c **** 
 1242              		.loc 1 820 73 view .LVU434
 1243 0496 436C     		ldr	r3, [r0, #68]
 1244 0498 03F01C02 		and	r2, r3, #28
 820:../Drivers/STM32L4xx_HAL_Driver/Src/stm32l4xx_hal_dma.c **** 
 1245              		.loc 1 820 50 view .LVU435
 1246 049c 0423     		movs	r3, #4
 1247 049e 9340     		lsls	r3, r3, r2
 820:../Drivers/STM32L4xx_HAL_Driver/Src/stm32l4xx_hal_dma.c **** 
 1248              		.loc 1 820 34 view .LVU436
 1249 04a0 4B60     		str	r3, [r1, #4]
 825:../Drivers/STM32L4xx_HAL_Driver/Src/stm32l4xx_hal_dma.c ****       {
 1250              		.loc 1 825 7 is_stmt 1 view .LVU437
 825:../Drivers/STM32L4xx_HAL_Driver/Src/stm32l4xx_hal_dma.c ****       {
 1251              		.loc 1 825 14 is_stmt 0 view .LVU438
 1252 04a2 036B     		ldr	r3, [r0, #48]
 825:../Drivers/STM32L4xx_HAL_Driver/Src/stm32l4xx_hal_dma.c ****       {
 1253              		.loc 1 825 9 view .LVU439
 1254 04a4 03B1     		cbz	r3, .L64
 828:../Drivers/STM32L4xx_HAL_Driver/Src/stm32l4xx_hal_dma.c ****       }
 1255              		.loc 1 828 9 is_stmt 1 view .LVU440
 1256 04a6 9847     		blx	r3
 1257              	.LVL81:
 1258              	.L64:
 889:../Drivers/STM32L4xx_HAL_Driver/Src/stm32l4xx_hal_dma.c **** 
 1259              		.loc 1 889 1 is_stmt 0 view .LVU441
 1260 04a8 38BD     		pop	{r3, r4, r5, pc}
 1261              	.LVL82:
 1262              	.L65:
 833:../Drivers/STM32L4xx_HAL_Driver/Src/stm32l4xx_hal_dma.c ****   {
 1263              		.loc 1 833 8 is_stmt 1 view .LVU442
 833:../Drivers/STM32L4xx_HAL_Driver/Src/stm32l4xx_hal_dma.c ****   {
 1264              		.loc 1 833 38 is_stmt 0 view .LVU443
 1265 04aa 0222     		movs	r2, #2
 1266 04ac 9A40     		lsls	r2, r2, r3
 833:../Drivers/STM32L4xx_HAL_Driver/Src/stm32l4xx_hal_dma.c ****   {
 1267              		.loc 1 833 11 view .LVU444
 1268 04ae 0A42     		tst	r2, r1
 1269 04b0 1CD0     		beq	.L68
 833:../Drivers/STM32L4xx_HAL_Driver/Src/stm32l4xx_hal_dma.c ****   {
 1270              		.loc 1 833 79 discriminator 1 view .LVU445
 1271 04b2 15F0020F 		tst	r5, #2
 1272 04b6 19D0     		beq	.L68
 835:../Drivers/STM32L4xx_HAL_Driver/Src/stm32l4xx_hal_dma.c ****     {
 1273              		.loc 1 835 5 is_stmt 1 view .LVU446
 835:../Drivers/STM32L4xx_HAL_Driver/Src/stm32l4xx_hal_dma.c ****     {
 1274              		.loc 1 835 23 is_stmt 0 view .LVU447
 1275 04b8 2368     		ldr	r3, [r4]
 835:../Drivers/STM32L4xx_HAL_Driver/Src/stm32l4xx_hal_dma.c ****     {
 1276              		.loc 1 835 7 view .LVU448
 1277 04ba 13F0200F 		tst	r3, #32
 1278 04be 06D1     		bne	.L69
 840:../Drivers/STM32L4xx_HAL_Driver/Src/stm32l4xx_hal_dma.c **** 
ARM GAS  C:\Users\hoodc\AppData\Local\Temp\cc4eu5v8.s 			page 48


 1279              		.loc 1 840 7 is_stmt 1 view .LVU449
 1280 04c0 2368     		ldr	r3, [r4]
 1281 04c2 23F00A03 		bic	r3, r3, #10
 1282 04c6 2360     		str	r3, [r4]
 843:../Drivers/STM32L4xx_HAL_Driver/Src/stm32l4xx_hal_dma.c ****     }
 1283              		.loc 1 843 7 view .LVU450
 843:../Drivers/STM32L4xx_HAL_Driver/Src/stm32l4xx_hal_dma.c ****     }
 1284              		.loc 1 843 19 is_stmt 0 view .LVU451
 1285 04c8 0123     		movs	r3, #1
 1286 04ca 80F82530 		strb	r3, [r0, #37]
 1287              	.L69:
 846:../Drivers/STM32L4xx_HAL_Driver/Src/stm32l4xx_hal_dma.c **** 
 1288              		.loc 1 846 5 is_stmt 1 view .LVU452
 846:../Drivers/STM32L4xx_HAL_Driver/Src/stm32l4xx_hal_dma.c **** 
 1289              		.loc 1 846 9 is_stmt 0 view .LVU453
 1290 04ce 016C     		ldr	r1, [r0, #64]
 1291              	.LVL83:
 846:../Drivers/STM32L4xx_HAL_Driver/Src/stm32l4xx_hal_dma.c **** 
 1292              		.loc 1 846 72 view .LVU454
 1293 04d0 436C     		ldr	r3, [r0, #68]
 1294 04d2 03F01C02 		and	r2, r3, #28
 846:../Drivers/STM32L4xx_HAL_Driver/Src/stm32l4xx_hal_dma.c **** 
 1295              		.loc 1 846 49 view .LVU455
 1296 04d6 0223     		movs	r3, #2
 1297 04d8 9340     		lsls	r3, r3, r2
 846:../Drivers/STM32L4xx_HAL_Driver/Src/stm32l4xx_hal_dma.c **** 
 1298              		.loc 1 846 32 view .LVU456
 1299 04da 4B60     		str	r3, [r1, #4]
 849:../Drivers/STM32L4xx_HAL_Driver/Src/stm32l4xx_hal_dma.c **** 
 1300              		.loc 1 849 5 is_stmt 1 view .LVU457
 849:../Drivers/STM32L4xx_HAL_Driver/Src/stm32l4xx_hal_dma.c **** 
 1301              		.loc 1 849 5 view .LVU458
 1302 04dc 0023     		movs	r3, #0
 1303 04de 80F82430 		strb	r3, [r0, #36]
 849:../Drivers/STM32L4xx_HAL_Driver/Src/stm32l4xx_hal_dma.c **** 
 1304              		.loc 1 849 5 view .LVU459
 851:../Drivers/STM32L4xx_HAL_Driver/Src/stm32l4xx_hal_dma.c ****     {
 1305              		.loc 1 851 5 view .LVU460
 851:../Drivers/STM32L4xx_HAL_Driver/Src/stm32l4xx_hal_dma.c ****     {
 1306              		.loc 1 851 12 is_stmt 0 view .LVU461
 1307 04e2 C36A     		ldr	r3, [r0, #44]
 851:../Drivers/STM32L4xx_HAL_Driver/Src/stm32l4xx_hal_dma.c ****     {
 1308              		.loc 1 851 7 view .LVU462
 1309 04e4 002B     		cmp	r3, #0
 1310 04e6 DFD0     		beq	.L64
 854:../Drivers/STM32L4xx_HAL_Driver/Src/stm32l4xx_hal_dma.c ****     }
 1311              		.loc 1 854 7 is_stmt 1 view .LVU463
 1312 04e8 9847     		blx	r3
 1313              	.LVL84:
 854:../Drivers/STM32L4xx_HAL_Driver/Src/stm32l4xx_hal_dma.c ****     }
 1314              		.loc 1 854 7 is_stmt 0 view .LVU464
 1315 04ea DDE7     		b	.L64
 1316              	.LVL85:
 1317              	.L68:
 859:../Drivers/STM32L4xx_HAL_Driver/Src/stm32l4xx_hal_dma.c ****   {
 1318              		.loc 1 859 8 is_stmt 1 view .LVU465
 859:../Drivers/STM32L4xx_HAL_Driver/Src/stm32l4xx_hal_dma.c ****   {
ARM GAS  C:\Users\hoodc\AppData\Local\Temp\cc4eu5v8.s 			page 49


 1319              		.loc 1 859 38 is_stmt 0 view .LVU466
 1320 04ec 0822     		movs	r2, #8
 1321 04ee 02FA03F3 		lsl	r3, r2, r3
 859:../Drivers/STM32L4xx_HAL_Driver/Src/stm32l4xx_hal_dma.c ****   {
 1322              		.loc 1 859 11 view .LVU467
 1323 04f2 0B42     		tst	r3, r1
 1324 04f4 D8D0     		beq	.L64
 859:../Drivers/STM32L4xx_HAL_Driver/Src/stm32l4xx_hal_dma.c ****   {
 1325              		.loc 1 859 79 discriminator 1 view .LVU468
 1326 04f6 15F0080F 		tst	r5, #8
 1327 04fa D5D0     		beq	.L64
 864:../Drivers/STM32L4xx_HAL_Driver/Src/stm32l4xx_hal_dma.c **** 
 1328              		.loc 1 864 5 is_stmt 1 view .LVU469
 1329 04fc 2368     		ldr	r3, [r4]
 1330 04fe 23F00E03 		bic	r3, r3, #14
 1331 0502 2360     		str	r3, [r4]
 867:../Drivers/STM32L4xx_HAL_Driver/Src/stm32l4xx_hal_dma.c **** 
 1332              		.loc 1 867 5 view .LVU470
 867:../Drivers/STM32L4xx_HAL_Driver/Src/stm32l4xx_hal_dma.c **** 
 1333              		.loc 1 867 9 is_stmt 0 view .LVU471
 1334 0504 016C     		ldr	r1, [r0, #64]
 1335              	.LVL86:
 867:../Drivers/STM32L4xx_HAL_Driver/Src/stm32l4xx_hal_dma.c **** 
 1336              		.loc 1 867 71 view .LVU472
 1337 0506 436C     		ldr	r3, [r0, #68]
 1338 0508 03F01C03 		and	r3, r3, #28
 867:../Drivers/STM32L4xx_HAL_Driver/Src/stm32l4xx_hal_dma.c **** 
 1339              		.loc 1 867 48 view .LVU473
 1340 050c 0122     		movs	r2, #1
 1341 050e 02FA03F3 		lsl	r3, r2, r3
 867:../Drivers/STM32L4xx_HAL_Driver/Src/stm32l4xx_hal_dma.c **** 
 1342              		.loc 1 867 32 view .LVU474
 1343 0512 4B60     		str	r3, [r1, #4]
 870:../Drivers/STM32L4xx_HAL_Driver/Src/stm32l4xx_hal_dma.c **** 
 1344              		.loc 1 870 5 is_stmt 1 view .LVU475
 870:../Drivers/STM32L4xx_HAL_Driver/Src/stm32l4xx_hal_dma.c **** 
 1345              		.loc 1 870 21 is_stmt 0 view .LVU476
 1346 0514 C263     		str	r2, [r0, #60]
 873:../Drivers/STM32L4xx_HAL_Driver/Src/stm32l4xx_hal_dma.c **** 
 1347              		.loc 1 873 5 is_stmt 1 view .LVU477
 873:../Drivers/STM32L4xx_HAL_Driver/Src/stm32l4xx_hal_dma.c **** 
 1348              		.loc 1 873 17 is_stmt 0 view .LVU478
 1349 0516 80F82520 		strb	r2, [r0, #37]
 876:../Drivers/STM32L4xx_HAL_Driver/Src/stm32l4xx_hal_dma.c **** 
 1350              		.loc 1 876 5 is_stmt 1 view .LVU479
 876:../Drivers/STM32L4xx_HAL_Driver/Src/stm32l4xx_hal_dma.c **** 
 1351              		.loc 1 876 5 view .LVU480
 1352 051a 0023     		movs	r3, #0
 1353 051c 80F82430 		strb	r3, [r0, #36]
 876:../Drivers/STM32L4xx_HAL_Driver/Src/stm32l4xx_hal_dma.c **** 
 1354              		.loc 1 876 5 view .LVU481
 878:../Drivers/STM32L4xx_HAL_Driver/Src/stm32l4xx_hal_dma.c ****     {
 1355              		.loc 1 878 5 view .LVU482
 878:../Drivers/STM32L4xx_HAL_Driver/Src/stm32l4xx_hal_dma.c ****     {
 1356              		.loc 1 878 13 is_stmt 0 view .LVU483
 1357 0520 436B     		ldr	r3, [r0, #52]
 878:../Drivers/STM32L4xx_HAL_Driver/Src/stm32l4xx_hal_dma.c ****     {
ARM GAS  C:\Users\hoodc\AppData\Local\Temp\cc4eu5v8.s 			page 50


 1358              		.loc 1 878 8 view .LVU484
 1359 0522 002B     		cmp	r3, #0
 1360 0524 C0D0     		beq	.L64
 881:../Drivers/STM32L4xx_HAL_Driver/Src/stm32l4xx_hal_dma.c ****     }
 1361              		.loc 1 881 7 is_stmt 1 view .LVU485
 1362 0526 9847     		blx	r3
 1363              	.LVL87:
 887:../Drivers/STM32L4xx_HAL_Driver/Src/stm32l4xx_hal_dma.c ****   return;
 1364              		.loc 1 887 3 view .LVU486
 888:../Drivers/STM32L4xx_HAL_Driver/Src/stm32l4xx_hal_dma.c **** }
 1365              		.loc 1 888 3 view .LVU487
 1366 0528 BEE7     		b	.L64
 1367              		.cfi_endproc
 1368              	.LFE140:
 1369              		.size	HAL_DMA_IRQHandler, .-HAL_DMA_IRQHandler
 1370              		.align	1
 1371              		.global	HAL_DMA_RegisterCallback
 1372              		.syntax unified
 1373              		.thumb
 1374              		.thumb_func
 1375              		.fpu softvfp
 1376              		.type	HAL_DMA_RegisterCallback, %function
 1377              	HAL_DMA_RegisterCallback:
 1378              	.LVL88:
 1379              	.LFB141:
 902:../Drivers/STM32L4xx_HAL_Driver/Src/stm32l4xx_hal_dma.c ****   HAL_StatusTypeDef status = HAL_OK;
 1380              		.loc 1 902 1 view -0
 1381              		.cfi_startproc
 1382              		@ args = 0, pretend = 0, frame = 0
 1383              		@ frame_needed = 0, uses_anonymous_args = 0
 1384              		@ link register save eliminated.
 902:../Drivers/STM32L4xx_HAL_Driver/Src/stm32l4xx_hal_dma.c ****   HAL_StatusTypeDef status = HAL_OK;
 1385              		.loc 1 902 1 is_stmt 0 view .LVU489
 1386 052a 0346     		mov	r3, r0
 903:../Drivers/STM32L4xx_HAL_Driver/Src/stm32l4xx_hal_dma.c **** 
 1387              		.loc 1 903 3 is_stmt 1 view .LVU490
 1388              	.LVL89:
 906:../Drivers/STM32L4xx_HAL_Driver/Src/stm32l4xx_hal_dma.c **** 
 1389              		.loc 1 906 3 view .LVU491
 906:../Drivers/STM32L4xx_HAL_Driver/Src/stm32l4xx_hal_dma.c **** 
 1390              		.loc 1 906 3 view .LVU492
 1391 052c 90F82400 		ldrb	r0, [r0, #36]	@ zero_extendqisi2
 1392              	.LVL90:
 906:../Drivers/STM32L4xx_HAL_Driver/Src/stm32l4xx_hal_dma.c **** 
 1393              		.loc 1 906 3 is_stmt 0 view .LVU493
 1394 0530 0128     		cmp	r0, #1
 1395 0532 1BD0     		beq	.L78
 906:../Drivers/STM32L4xx_HAL_Driver/Src/stm32l4xx_hal_dma.c **** 
 1396              		.loc 1 906 3 is_stmt 1 discriminator 2 view .LVU494
 906:../Drivers/STM32L4xx_HAL_Driver/Src/stm32l4xx_hal_dma.c **** 
 1397              		.loc 1 906 3 discriminator 2 view .LVU495
 908:../Drivers/STM32L4xx_HAL_Driver/Src/stm32l4xx_hal_dma.c ****   {
 1398              		.loc 1 908 3 discriminator 2 view .LVU496
 908:../Drivers/STM32L4xx_HAL_Driver/Src/stm32l4xx_hal_dma.c ****   {
 1399              		.loc 1 908 33 is_stmt 0 discriminator 2 view .LVU497
 1400 0534 93F82500 		ldrb	r0, [r3, #37]	@ zero_extendqisi2
 1401 0538 C0B2     		uxtb	r0, r0
ARM GAS  C:\Users\hoodc\AppData\Local\Temp\cc4eu5v8.s 			page 51


 908:../Drivers/STM32L4xx_HAL_Driver/Src/stm32l4xx_hal_dma.c ****   {
 1402              		.loc 1 908 5 discriminator 2 view .LVU498
 1403 053a 0128     		cmp	r0, #1
 1404 053c 04D0     		beq	.L80
 935:../Drivers/STM32L4xx_HAL_Driver/Src/stm32l4xx_hal_dma.c ****   }
 1405              		.loc 1 935 12 view .LVU499
 1406 053e 0120     		movs	r0, #1
 1407              	.L72:
 1408              	.LVL91:
 939:../Drivers/STM32L4xx_HAL_Driver/Src/stm32l4xx_hal_dma.c **** 
 1409              		.loc 1 939 3 is_stmt 1 view .LVU500
 939:../Drivers/STM32L4xx_HAL_Driver/Src/stm32l4xx_hal_dma.c **** 
 1410              		.loc 1 939 3 view .LVU501
 1411 0540 0022     		movs	r2, #0
 1412              	.LVL92:
 939:../Drivers/STM32L4xx_HAL_Driver/Src/stm32l4xx_hal_dma.c **** 
 1413              		.loc 1 939 3 is_stmt 0 view .LVU502
 1414 0542 83F82420 		strb	r2, [r3, #36]
 939:../Drivers/STM32L4xx_HAL_Driver/Src/stm32l4xx_hal_dma.c **** 
 1415              		.loc 1 939 3 is_stmt 1 view .LVU503
 941:../Drivers/STM32L4xx_HAL_Driver/Src/stm32l4xx_hal_dma.c **** }
 1416              		.loc 1 941 3 view .LVU504
 941:../Drivers/STM32L4xx_HAL_Driver/Src/stm32l4xx_hal_dma.c **** }
 1417              		.loc 1 941 10 is_stmt 0 view .LVU505
 1418 0546 7047     		bx	lr
 1419              	.LVL93:
 1420              	.L80:
 910:../Drivers/STM32L4xx_HAL_Driver/Src/stm32l4xx_hal_dma.c ****     {
 1421              		.loc 1 910 5 is_stmt 1 view .LVU506
 1422 0548 0329     		cmp	r1, #3
 1423 054a F9D8     		bhi	.L72
 1424 054c DFE801F0 		tbb	[pc, r1]
 1425              	.L74:
 1426 0550 02       		.byte	(.L77-.L74)/2
 1427 0551 05       		.byte	(.L76-.L74)/2
 1428 0552 08       		.byte	(.L75-.L74)/2
 1429 0553 0B       		.byte	(.L73-.L74)/2
 1430              		.p2align 1
 1431              	.L77:
 913:../Drivers/STM32L4xx_HAL_Driver/Src/stm32l4xx_hal_dma.c ****            break;
 1432              		.loc 1 913 12 view .LVU507
 913:../Drivers/STM32L4xx_HAL_Driver/Src/stm32l4xx_hal_dma.c ****            break;
 1433              		.loc 1 913 35 is_stmt 0 view .LVU508
 1434 0554 DA62     		str	r2, [r3, #44]
 914:../Drivers/STM32L4xx_HAL_Driver/Src/stm32l4xx_hal_dma.c **** 
 1435              		.loc 1 914 12 is_stmt 1 view .LVU509
 903:../Drivers/STM32L4xx_HAL_Driver/Src/stm32l4xx_hal_dma.c **** 
 1436              		.loc 1 903 21 is_stmt 0 view .LVU510
 1437 0556 0846     		mov	r0, r1
 914:../Drivers/STM32L4xx_HAL_Driver/Src/stm32l4xx_hal_dma.c **** 
 1438              		.loc 1 914 12 view .LVU511
 1439 0558 F2E7     		b	.L72
 1440              	.L76:
 917:../Drivers/STM32L4xx_HAL_Driver/Src/stm32l4xx_hal_dma.c ****            break;
 1441              		.loc 1 917 12 is_stmt 1 view .LVU512
 917:../Drivers/STM32L4xx_HAL_Driver/Src/stm32l4xx_hal_dma.c ****            break;
 1442              		.loc 1 917 39 is_stmt 0 view .LVU513
ARM GAS  C:\Users\hoodc\AppData\Local\Temp\cc4eu5v8.s 			page 52


 1443 055a 1A63     		str	r2, [r3, #48]
 918:../Drivers/STM32L4xx_HAL_Driver/Src/stm32l4xx_hal_dma.c **** 
 1444              		.loc 1 918 12 is_stmt 1 view .LVU514
 903:../Drivers/STM32L4xx_HAL_Driver/Src/stm32l4xx_hal_dma.c **** 
 1445              		.loc 1 903 21 is_stmt 0 view .LVU515
 1446 055c 0020     		movs	r0, #0
 918:../Drivers/STM32L4xx_HAL_Driver/Src/stm32l4xx_hal_dma.c **** 
 1447              		.loc 1 918 12 view .LVU516
 1448 055e EFE7     		b	.L72
 1449              	.L75:
 921:../Drivers/STM32L4xx_HAL_Driver/Src/stm32l4xx_hal_dma.c ****            break;
 1450              		.loc 1 921 12 is_stmt 1 view .LVU517
 921:../Drivers/STM32L4xx_HAL_Driver/Src/stm32l4xx_hal_dma.c ****            break;
 1451              		.loc 1 921 36 is_stmt 0 view .LVU518
 1452 0560 5A63     		str	r2, [r3, #52]
 922:../Drivers/STM32L4xx_HAL_Driver/Src/stm32l4xx_hal_dma.c **** 
 1453              		.loc 1 922 12 is_stmt 1 view .LVU519
 903:../Drivers/STM32L4xx_HAL_Driver/Src/stm32l4xx_hal_dma.c **** 
 1454              		.loc 1 903 21 is_stmt 0 view .LVU520
 1455 0562 0020     		movs	r0, #0
 922:../Drivers/STM32L4xx_HAL_Driver/Src/stm32l4xx_hal_dma.c **** 
 1456              		.loc 1 922 12 view .LVU521
 1457 0564 ECE7     		b	.L72
 1458              	.L73:
 925:../Drivers/STM32L4xx_HAL_Driver/Src/stm32l4xx_hal_dma.c ****            break;
 1459              		.loc 1 925 12 is_stmt 1 view .LVU522
 925:../Drivers/STM32L4xx_HAL_Driver/Src/stm32l4xx_hal_dma.c ****            break;
 1460              		.loc 1 925 36 is_stmt 0 view .LVU523
 1461 0566 9A63     		str	r2, [r3, #56]
 926:../Drivers/STM32L4xx_HAL_Driver/Src/stm32l4xx_hal_dma.c **** 
 1462              		.loc 1 926 12 is_stmt 1 view .LVU524
 903:../Drivers/STM32L4xx_HAL_Driver/Src/stm32l4xx_hal_dma.c **** 
 1463              		.loc 1 903 21 is_stmt 0 view .LVU525
 1464 0568 0020     		movs	r0, #0
 926:../Drivers/STM32L4xx_HAL_Driver/Src/stm32l4xx_hal_dma.c **** 
 1465              		.loc 1 926 12 view .LVU526
 1466 056a E9E7     		b	.L72
 1467              	.L78:
 906:../Drivers/STM32L4xx_HAL_Driver/Src/stm32l4xx_hal_dma.c **** 
 1468              		.loc 1 906 3 view .LVU527
 1469 056c 0220     		movs	r0, #2
 942:../Drivers/STM32L4xx_HAL_Driver/Src/stm32l4xx_hal_dma.c **** 
 1470              		.loc 1 942 1 view .LVU528
 1471 056e 7047     		bx	lr
 1472              		.cfi_endproc
 1473              	.LFE141:
 1474              		.size	HAL_DMA_RegisterCallback, .-HAL_DMA_RegisterCallback
 1475              		.align	1
 1476              		.global	HAL_DMA_UnRegisterCallback
 1477              		.syntax unified
 1478              		.thumb
 1479              		.thumb_func
 1480              		.fpu softvfp
 1481              		.type	HAL_DMA_UnRegisterCallback, %function
 1482              	HAL_DMA_UnRegisterCallback:
 1483              	.LVL94:
 1484              	.LFB142:
ARM GAS  C:\Users\hoodc\AppData\Local\Temp\cc4eu5v8.s 			page 53


 953:../Drivers/STM32L4xx_HAL_Driver/Src/stm32l4xx_hal_dma.c ****   HAL_StatusTypeDef status = HAL_OK;
 1485              		.loc 1 953 1 is_stmt 1 view -0
 1486              		.cfi_startproc
 1487              		@ args = 0, pretend = 0, frame = 0
 1488              		@ frame_needed = 0, uses_anonymous_args = 0
 1489              		@ link register save eliminated.
 953:../Drivers/STM32L4xx_HAL_Driver/Src/stm32l4xx_hal_dma.c ****   HAL_StatusTypeDef status = HAL_OK;
 1490              		.loc 1 953 1 is_stmt 0 view .LVU530
 1491 0570 0346     		mov	r3, r0
 954:../Drivers/STM32L4xx_HAL_Driver/Src/stm32l4xx_hal_dma.c **** 
 1492              		.loc 1 954 3 is_stmt 1 view .LVU531
 1493              	.LVL95:
 957:../Drivers/STM32L4xx_HAL_Driver/Src/stm32l4xx_hal_dma.c **** 
 1494              		.loc 1 957 3 view .LVU532
 957:../Drivers/STM32L4xx_HAL_Driver/Src/stm32l4xx_hal_dma.c **** 
 1495              		.loc 1 957 3 view .LVU533
 1496 0572 90F82420 		ldrb	r2, [r0, #36]	@ zero_extendqisi2
 1497 0576 012A     		cmp	r2, #1
 1498 0578 26D0     		beq	.L90
 957:../Drivers/STM32L4xx_HAL_Driver/Src/stm32l4xx_hal_dma.c **** 
 1499              		.loc 1 957 3 discriminator 2 view .LVU534
 1500 057a 0122     		movs	r2, #1
 1501 057c 80F82420 		strb	r2, [r0, #36]
 957:../Drivers/STM32L4xx_HAL_Driver/Src/stm32l4xx_hal_dma.c **** 
 1502              		.loc 1 957 3 discriminator 2 view .LVU535
 959:../Drivers/STM32L4xx_HAL_Driver/Src/stm32l4xx_hal_dma.c ****   {
 1503              		.loc 1 959 3 discriminator 2 view .LVU536
 959:../Drivers/STM32L4xx_HAL_Driver/Src/stm32l4xx_hal_dma.c ****   {
 1504              		.loc 1 959 33 is_stmt 0 discriminator 2 view .LVU537
 1505 0580 90F82500 		ldrb	r0, [r0, #37]	@ zero_extendqisi2
 1506              	.LVL96:
 959:../Drivers/STM32L4xx_HAL_Driver/Src/stm32l4xx_hal_dma.c ****   {
 1507              		.loc 1 959 33 discriminator 2 view .LVU538
 1508 0584 C0B2     		uxtb	r0, r0
 959:../Drivers/STM32L4xx_HAL_Driver/Src/stm32l4xx_hal_dma.c ****   {
 1509              		.loc 1 959 5 discriminator 2 view .LVU539
 1510 0586 9042     		cmp	r0, r2
 1511 0588 04D0     		beq	.L92
 993:../Drivers/STM32L4xx_HAL_Driver/Src/stm32l4xx_hal_dma.c ****   }
 1512              		.loc 1 993 12 view .LVU540
 1513 058a 0120     		movs	r0, #1
 1514              	.L83:
 1515              	.LVL97:
 997:../Drivers/STM32L4xx_HAL_Driver/Src/stm32l4xx_hal_dma.c **** 
 1516              		.loc 1 997 3 is_stmt 1 view .LVU541
 997:../Drivers/STM32L4xx_HAL_Driver/Src/stm32l4xx_hal_dma.c **** 
 1517              		.loc 1 997 3 view .LVU542
 1518 058c 0022     		movs	r2, #0
 1519 058e 83F82420 		strb	r2, [r3, #36]
 997:../Drivers/STM32L4xx_HAL_Driver/Src/stm32l4xx_hal_dma.c **** 
 1520              		.loc 1 997 3 view .LVU543
 999:../Drivers/STM32L4xx_HAL_Driver/Src/stm32l4xx_hal_dma.c **** }
 1521              		.loc 1 999 3 view .LVU544
 999:../Drivers/STM32L4xx_HAL_Driver/Src/stm32l4xx_hal_dma.c **** }
 1522              		.loc 1 999 10 is_stmt 0 view .LVU545
 1523 0592 7047     		bx	lr
 1524              	.LVL98:
ARM GAS  C:\Users\hoodc\AppData\Local\Temp\cc4eu5v8.s 			page 54


 1525              	.L92:
 961:../Drivers/STM32L4xx_HAL_Driver/Src/stm32l4xx_hal_dma.c ****     {
 1526              		.loc 1 961 5 is_stmt 1 view .LVU546
 1527 0594 0429     		cmp	r1, #4
 1528 0596 F9D8     		bhi	.L83
 1529 0598 DFE801F0 		tbb	[pc, r1]
 1530              	.L85:
 1531 059c 03       		.byte	(.L89-.L85)/2
 1532 059d 07       		.byte	(.L88-.L85)/2
 1533 059e 0A       		.byte	(.L87-.L85)/2
 1534 059f 0D       		.byte	(.L86-.L85)/2
 1535 05a0 10       		.byte	(.L84-.L85)/2
 1536 05a1 00       		.p2align 1
 1537              	.L89:
 964:../Drivers/STM32L4xx_HAL_Driver/Src/stm32l4xx_hal_dma.c ****            break;
 1538              		.loc 1 964 12 view .LVU547
 964:../Drivers/STM32L4xx_HAL_Driver/Src/stm32l4xx_hal_dma.c ****            break;
 1539              		.loc 1 964 35 is_stmt 0 view .LVU548
 1540 05a2 0022     		movs	r2, #0
 1541 05a4 DA62     		str	r2, [r3, #44]
 965:../Drivers/STM32L4xx_HAL_Driver/Src/stm32l4xx_hal_dma.c **** 
 1542              		.loc 1 965 12 is_stmt 1 view .LVU549
 954:../Drivers/STM32L4xx_HAL_Driver/Src/stm32l4xx_hal_dma.c **** 
 1543              		.loc 1 954 21 is_stmt 0 view .LVU550
 1544 05a6 0846     		mov	r0, r1
 965:../Drivers/STM32L4xx_HAL_Driver/Src/stm32l4xx_hal_dma.c **** 
 1545              		.loc 1 965 12 view .LVU551
 1546 05a8 F0E7     		b	.L83
 1547              	.L88:
 968:../Drivers/STM32L4xx_HAL_Driver/Src/stm32l4xx_hal_dma.c ****            break;
 1548              		.loc 1 968 12 is_stmt 1 view .LVU552
 968:../Drivers/STM32L4xx_HAL_Driver/Src/stm32l4xx_hal_dma.c ****            break;
 1549              		.loc 1 968 39 is_stmt 0 view .LVU553
 1550 05aa 0020     		movs	r0, #0
 1551 05ac 1863     		str	r0, [r3, #48]
 969:../Drivers/STM32L4xx_HAL_Driver/Src/stm32l4xx_hal_dma.c **** 
 1552              		.loc 1 969 12 is_stmt 1 view .LVU554
 1553 05ae EDE7     		b	.L83
 1554              	.L87:
 972:../Drivers/STM32L4xx_HAL_Driver/Src/stm32l4xx_hal_dma.c ****            break;
 1555              		.loc 1 972 12 view .LVU555
 972:../Drivers/STM32L4xx_HAL_Driver/Src/stm32l4xx_hal_dma.c ****            break;
 1556              		.loc 1 972 36 is_stmt 0 view .LVU556
 1557 05b0 0020     		movs	r0, #0
 1558 05b2 5863     		str	r0, [r3, #52]
 973:../Drivers/STM32L4xx_HAL_Driver/Src/stm32l4xx_hal_dma.c **** 
 1559              		.loc 1 973 12 is_stmt 1 view .LVU557
 1560 05b4 EAE7     		b	.L83
 1561              	.L86:
 976:../Drivers/STM32L4xx_HAL_Driver/Src/stm32l4xx_hal_dma.c ****            break;
 1562              		.loc 1 976 12 view .LVU558
 976:../Drivers/STM32L4xx_HAL_Driver/Src/stm32l4xx_hal_dma.c ****            break;
 1563              		.loc 1 976 36 is_stmt 0 view .LVU559
 1564 05b6 0020     		movs	r0, #0
 1565 05b8 9863     		str	r0, [r3, #56]
 977:../Drivers/STM32L4xx_HAL_Driver/Src/stm32l4xx_hal_dma.c **** 
 1566              		.loc 1 977 12 is_stmt 1 view .LVU560
ARM GAS  C:\Users\hoodc\AppData\Local\Temp\cc4eu5v8.s 			page 55


 1567 05ba E7E7     		b	.L83
 1568              	.L84:
 980:../Drivers/STM32L4xx_HAL_Driver/Src/stm32l4xx_hal_dma.c ****            hdma->XferHalfCpltCallback = NULL;
 1569              		.loc 1 980 12 view .LVU561
 980:../Drivers/STM32L4xx_HAL_Driver/Src/stm32l4xx_hal_dma.c ****            hdma->XferHalfCpltCallback = NULL;
 1570              		.loc 1 980 35 is_stmt 0 view .LVU562
 1571 05bc 0020     		movs	r0, #0
 1572 05be D862     		str	r0, [r3, #44]
 981:../Drivers/STM32L4xx_HAL_Driver/Src/stm32l4xx_hal_dma.c ****            hdma->XferErrorCallback = NULL;
 1573              		.loc 1 981 12 is_stmt 1 view .LVU563
 981:../Drivers/STM32L4xx_HAL_Driver/Src/stm32l4xx_hal_dma.c ****            hdma->XferErrorCallback = NULL;
 1574              		.loc 1 981 39 is_stmt 0 view .LVU564
 1575 05c0 1863     		str	r0, [r3, #48]
 982:../Drivers/STM32L4xx_HAL_Driver/Src/stm32l4xx_hal_dma.c ****            hdma->XferAbortCallback = NULL;
 1576              		.loc 1 982 12 is_stmt 1 view .LVU565
 982:../Drivers/STM32L4xx_HAL_Driver/Src/stm32l4xx_hal_dma.c ****            hdma->XferAbortCallback = NULL;
 1577              		.loc 1 982 36 is_stmt 0 view .LVU566
 1578 05c2 5863     		str	r0, [r3, #52]
 983:../Drivers/STM32L4xx_HAL_Driver/Src/stm32l4xx_hal_dma.c ****            break;
 1579              		.loc 1 983 12 is_stmt 1 view .LVU567
 983:../Drivers/STM32L4xx_HAL_Driver/Src/stm32l4xx_hal_dma.c ****            break;
 1580              		.loc 1 983 36 is_stmt 0 view .LVU568
 1581 05c4 9863     		str	r0, [r3, #56]
 984:../Drivers/STM32L4xx_HAL_Driver/Src/stm32l4xx_hal_dma.c **** 
 1582              		.loc 1 984 12 is_stmt 1 view .LVU569
 1583 05c6 E1E7     		b	.L83
 1584              	.LVL99:
 1585              	.L90:
 957:../Drivers/STM32L4xx_HAL_Driver/Src/stm32l4xx_hal_dma.c **** 
 1586              		.loc 1 957 3 is_stmt 0 view .LVU570
 1587 05c8 0220     		movs	r0, #2
 1588              	.LVL100:
1000:../Drivers/STM32L4xx_HAL_Driver/Src/stm32l4xx_hal_dma.c **** 
 1589              		.loc 1 1000 1 view .LVU571
 1590 05ca 7047     		bx	lr
 1591              		.cfi_endproc
 1592              	.LFE142:
 1593              		.size	HAL_DMA_UnRegisterCallback, .-HAL_DMA_UnRegisterCallback
 1594              		.align	1
 1595              		.global	HAL_DMA_GetState
 1596              		.syntax unified
 1597              		.thumb
 1598              		.thumb_func
 1599              		.fpu softvfp
 1600              		.type	HAL_DMA_GetState, %function
 1601              	HAL_DMA_GetState:
 1602              	.LVL101:
 1603              	.LFB143:
1031:../Drivers/STM32L4xx_HAL_Driver/Src/stm32l4xx_hal_dma.c ****   /* Return DMA handle state */
 1604              		.loc 1 1031 1 is_stmt 1 view -0
 1605              		.cfi_startproc
 1606              		@ args = 0, pretend = 0, frame = 0
 1607              		@ frame_needed = 0, uses_anonymous_args = 0
 1608              		@ link register save eliminated.
1033:../Drivers/STM32L4xx_HAL_Driver/Src/stm32l4xx_hal_dma.c **** }
 1609              		.loc 1 1033 3 view .LVU573
1033:../Drivers/STM32L4xx_HAL_Driver/Src/stm32l4xx_hal_dma.c **** }
ARM GAS  C:\Users\hoodc\AppData\Local\Temp\cc4eu5v8.s 			page 56


 1610              		.loc 1 1033 14 is_stmt 0 view .LVU574
 1611 05cc 90F82500 		ldrb	r0, [r0, #37]	@ zero_extendqisi2
 1612              	.LVL102:
1034:../Drivers/STM32L4xx_HAL_Driver/Src/stm32l4xx_hal_dma.c **** 
 1613              		.loc 1 1034 1 view .LVU575
 1614 05d0 7047     		bx	lr
 1615              		.cfi_endproc
 1616              	.LFE143:
 1617              		.size	HAL_DMA_GetState, .-HAL_DMA_GetState
 1618              		.align	1
 1619              		.global	HAL_DMA_GetError
 1620              		.syntax unified
 1621              		.thumb
 1622              		.thumb_func
 1623              		.fpu softvfp
 1624              		.type	HAL_DMA_GetError, %function
 1625              	HAL_DMA_GetError:
 1626              	.LVL103:
 1627              	.LFB144:
1043:../Drivers/STM32L4xx_HAL_Driver/Src/stm32l4xx_hal_dma.c ****   return hdma->ErrorCode;
 1628              		.loc 1 1043 1 is_stmt 1 view -0
 1629              		.cfi_startproc
 1630              		@ args = 0, pretend = 0, frame = 0
 1631              		@ frame_needed = 0, uses_anonymous_args = 0
 1632              		@ link register save eliminated.
1044:../Drivers/STM32L4xx_HAL_Driver/Src/stm32l4xx_hal_dma.c **** }
 1633              		.loc 1 1044 3 view .LVU577
1044:../Drivers/STM32L4xx_HAL_Driver/Src/stm32l4xx_hal_dma.c **** }
 1634              		.loc 1 1044 14 is_stmt 0 view .LVU578
 1635 05d2 C06B     		ldr	r0, [r0, #60]
 1636              	.LVL104:
1045:../Drivers/STM32L4xx_HAL_Driver/Src/stm32l4xx_hal_dma.c **** 
 1637              		.loc 1 1045 1 view .LVU579
 1638 05d4 7047     		bx	lr
 1639              		.cfi_endproc
 1640              	.LFE144:
 1641              		.size	HAL_DMA_GetError, .-HAL_DMA_GetError
 1642              	.Letext0:
 1643              		.file 2 "c:\\program files (x86)\\gnu arm embedded toolchain\\10 2020-q4-major\\arm-none-eabi\\inc
 1644              		.file 3 "c:\\program files (x86)\\gnu arm embedded toolchain\\10 2020-q4-major\\arm-none-eabi\\inc
 1645              		.file 4 "C:/Users/hoodc/AppData/Local/Arm/Packs/Keil/STM32L4xx_DFP/2.5.0/Drivers/CMSIS/Device/ST/S
 1646              		.file 5 "../Drivers/STM32L4xx_HAL_Driver/Inc/stm32l4xx_hal_def.h"
 1647              		.file 6 "../Drivers/STM32L4xx_HAL_Driver/Inc/stm32l4xx_hal_dma.h"
 1648              		.file 7 "../Drivers/STM32L4xx_HAL_Driver/Inc/stm32l4xx_hal.h"
 1649 05d6 00BF     		.section	.debug_info,"",%progbits
 1650              	.Ldebug_info0:
 1651 0000 2A090000 		.4byte	0x92a
 1652 0004 0200     		.2byte	0x2
 1653 0006 00000000 		.4byte	.Ldebug_abbrev0
 1654 000a 04       		.byte	0x4
 1655 000b 01       		.uleb128 0x1
 1656 000c 31050000 		.4byte	.LASF88
 1657 0010 0C       		.byte	0xc
 1658 0011 6D020000 		.4byte	.LASF89
 1659 0015 D6010000 		.4byte	.LASF90
 1660 0019 00000000 		.4byte	.Ltext0
 1661 001d D6050000 		.4byte	.Letext0
ARM GAS  C:\Users\hoodc\AppData\Local\Temp\cc4eu5v8.s 			page 57


 1662 0021 00000000 		.4byte	.Ldebug_line0
 1663 0025 02       		.uleb128 0x2
 1664 0026 01       		.byte	0x1
 1665 0027 06       		.byte	0x6
 1666 0028 F9020000 		.4byte	.LASF0
 1667 002c 02       		.uleb128 0x2
 1668 002d 01       		.byte	0x1
 1669 002e 08       		.byte	0x8
 1670 002f DC020000 		.4byte	.LASF1
 1671 0033 02       		.uleb128 0x2
 1672 0034 02       		.byte	0x2
 1673 0035 05       		.byte	0x5
 1674 0036 8D000000 		.4byte	.LASF2
 1675 003a 02       		.uleb128 0x2
 1676 003b 02       		.byte	0x2
 1677 003c 07       		.byte	0x7
 1678 003d AF030000 		.4byte	.LASF3
 1679 0041 02       		.uleb128 0x2
 1680 0042 04       		.byte	0x4
 1681 0043 05       		.byte	0x5
 1682 0044 28020000 		.4byte	.LASF4
 1683 0048 03       		.uleb128 0x3
 1684 0049 01010000 		.4byte	.LASF9
 1685 004d 02       		.byte	0x2
 1686 004e 4F       		.byte	0x4f
 1687 004f 19       		.byte	0x19
 1688 0050 54000000 		.4byte	0x54
 1689 0054 02       		.uleb128 0x2
 1690 0055 04       		.byte	0x4
 1691 0056 07       		.byte	0x7
 1692 0057 7B040000 		.4byte	.LASF5
 1693 005b 02       		.uleb128 0x2
 1694 005c 08       		.byte	0x8
 1695 005d 05       		.byte	0x5
 1696 005e A6010000 		.4byte	.LASF6
 1697 0062 02       		.uleb128 0x2
 1698 0063 08       		.byte	0x8
 1699 0064 07       		.byte	0x7
 1700 0065 B4010000 		.4byte	.LASF7
 1701 0069 04       		.uleb128 0x4
 1702 006a 04       		.byte	0x4
 1703 006b 05       		.byte	0x5
 1704 006c 696E7400 		.ascii	"int\000"
 1705 0070 02       		.uleb128 0x2
 1706 0071 04       		.byte	0x4
 1707 0072 07       		.byte	0x7
 1708 0073 B8050000 		.4byte	.LASF8
 1709 0077 03       		.uleb128 0x3
 1710 0078 23030000 		.4byte	.LASF10
 1711 007c 03       		.byte	0x3
 1712 007d 30       		.byte	0x30
 1713 007e 14       		.byte	0x14
 1714 007f 48000000 		.4byte	0x48
 1715 0083 05       		.uleb128 0x5
 1716 0084 77000000 		.4byte	0x77
 1717 0088 06       		.uleb128 0x6
 1718 0089 10       		.byte	0x10
ARM GAS  C:\Users\hoodc\AppData\Local\Temp\cc4eu5v8.s 			page 58


 1719 008a 04       		.byte	0x4
 1720 008b 0C01     		.2byte	0x10c
 1721 008d 09       		.byte	0x9
 1722 008e D3000000 		.4byte	0xd3
 1723 0092 07       		.uleb128 0x7
 1724 0093 43435200 		.ascii	"CCR\000"
 1725 0097 04       		.byte	0x4
 1726 0098 0E01     		.2byte	0x10e
 1727 009a 11       		.byte	0x11
 1728 009b 83000000 		.4byte	0x83
 1729 009f 02       		.byte	0x2
 1730 00a0 23       		.byte	0x23
 1731 00a1 00       		.uleb128 0
 1732 00a2 08       		.uleb128 0x8
 1733 00a3 DC030000 		.4byte	.LASF11
 1734 00a7 04       		.byte	0x4
 1735 00a8 0F01     		.2byte	0x10f
 1736 00aa 11       		.byte	0x11
 1737 00ab 83000000 		.4byte	0x83
 1738 00af 02       		.byte	0x2
 1739 00b0 23       		.byte	0x23
 1740 00b1 04       		.uleb128 0x4
 1741 00b2 08       		.uleb128 0x8
 1742 00b3 A5020000 		.4byte	.LASF12
 1743 00b7 04       		.byte	0x4
 1744 00b8 1001     		.2byte	0x110
 1745 00ba 11       		.byte	0x11
 1746 00bb 83000000 		.4byte	0x83
 1747 00bf 02       		.byte	0x2
 1748 00c0 23       		.byte	0x23
 1749 00c1 08       		.uleb128 0x8
 1750 00c2 08       		.uleb128 0x8
 1751 00c3 D4040000 		.4byte	.LASF13
 1752 00c7 04       		.byte	0x4
 1753 00c8 1101     		.2byte	0x111
 1754 00ca 11       		.byte	0x11
 1755 00cb 83000000 		.4byte	0x83
 1756 00cf 02       		.byte	0x2
 1757 00d0 23       		.byte	0x23
 1758 00d1 0C       		.uleb128 0xc
 1759 00d2 00       		.byte	0
 1760 00d3 09       		.uleb128 0x9
 1761 00d4 79000000 		.4byte	.LASF14
 1762 00d8 04       		.byte	0x4
 1763 00d9 1201     		.2byte	0x112
 1764 00db 03       		.byte	0x3
 1765 00dc 88000000 		.4byte	0x88
 1766 00e0 06       		.uleb128 0x6
 1767 00e1 08       		.byte	0x8
 1768 00e2 04       		.byte	0x4
 1769 00e3 1401     		.2byte	0x114
 1770 00e5 09       		.byte	0x9
 1771 00e6 0B010000 		.4byte	0x10b
 1772 00ea 07       		.uleb128 0x7
 1773 00eb 49535200 		.ascii	"ISR\000"
 1774 00ef 04       		.byte	0x4
 1775 00f0 1601     		.2byte	0x116
ARM GAS  C:\Users\hoodc\AppData\Local\Temp\cc4eu5v8.s 			page 59


 1776 00f2 11       		.byte	0x11
 1777 00f3 83000000 		.4byte	0x83
 1778 00f7 02       		.byte	0x2
 1779 00f8 23       		.byte	0x23
 1780 00f9 00       		.uleb128 0
 1781 00fa 08       		.uleb128 0x8
 1782 00fb 32040000 		.4byte	.LASF15
 1783 00ff 04       		.byte	0x4
 1784 0100 1701     		.2byte	0x117
 1785 0102 11       		.byte	0x11
 1786 0103 83000000 		.4byte	0x83
 1787 0107 02       		.byte	0x2
 1788 0108 23       		.byte	0x23
 1789 0109 04       		.uleb128 0x4
 1790 010a 00       		.byte	0
 1791 010b 09       		.uleb128 0x9
 1792 010c 27010000 		.4byte	.LASF16
 1793 0110 04       		.byte	0x4
 1794 0111 1801     		.2byte	0x118
 1795 0113 03       		.byte	0x3
 1796 0114 E0000000 		.4byte	0xe0
 1797 0118 06       		.uleb128 0x6
 1798 0119 04       		.byte	0x4
 1799 011a 04       		.byte	0x4
 1800 011b 1A01     		.2byte	0x11a
 1801 011d 09       		.byte	0x9
 1802 011e 33010000 		.4byte	0x133
 1803 0122 08       		.uleb128 0x8
 1804 0123 1E040000 		.4byte	.LASF17
 1805 0127 04       		.byte	0x4
 1806 0128 1C01     		.2byte	0x11c
 1807 012a 11       		.byte	0x11
 1808 012b 83000000 		.4byte	0x83
 1809 012f 02       		.byte	0x2
 1810 0130 23       		.byte	0x23
 1811 0131 00       		.uleb128 0
 1812 0132 00       		.byte	0
 1813 0133 09       		.uleb128 0x9
 1814 0134 FC030000 		.4byte	.LASF18
 1815 0138 04       		.byte	0x4
 1816 0139 1D01     		.2byte	0x11d
 1817 013b 03       		.byte	0x3
 1818 013c 18010000 		.4byte	0x118
 1819 0140 02       		.uleb128 0x2
 1820 0141 08       		.byte	0x8
 1821 0142 04       		.byte	0x4
 1822 0143 95010000 		.4byte	.LASF19
 1823 0147 0A       		.uleb128 0xa
 1824 0148 07       		.byte	0x7
 1825 0149 01       		.byte	0x1
 1826 014a 2C000000 		.4byte	0x2c
 1827 014e 05       		.byte	0x5
 1828 014f 28       		.byte	0x28
 1829 0150 01       		.byte	0x1
 1830 0151 6E010000 		.4byte	0x16e
 1831 0155 0B       		.uleb128 0xb
 1832 0156 33010000 		.4byte	.LASF20
ARM GAS  C:\Users\hoodc\AppData\Local\Temp\cc4eu5v8.s 			page 60


 1833 015a 00       		.byte	0
 1834 015b 0B       		.uleb128 0xb
 1835 015c D2020000 		.4byte	.LASF21
 1836 0160 01       		.byte	0x1
 1837 0161 0B       		.uleb128 0xb
 1838 0162 7E010000 		.4byte	.LASF22
 1839 0166 02       		.byte	0x2
 1840 0167 0B       		.uleb128 0xb
 1841 0168 41000000 		.4byte	.LASF23
 1842 016c 03       		.byte	0x3
 1843 016d 00       		.byte	0
 1844 016e 03       		.uleb128 0x3
 1845 016f 5B020000 		.4byte	.LASF24
 1846 0173 05       		.byte	0x5
 1847 0174 2D       		.byte	0x2d
 1848 0175 03       		.byte	0x3
 1849 0176 47010000 		.4byte	0x147
 1850 017a 0A       		.uleb128 0xa
 1851 017b 07       		.byte	0x7
 1852 017c 01       		.byte	0x1
 1853 017d 2C000000 		.4byte	0x2c
 1854 0181 05       		.byte	0x5
 1855 0182 33       		.byte	0x33
 1856 0183 01       		.byte	0x1
 1857 0184 95010000 		.4byte	0x195
 1858 0188 0B       		.uleb128 0xb
 1859 0189 34000000 		.4byte	.LASF25
 1860 018d 00       		.byte	0
 1861 018e 0B       		.uleb128 0xb
 1862 018f 6A030000 		.4byte	.LASF26
 1863 0193 01       		.byte	0x1
 1864 0194 00       		.byte	0
 1865 0195 03       		.uleb128 0x3
 1866 0196 E4050000 		.4byte	.LASF27
 1867 019a 05       		.byte	0x5
 1868 019b 36       		.byte	0x36
 1869 019c 03       		.byte	0x3
 1870 019d 7A010000 		.4byte	0x17a
 1871 01a1 0C       		.uleb128 0xc
 1872 01a2 20       		.byte	0x20
 1873 01a3 06       		.byte	0x6
 1874 01a4 2F       		.byte	0x2f
 1875 01a5 09       		.byte	0x9
 1876 01a6 23020000 		.4byte	0x223
 1877 01aa 0D       		.uleb128 0xd
 1878 01ab 76010000 		.4byte	.LASF28
 1879 01af 06       		.byte	0x6
 1880 01b0 31       		.byte	0x31
 1881 01b1 0C       		.byte	0xc
 1882 01b2 77000000 		.4byte	0x77
 1883 01b6 02       		.byte	0x2
 1884 01b7 23       		.byte	0x23
 1885 01b8 00       		.uleb128 0
 1886 01b9 0D       		.uleb128 0xd
 1887 01ba 19000000 		.4byte	.LASF29
 1888 01be 06       		.byte	0x6
 1889 01bf 34       		.byte	0x34
ARM GAS  C:\Users\hoodc\AppData\Local\Temp\cc4eu5v8.s 			page 61


 1890 01c0 0C       		.byte	0xc
 1891 01c1 77000000 		.4byte	0x77
 1892 01c5 02       		.byte	0x2
 1893 01c6 23       		.byte	0x23
 1894 01c7 04       		.uleb128 0x4
 1895 01c8 0D       		.uleb128 0xd
 1896 01c9 31020000 		.4byte	.LASF30
 1897 01cd 06       		.byte	0x6
 1898 01ce 38       		.byte	0x38
 1899 01cf 0C       		.byte	0xc
 1900 01d0 77000000 		.4byte	0x77
 1901 01d4 02       		.byte	0x2
 1902 01d5 23       		.byte	0x23
 1903 01d6 08       		.uleb128 0x8
 1904 01d7 0D       		.uleb128 0xd
 1905 01d8 8D040000 		.4byte	.LASF31
 1906 01dc 06       		.byte	0x6
 1907 01dd 3B       		.byte	0x3b
 1908 01de 0C       		.byte	0xc
 1909 01df 77000000 		.4byte	0x77
 1910 01e3 02       		.byte	0x2
 1911 01e4 23       		.byte	0x23
 1912 01e5 0C       		.uleb128 0xc
 1913 01e6 0D       		.uleb128 0xd
 1914 01e7 0D050000 		.4byte	.LASF32
 1915 01eb 06       		.byte	0x6
 1916 01ec 3E       		.byte	0x3e
 1917 01ed 0C       		.byte	0xc
 1918 01ee 77000000 		.4byte	0x77
 1919 01f2 02       		.byte	0x2
 1920 01f3 23       		.byte	0x23
 1921 01f4 10       		.uleb128 0x10
 1922 01f5 0D       		.uleb128 0xd
 1923 01f6 D9040000 		.4byte	.LASF33
 1924 01fa 06       		.byte	0x6
 1925 01fb 41       		.byte	0x41
 1926 01fc 0C       		.byte	0xc
 1927 01fd 77000000 		.4byte	0x77
 1928 0201 02       		.byte	0x2
 1929 0202 23       		.byte	0x23
 1930 0203 14       		.uleb128 0x14
 1931 0204 0D       		.uleb128 0xd
 1932 0205 21050000 		.4byte	.LASF34
 1933 0209 06       		.byte	0x6
 1934 020a 44       		.byte	0x44
 1935 020b 0C       		.byte	0xc
 1936 020c 77000000 		.4byte	0x77
 1937 0210 02       		.byte	0x2
 1938 0211 23       		.byte	0x23
 1939 0212 18       		.uleb128 0x18
 1940 0213 0D       		.uleb128 0xd
 1941 0214 5E000000 		.4byte	.LASF35
 1942 0218 06       		.byte	0x6
 1943 0219 49       		.byte	0x49
 1944 021a 0C       		.byte	0xc
 1945 021b 77000000 		.4byte	0x77
 1946 021f 02       		.byte	0x2
ARM GAS  C:\Users\hoodc\AppData\Local\Temp\cc4eu5v8.s 			page 62


 1947 0220 23       		.byte	0x23
 1948 0221 1C       		.uleb128 0x1c
 1949 0222 00       		.byte	0
 1950 0223 03       		.uleb128 0x3
 1951 0224 BB020000 		.4byte	.LASF36
 1952 0228 06       		.byte	0x6
 1953 0229 4B       		.byte	0x4b
 1954 022a 03       		.byte	0x3
 1955 022b A1010000 		.4byte	0x1a1
 1956 022f 0A       		.uleb128 0xa
 1957 0230 07       		.byte	0x7
 1958 0231 01       		.byte	0x1
 1959 0232 2C000000 		.4byte	0x2c
 1960 0236 06       		.byte	0x6
 1961 0237 51       		.byte	0x51
 1962 0238 01       		.byte	0x1
 1963 0239 56020000 		.4byte	0x256
 1964 023d 0B       		.uleb128 0xb
 1965 023e DB000000 		.4byte	.LASF37
 1966 0242 00       		.byte	0
 1967 0243 0B       		.uleb128 0xb
 1968 0244 FE050000 		.4byte	.LASF38
 1969 0248 01       		.byte	0x1
 1970 0249 0B       		.uleb128 0xb
 1971 024a 4F010000 		.4byte	.LASF39
 1972 024e 02       		.byte	0x2
 1973 024f 0B       		.uleb128 0xb
 1974 0250 97000000 		.4byte	.LASF40
 1975 0254 03       		.byte	0x3
 1976 0255 00       		.byte	0
 1977 0256 03       		.uleb128 0x3
 1978 0257 3A010000 		.4byte	.LASF41
 1979 025b 06       		.byte	0x6
 1980 025c 56       		.byte	0x56
 1981 025d 02       		.byte	0x2
 1982 025e 2F020000 		.4byte	0x22f
 1983 0262 05       		.uleb128 0x5
 1984 0263 56020000 		.4byte	0x256
 1985 0267 0A       		.uleb128 0xa
 1986 0268 07       		.byte	0x7
 1987 0269 01       		.byte	0x1
 1988 026a 2C000000 		.4byte	0x2c
 1989 026e 06       		.byte	0x6
 1990 026f 5C       		.byte	0x5c
 1991 0270 01       		.byte	0x1
 1992 0271 82020000 		.4byte	0x282
 1993 0275 0B       		.uleb128 0xb
 1994 0276 92030000 		.4byte	.LASF42
 1995 027a 00       		.byte	0
 1996 027b 0B       		.uleb128 0xb
 1997 027c 2C030000 		.4byte	.LASF43
 1998 0280 01       		.byte	0x1
 1999 0281 00       		.byte	0
 2000 0282 03       		.uleb128 0x3
 2001 0283 75030000 		.4byte	.LASF44
 2002 0287 06       		.byte	0x6
 2003 0288 5F       		.byte	0x5f
ARM GAS  C:\Users\hoodc\AppData\Local\Temp\cc4eu5v8.s 			page 63


 2004 0289 02       		.byte	0x2
 2005 028a 67020000 		.4byte	0x267
 2006 028e 0A       		.uleb128 0xa
 2007 028f 07       		.byte	0x7
 2008 0290 01       		.byte	0x1
 2009 0291 2C000000 		.4byte	0x2c
 2010 0295 06       		.byte	0x6
 2011 0296 66       		.byte	0x66
 2012 0297 01       		.byte	0x1
 2013 0298 BB020000 		.4byte	0x2bb
 2014 029c 0B       		.uleb128 0xb
 2015 029d EA040000 		.4byte	.LASF45
 2016 02a1 00       		.byte	0
 2017 02a2 0B       		.uleb128 0xb
 2018 02a3 AB040000 		.4byte	.LASF46
 2019 02a7 01       		.byte	0x1
 2020 02a8 0B       		.uleb128 0xb
 2021 02a9 05030000 		.4byte	.LASF47
 2022 02ad 02       		.byte	0x2
 2023 02ae 0B       		.uleb128 0xb
 2024 02af 00000000 		.4byte	.LASF48
 2025 02b3 03       		.byte	0x3
 2026 02b4 0B       		.uleb128 0xb
 2027 02b5 94040000 		.4byte	.LASF49
 2028 02b9 04       		.byte	0x4
 2029 02ba 00       		.byte	0
 2030 02bb 03       		.uleb128 0x3
 2031 02bc E2030000 		.4byte	.LASF50
 2032 02c0 06       		.byte	0x6
 2033 02c1 6C       		.byte	0x6c
 2034 02c2 02       		.byte	0x2
 2035 02c3 8E020000 		.4byte	0x28e
 2036 02c7 0E       		.uleb128 0xe
 2037 02c8 62010000 		.4byte	.LASF91
 2038 02cc 48       		.byte	0x48
 2039 02cd 06       		.byte	0x6
 2040 02ce 71       		.byte	0x71
 2041 02cf 10       		.byte	0x10
 2042 02d0 89030000 		.4byte	0x389
 2043 02d4 0D       		.uleb128 0xd
 2044 02d5 50030000 		.4byte	.LASF51
 2045 02d9 06       		.byte	0x6
 2046 02da 73       		.byte	0x73
 2047 02db 1B       		.byte	0x1b
 2048 02dc 89030000 		.4byte	0x389
 2049 02e0 02       		.byte	0x2
 2050 02e1 23       		.byte	0x23
 2051 02e2 00       		.uleb128 0
 2052 02e3 0D       		.uleb128 0xd
 2053 02e4 D1010000 		.4byte	.LASF52
 2054 02e8 06       		.byte	0x6
 2055 02e9 75       		.byte	0x75
 2056 02ea 19       		.byte	0x19
 2057 02eb 23020000 		.4byte	0x223
 2058 02ef 02       		.byte	0x2
 2059 02f0 23       		.byte	0x23
 2060 02f1 04       		.uleb128 0x4
ARM GAS  C:\Users\hoodc\AppData\Local\Temp\cc4eu5v8.s 			page 64


 2061 02f2 0D       		.uleb128 0xd
 2062 02f3 3B020000 		.4byte	.LASF53
 2063 02f7 06       		.byte	0x6
 2064 02f8 77       		.byte	0x77
 2065 02f9 19       		.byte	0x19
 2066 02fa 95010000 		.4byte	0x195
 2067 02fe 02       		.byte	0x2
 2068 02ff 23       		.byte	0x23
 2069 0300 24       		.uleb128 0x24
 2070 0301 0D       		.uleb128 0xd
 2071 0302 CB010000 		.4byte	.LASF54
 2072 0306 06       		.byte	0x6
 2073 0307 79       		.byte	0x79
 2074 0308 1E       		.byte	0x1e
 2075 0309 62020000 		.4byte	0x262
 2076 030d 02       		.byte	0x2
 2077 030e 23       		.byte	0x23
 2078 030f 25       		.uleb128 0x25
 2079 0310 0D       		.uleb128 0xd
 2080 0311 CB020000 		.4byte	.LASF55
 2081 0315 06       		.byte	0x6
 2082 0316 7B       		.byte	0x7b
 2083 0317 1A       		.byte	0x1a
 2084 0318 8F030000 		.4byte	0x38f
 2085 031c 02       		.byte	0x2
 2086 031d 23       		.byte	0x23
 2087 031e 28       		.uleb128 0x28
 2088 031f 0D       		.uleb128 0xd
 2089 0320 59030000 		.4byte	.LASF56
 2090 0324 06       		.byte	0x6
 2091 0325 7D       		.byte	0x7d
 2092 0326 1C       		.byte	0x1c
 2093 0327 A3030000 		.4byte	0x3a3
 2094 032b 02       		.byte	0x2
 2095 032c 23       		.byte	0x23
 2096 032d 2C       		.uleb128 0x2c
 2097 032e 0D       		.uleb128 0xd
 2098 032f CF050000 		.4byte	.LASF57
 2099 0333 06       		.byte	0x6
 2100 0334 7F       		.byte	0x7f
 2101 0335 1C       		.byte	0x1c
 2102 0336 A3030000 		.4byte	0x3a3
 2103 033a 02       		.byte	0x2
 2104 033b 23       		.byte	0x23
 2105 033c 30       		.uleb128 0x30
 2106 033d 0D       		.uleb128 0xd
 2107 033e CA030000 		.4byte	.LASF58
 2108 0342 06       		.byte	0x6
 2109 0343 81       		.byte	0x81
 2110 0344 1C       		.byte	0x1c
 2111 0345 A3030000 		.4byte	0x3a3
 2112 0349 02       		.byte	0x2
 2113 034a 23       		.byte	0x23
 2114 034b 34       		.uleb128 0x34
 2115 034c 0D       		.uleb128 0xd
 2116 034d 67000000 		.4byte	.LASF59
 2117 0351 06       		.byte	0x6
ARM GAS  C:\Users\hoodc\AppData\Local\Temp\cc4eu5v8.s 			page 65


 2118 0352 83       		.byte	0x83
 2119 0353 1C       		.byte	0x1c
 2120 0354 A3030000 		.4byte	0x3a3
 2121 0358 02       		.byte	0x2
 2122 0359 23       		.byte	0x23
 2123 035a 38       		.uleb128 0x38
 2124 035b 0D       		.uleb128 0xd
 2125 035c F4050000 		.4byte	.LASF60
 2126 0360 06       		.byte	0x6
 2127 0361 85       		.byte	0x85
 2128 0362 19       		.byte	0x19
 2129 0363 83000000 		.4byte	0x83
 2130 0367 02       		.byte	0x2
 2131 0368 23       		.byte	0x23
 2132 0369 3C       		.uleb128 0x3c
 2133 036a 0D       		.uleb128 0xd
 2134 036b 18010000 		.4byte	.LASF61
 2135 036f 06       		.byte	0x6
 2136 0370 87       		.byte	0x87
 2137 0371 1A       		.byte	0x1a
 2138 0372 A9030000 		.4byte	0x3a9
 2139 0376 02       		.byte	0x2
 2140 0377 23       		.byte	0x23
 2141 0378 40       		.uleb128 0x40
 2142 0379 0D       		.uleb128 0xd
 2143 037a C7040000 		.4byte	.LASF62
 2144 037e 06       		.byte	0x6
 2145 037f 89       		.byte	0x89
 2146 0380 19       		.byte	0x19
 2147 0381 77000000 		.4byte	0x77
 2148 0385 02       		.byte	0x2
 2149 0386 23       		.byte	0x23
 2150 0387 44       		.uleb128 0x44
 2151 0388 00       		.byte	0
 2152 0389 0F       		.uleb128 0xf
 2153 038a 04       		.byte	0x4
 2154 038b D3000000 		.4byte	0xd3
 2155 038f 10       		.uleb128 0x10
 2156 0390 04       		.byte	0x4
 2157 0391 11       		.uleb128 0x11
 2158 0392 01       		.byte	0x1
 2159 0393 9D030000 		.4byte	0x39d
 2160 0397 12       		.uleb128 0x12
 2161 0398 9D030000 		.4byte	0x39d
 2162 039c 00       		.byte	0
 2163 039d 0F       		.uleb128 0xf
 2164 039e 04       		.byte	0x4
 2165 039f C7020000 		.4byte	0x2c7
 2166 03a3 0F       		.uleb128 0xf
 2167 03a4 04       		.byte	0x4
 2168 03a5 91030000 		.4byte	0x391
 2169 03a9 0F       		.uleb128 0xf
 2170 03aa 04       		.byte	0x4
 2171 03ab 0B010000 		.4byte	0x10b
 2172 03af 03       		.uleb128 0x3
 2173 03b0 EF000000 		.4byte	.LASF63
 2174 03b4 06       		.byte	0x6
ARM GAS  C:\Users\hoodc\AppData\Local\Temp\cc4eu5v8.s 			page 66


 2175 03b5 9A       		.byte	0x9a
 2176 03b6 02       		.byte	0x2
 2177 03b7 C7020000 		.4byte	0x2c7
 2178 03bb 0F       		.uleb128 0xf
 2179 03bc 04       		.byte	0x4
 2180 03bd AF030000 		.4byte	0x3af
 2181 03c1 13       		.uleb128 0x13
 2182 03c2 42030000 		.4byte	.LASF92
 2183 03c6 01       		.byte	0x1
 2184 03c7 2C04     		.2byte	0x42c
 2185 03c9 0D       		.byte	0xd
 2186 03ca 01       		.byte	0x1
 2187 03cb 01       		.byte	0x1
 2188 03cc 05040000 		.4byte	0x405
 2189 03d0 14       		.uleb128 0x14
 2190 03d1 1E030000 		.4byte	.LASF64
 2191 03d5 01       		.byte	0x1
 2192 03d6 2C04     		.2byte	0x42c
 2193 03d8 2E       		.byte	0x2e
 2194 03d9 BB030000 		.4byte	0x3bb
 2195 03dd 14       		.uleb128 0x14
 2196 03de 02050000 		.4byte	.LASF65
 2197 03e2 01       		.byte	0x1
 2198 03e3 2C04     		.2byte	0x42c
 2199 03e5 3D       		.byte	0x3d
 2200 03e6 77000000 		.4byte	0x77
 2201 03ea 14       		.uleb128 0x14
 2202 03eb 37040000 		.4byte	.LASF66
 2203 03ef 01       		.byte	0x1
 2204 03f0 2C04     		.2byte	0x42c
 2205 03f2 52       		.byte	0x52
 2206 03f3 77000000 		.4byte	0x77
 2207 03f7 14       		.uleb128 0x14
 2208 03f8 26050000 		.4byte	.LASF67
 2209 03fc 01       		.byte	0x1
 2210 03fd 2C04     		.2byte	0x42c
 2211 03ff 67       		.byte	0x67
 2212 0400 77000000 		.4byte	0x77
 2213 0404 00       		.byte	0
 2214 0405 15       		.uleb128 0x15
 2215 0406 01       		.byte	0x1
 2216 0407 40020000 		.4byte	.LASF68
 2217 040b 01       		.byte	0x1
 2218 040c 1204     		.2byte	0x412
 2219 040e 0A       		.byte	0xa
 2220 040f 01       		.byte	0x1
 2221 0410 77000000 		.4byte	0x77
 2222 0414 D2050000 		.4byte	.LFB144
 2223 0418 D6050000 		.4byte	.LFE144
 2224 041c 02       		.byte	0x2
 2225 041d 7D       		.byte	0x7d
 2226 041e 00       		.sleb128 0
 2227 041f 01       		.byte	0x1
 2228 0420 3A040000 		.4byte	0x43a
 2229 0424 16       		.uleb128 0x16
 2230 0425 1E030000 		.4byte	.LASF64
 2231 0429 01       		.byte	0x1
ARM GAS  C:\Users\hoodc\AppData\Local\Temp\cc4eu5v8.s 			page 67


 2232 042a 1204     		.2byte	0x412
 2233 042c 2E       		.byte	0x2e
 2234 042d BB030000 		.4byte	0x3bb
 2235 0431 04000000 		.4byte	.LLST43
 2236 0435 00000000 		.4byte	.LVUS43
 2237 0439 00       		.byte	0
 2238 043a 15       		.uleb128 0x15
 2239 043b 01       		.byte	0x1
 2240 043c 4D000000 		.4byte	.LASF69
 2241 0440 01       		.byte	0x1
 2242 0441 0604     		.2byte	0x406
 2243 0443 16       		.byte	0x16
 2244 0444 01       		.byte	0x1
 2245 0445 56020000 		.4byte	0x256
 2246 0449 CC050000 		.4byte	.LFB143
 2247 044d D2050000 		.4byte	.LFE143
 2248 0451 02       		.byte	0x2
 2249 0452 7D       		.byte	0x7d
 2250 0453 00       		.sleb128 0
 2251 0454 01       		.byte	0x1
 2252 0455 6F040000 		.4byte	0x46f
 2253 0459 16       		.uleb128 0x16
 2254 045a 1E030000 		.4byte	.LASF64
 2255 045e 01       		.byte	0x1
 2256 045f 0604     		.2byte	0x406
 2257 0461 3A       		.byte	0x3a
 2258 0462 BB030000 		.4byte	0x3bb
 2259 0466 29000000 		.4byte	.LLST42
 2260 046a 25000000 		.4byte	.LVUS42
 2261 046e 00       		.byte	0
 2262 046f 15       		.uleb128 0x15
 2263 0470 01       		.byte	0x1
 2264 0471 4D040000 		.4byte	.LASF70
 2265 0475 01       		.byte	0x1
 2266 0476 B803     		.2byte	0x3b8
 2267 0478 13       		.byte	0x13
 2268 0479 01       		.byte	0x1
 2269 047a 6E010000 		.4byte	0x16e
 2270 047e 70050000 		.4byte	.LFB142
 2271 0482 CC050000 		.4byte	.LFE142
 2272 0486 02       		.byte	0x2
 2273 0487 7D       		.byte	0x7d
 2274 0488 00       		.sleb128 0
 2275 0489 01       		.byte	0x1
 2276 048a C8040000 		.4byte	0x4c8
 2277 048e 16       		.uleb128 0x16
 2278 048f 1E030000 		.4byte	.LASF64
 2279 0493 01       		.byte	0x1
 2280 0494 B803     		.2byte	0x3b8
 2281 0496 41       		.byte	0x41
 2282 0497 BB030000 		.4byte	0x3bb
 2283 049b 52000000 		.4byte	.LLST40
 2284 049f 4A000000 		.4byte	.LVUS40
 2285 04a3 17       		.uleb128 0x17
 2286 04a4 42040000 		.4byte	.LASF72
 2287 04a8 01       		.byte	0x1
 2288 04a9 B803     		.2byte	0x3b8
ARM GAS  C:\Users\hoodc\AppData\Local\Temp\cc4eu5v8.s 			page 68


 2289 04ab 61       		.byte	0x61
 2290 04ac BB020000 		.4byte	0x2bb
 2291 04b0 01       		.byte	0x1
 2292 04b1 51       		.byte	0x51
 2293 04b2 18       		.uleb128 0x18
 2294 04b3 A8030000 		.4byte	.LASF74
 2295 04b7 01       		.byte	0x1
 2296 04b8 BA03     		.2byte	0x3ba
 2297 04ba 15       		.byte	0x15
 2298 04bb 6E010000 		.4byte	0x16e
 2299 04bf 8C000000 		.4byte	.LLST41
 2300 04c3 86000000 		.4byte	.LVUS41
 2301 04c7 00       		.byte	0
 2302 04c8 15       		.uleb128 0x15
 2303 04c9 01       		.byte	0x1
 2304 04ca C2000000 		.4byte	.LASF71
 2305 04ce 01       		.byte	0x1
 2306 04cf 8503     		.2byte	0x385
 2307 04d1 13       		.byte	0x13
 2308 04d2 01       		.byte	0x1
 2309 04d3 6E010000 		.4byte	0x16e
 2310 04d7 2A050000 		.4byte	.LFB141
 2311 04db 70050000 		.4byte	.LFE141
 2312 04df 02       		.byte	0x2
 2313 04e0 7D       		.byte	0x7d
 2314 04e1 00       		.sleb128 0
 2315 04e2 01       		.byte	0x1
 2316 04e3 36050000 		.4byte	0x536
 2317 04e7 16       		.uleb128 0x16
 2318 04e8 1E030000 		.4byte	.LASF64
 2319 04ec 01       		.byte	0x1
 2320 04ed 8503     		.2byte	0x385
 2321 04ef 3F       		.byte	0x3f
 2322 04f0 BB030000 		.4byte	0x3bb
 2323 04f4 BB000000 		.4byte	.LLST37
 2324 04f8 B7000000 		.4byte	.LVUS37
 2325 04fc 17       		.uleb128 0x17
 2326 04fd 42040000 		.4byte	.LASF72
 2327 0501 01       		.byte	0x1
 2328 0502 8503     		.2byte	0x385
 2329 0504 5F       		.byte	0x5f
 2330 0505 BB020000 		.4byte	0x2bb
 2331 0509 01       		.byte	0x1
 2332 050a 51       		.byte	0x51
 2333 050b 16       		.uleb128 0x16
 2334 050c C5050000 		.4byte	.LASF73
 2335 0510 01       		.byte	0x1
 2336 0511 8503     		.2byte	0x385
 2337 0513 73       		.byte	0x73
 2338 0514 42050000 		.4byte	0x542
 2339 0518 DF000000 		.4byte	.LLST38
 2340 051c D9000000 		.4byte	.LVUS38
 2341 0520 18       		.uleb128 0x18
 2342 0521 A8030000 		.4byte	.LASF74
 2343 0525 01       		.byte	0x1
 2344 0526 8703     		.2byte	0x387
 2345 0528 15       		.byte	0x15
ARM GAS  C:\Users\hoodc\AppData\Local\Temp\cc4eu5v8.s 			page 69


 2346 0529 6E010000 		.4byte	0x16e
 2347 052d 11010000 		.4byte	.LLST39
 2348 0531 0B010000 		.4byte	.LVUS39
 2349 0535 00       		.byte	0
 2350 0536 11       		.uleb128 0x11
 2351 0537 01       		.byte	0x1
 2352 0538 42050000 		.4byte	0x542
 2353 053c 12       		.uleb128 0x12
 2354 053d BB030000 		.4byte	0x3bb
 2355 0541 00       		.byte	0
 2356 0542 0F       		.uleb128 0xf
 2357 0543 04       		.byte	0x4
 2358 0544 36050000 		.4byte	0x536
 2359 0548 19       		.uleb128 0x19
 2360 0549 01       		.byte	0x1
 2361 054a 68040000 		.4byte	.LASF93
 2362 054e 01       		.byte	0x1
 2363 054f 2503     		.2byte	0x325
 2364 0551 06       		.byte	0x6
 2365 0552 01       		.byte	0x1
 2366 0553 66040000 		.4byte	.LFB140
 2367 0557 2A050000 		.4byte	.LFE140
 2368 055b 3C010000 		.4byte	.LLST33
 2369 055f 01       		.byte	0x1
 2370 0560 D3050000 		.4byte	0x5d3
 2371 0564 16       		.uleb128 0x16
 2372 0565 1E030000 		.4byte	.LASF64
 2373 0569 01       		.byte	0x1
 2374 056a 2503     		.2byte	0x325
 2375 056c 2C       		.byte	0x2c
 2376 056d BB030000 		.4byte	0x3bb
 2377 0571 68010000 		.4byte	.LLST34
 2378 0575 5C010000 		.4byte	.LVUS34
 2379 0579 18       		.uleb128 0x18
 2380 057a BA000000 		.4byte	.LASF75
 2381 057e 01       		.byte	0x1
 2382 057f 2703     		.2byte	0x327
 2383 0581 0C       		.byte	0xc
 2384 0582 77000000 		.4byte	0x77
 2385 0586 C1010000 		.4byte	.LLST35
 2386 058a BB010000 		.4byte	.LVUS35
 2387 058e 18       		.uleb128 0x18
 2388 058f 12060000 		.4byte	.LASF76
 2389 0593 01       		.byte	0x1
 2390 0594 2803     		.2byte	0x328
 2391 0596 0C       		.byte	0xc
 2392 0597 77000000 		.4byte	0x77
 2393 059b EC010000 		.4byte	.LLST36
 2394 059f EA010000 		.4byte	.LVUS36
 2395 05a3 1A       		.uleb128 0x1a
 2396 05a4 A8040000 		.4byte	.LVL81
 2397 05a8 B4050000 		.4byte	0x5b4
 2398 05ac 1B       		.uleb128 0x1b
 2399 05ad 01       		.byte	0x1
 2400 05ae 50       		.byte	0x50
 2401 05af 03       		.byte	0x3
 2402 05b0 F3       		.byte	0xf3
ARM GAS  C:\Users\hoodc\AppData\Local\Temp\cc4eu5v8.s 			page 70


 2403 05b1 01       		.uleb128 0x1
 2404 05b2 50       		.byte	0x50
 2405 05b3 00       		.byte	0
 2406 05b4 1A       		.uleb128 0x1a
 2407 05b5 EA040000 		.4byte	.LVL84
 2408 05b9 C5050000 		.4byte	0x5c5
 2409 05bd 1B       		.uleb128 0x1b
 2410 05be 01       		.byte	0x1
 2411 05bf 50       		.byte	0x50
 2412 05c0 03       		.byte	0x3
 2413 05c1 F3       		.byte	0xf3
 2414 05c2 01       		.uleb128 0x1
 2415 05c3 50       		.byte	0x50
 2416 05c4 00       		.byte	0
 2417 05c5 1C       		.uleb128 0x1c
 2418 05c6 28050000 		.4byte	.LVL87
 2419 05ca 1B       		.uleb128 0x1b
 2420 05cb 01       		.byte	0x1
 2421 05cc 50       		.byte	0x50
 2422 05cd 03       		.byte	0x3
 2423 05ce F3       		.byte	0xf3
 2424 05cf 01       		.uleb128 0x1
 2425 05d0 50       		.byte	0x50
 2426 05d1 00       		.byte	0
 2427 05d2 00       		.byte	0
 2428 05d3 1D       		.uleb128 0x1d
 2429 05d4 01       		.byte	0x1
 2430 05d5 1C060000 		.4byte	.LASF77
 2431 05d9 01       		.byte	0x1
 2432 05da A302     		.2byte	0x2a3
 2433 05dc 13       		.byte	0x13
 2434 05dd 01       		.byte	0x1
 2435 05de 6E010000 		.4byte	0x16e
 2436 05e2 86030000 		.4byte	.LFB139
 2437 05e6 66040000 		.4byte	.LFE139
 2438 05ea FF010000 		.4byte	.LLST27
 2439 05ee 01       		.byte	0x1
 2440 05ef 6F060000 		.4byte	0x66f
 2441 05f3 16       		.uleb128 0x16
 2442 05f4 1E030000 		.4byte	.LASF64
 2443 05f8 01       		.byte	0x1
 2444 05f9 A302     		.2byte	0x2a3
 2445 05fb 3E       		.byte	0x3e
 2446 05fc BB030000 		.4byte	0x3bb
 2447 0600 2F020000 		.4byte	.LLST28
 2448 0604 1F020000 		.4byte	.LVUS28
 2449 0608 16       		.uleb128 0x16
 2450 0609 10040000 		.4byte	.LASF78
 2451 060d 01       		.byte	0x1
 2452 060e A302     		.2byte	0x2a3
 2453 0610 61       		.byte	0x61
 2454 0611 82020000 		.4byte	0x282
 2455 0615 9B020000 		.4byte	.LLST29
 2456 0619 8F020000 		.4byte	.LVUS29
 2457 061d 16       		.uleb128 0x16
 2458 061e C2030000 		.4byte	.LASF79
 2459 0622 01       		.byte	0x1
ARM GAS  C:\Users\hoodc\AppData\Local\Temp\cc4eu5v8.s 			page 71


 2460 0623 A302     		.2byte	0x2a3
 2461 0625 79       		.byte	0x79
 2462 0626 77000000 		.4byte	0x77
 2463 062a FA020000 		.4byte	.LLST30
 2464 062e EE020000 		.4byte	.LVUS30
 2465 0632 18       		.uleb128 0x18
 2466 0633 A1010000 		.4byte	.LASF80
 2467 0637 01       		.byte	0x1
 2468 0638 A502     		.2byte	0x2a5
 2469 063a 0C       		.byte	0xc
 2470 063b 77000000 		.4byte	0x77
 2471 063f 48030000 		.4byte	.LLST31
 2472 0643 44030000 		.4byte	.LVUS31
 2473 0647 18       		.uleb128 0x18
 2474 0648 51020000 		.4byte	.LASF81
 2475 064c 01       		.byte	0x1
 2476 064d A602     		.2byte	0x2a6
 2477 064f 0C       		.byte	0xc
 2478 0650 77000000 		.4byte	0x77
 2479 0654 6C030000 		.4byte	.LLST32
 2480 0658 66030000 		.4byte	.LVUS32
 2481 065c 1E       		.uleb128 0x1e
 2482 065d C6030000 		.4byte	.LVL68
 2483 0661 1E090000 		.4byte	0x91e
 2484 0665 1E       		.uleb128 0x1e
 2485 0666 EC030000 		.4byte	.LVL71
 2486 066a 1E090000 		.4byte	0x91e
 2487 066e 00       		.byte	0
 2488 066f 1D       		.uleb128 0x1d
 2489 0670 01       		.byte	0x1
 2490 0671 AA020000 		.4byte	.LASF82
 2491 0675 01       		.byte	0x1
 2492 0676 6002     		.2byte	0x260
 2493 0678 13       		.byte	0x13
 2494 0679 01       		.byte	0x1
 2495 067a 6E010000 		.4byte	0x16e
 2496 067e 36030000 		.4byte	.LFB138
 2497 0682 86030000 		.4byte	.LFE138
 2498 0686 95030000 		.4byte	.LLST24
 2499 068a 01       		.byte	0x1
 2500 068b C7060000 		.4byte	0x6c7
 2501 068f 16       		.uleb128 0x16
 2502 0690 1E030000 		.4byte	.LASF64
 2503 0694 01       		.byte	0x1
 2504 0695 6002     		.2byte	0x260
 2505 0697 37       		.byte	0x37
 2506 0698 BB030000 		.4byte	0x3bb
 2507 069c C1030000 		.4byte	.LLST25
 2508 06a0 B5030000 		.4byte	.LVUS25
 2509 06a4 18       		.uleb128 0x18
 2510 06a5 A8030000 		.4byte	.LASF74
 2511 06a9 01       		.byte	0x1
 2512 06aa 6202     		.2byte	0x262
 2513 06ac 15       		.byte	0x15
 2514 06ad 6E010000 		.4byte	0x16e
 2515 06b1 1C040000 		.4byte	.LLST26
 2516 06b5 14040000 		.4byte	.LVUS26
ARM GAS  C:\Users\hoodc\AppData\Local\Temp\cc4eu5v8.s 			page 72


 2517 06b9 1C       		.uleb128 0x1c
 2518 06ba 7E030000 		.4byte	.LVL61
 2519 06be 1B       		.uleb128 0x1b
 2520 06bf 01       		.byte	0x1
 2521 06c0 50       		.byte	0x50
 2522 06c1 03       		.byte	0x3
 2523 06c2 F3       		.byte	0xf3
 2524 06c3 01       		.uleb128 0x1
 2525 06c4 50       		.byte	0x50
 2526 06c5 00       		.byte	0
 2527 06c6 00       		.byte	0
 2528 06c7 15       		.uleb128 0x15
 2529 06c8 01       		.byte	0x1
 2530 06c9 24040000 		.4byte	.LASF83
 2531 06cd 01       		.byte	0x1
 2532 06ce 2202     		.2byte	0x222
 2533 06d0 13       		.byte	0x13
 2534 06d1 01       		.byte	0x1
 2535 06d2 6E010000 		.4byte	0x16e
 2536 06d6 EC020000 		.4byte	.LFB137
 2537 06da 36030000 		.4byte	.LFE137
 2538 06de 02       		.byte	0x2
 2539 06df 7D       		.byte	0x7d
 2540 06e0 00       		.sleb128 0
 2541 06e1 01       		.byte	0x1
 2542 06e2 0A070000 		.4byte	0x70a
 2543 06e6 16       		.uleb128 0x16
 2544 06e7 1E030000 		.4byte	.LASF64
 2545 06eb 01       		.byte	0x1
 2546 06ec 2202     		.2byte	0x222
 2547 06ee 34       		.byte	0x34
 2548 06ef BB030000 		.4byte	0x3bb
 2549 06f3 5B040000 		.4byte	.LLST23
 2550 06f7 53040000 		.4byte	.LVUS23
 2551 06fb 1F       		.uleb128 0x1f
 2552 06fc A8030000 		.4byte	.LASF74
 2553 0700 01       		.byte	0x1
 2554 0701 2402     		.2byte	0x224
 2555 0703 15       		.byte	0x15
 2556 0704 6E010000 		.4byte	0x16e
 2557 0708 00       		.byte	0
 2558 0709 00       		.byte	0
 2559 070a 1D       		.uleb128 0x1d
 2560 070b 01       		.byte	0x1
 2561 070c 23000000 		.4byte	.LASF84
 2562 0710 01       		.byte	0x1
 2563 0711 D901     		.2byte	0x1d9
 2564 0713 13       		.byte	0x13
 2565 0714 01       		.byte	0x1
 2566 0715 6E010000 		.4byte	0x16e
 2567 0719 48020000 		.4byte	.LFB136
 2568 071d EC020000 		.4byte	.LFE136
 2569 0721 95040000 		.4byte	.LLST14
 2570 0725 01       		.byte	0x1
 2571 0726 D5070000 		.4byte	0x7d5
 2572 072a 16       		.uleb128 0x16
 2573 072b 1E030000 		.4byte	.LASF64
ARM GAS  C:\Users\hoodc\AppData\Local\Temp\cc4eu5v8.s 			page 73


 2574 072f 01       		.byte	0x1
 2575 0730 D901     		.2byte	0x1d9
 2576 0732 37       		.byte	0x37
 2577 0733 BB030000 		.4byte	0x3bb
 2578 0737 D9040000 		.4byte	.LLST15
 2579 073b CD040000 		.4byte	.LVUS15
 2580 073f 17       		.uleb128 0x17
 2581 0740 02050000 		.4byte	.LASF65
 2582 0744 01       		.byte	0x1
 2583 0745 D901     		.2byte	0x1d9
 2584 0747 46       		.byte	0x46
 2585 0748 77000000 		.4byte	0x77
 2586 074c 01       		.byte	0x1
 2587 074d 51       		.byte	0x51
 2588 074e 16       		.uleb128 0x16
 2589 074f 37040000 		.4byte	.LASF66
 2590 0753 01       		.byte	0x1
 2591 0754 D901     		.2byte	0x1d9
 2592 0756 5B       		.byte	0x5b
 2593 0757 77000000 		.4byte	0x77
 2594 075b 3A050000 		.4byte	.LLST16
 2595 075f 2C050000 		.4byte	.LVUS16
 2596 0763 16       		.uleb128 0x16
 2597 0764 26050000 		.4byte	.LASF67
 2598 0768 01       		.byte	0x1
 2599 0769 D901     		.2byte	0x1d9
 2600 076b 70       		.byte	0x70
 2601 076c 77000000 		.4byte	0x77
 2602 0770 A8050000 		.4byte	.LLST17
 2603 0774 98050000 		.4byte	.LVUS17
 2604 0778 18       		.uleb128 0x18
 2605 0779 A8030000 		.4byte	.LASF74
 2606 077d 01       		.byte	0x1
 2607 077e DB01     		.2byte	0x1db
 2608 0780 15       		.byte	0x15
 2609 0781 6E010000 		.4byte	0x16e
 2610 0785 19060000 		.4byte	.LLST18
 2611 0789 13060000 		.4byte	.LVUS18
 2612 078d 20       		.uleb128 0x20
 2613 078e C1030000 		.4byte	0x3c1
 2614 0792 8A020000 		.4byte	.LBI10
 2615 0796 01       		.byte	.LVU227
 2616 0797 18000000 		.4byte	.Ldebug_ranges0+0x18
 2617 079b 01       		.byte	0x1
 2618 079c ED01     		.2byte	0x1ed
 2619 079e 05       		.byte	0x5
 2620 079f 21       		.uleb128 0x21
 2621 07a0 F7030000 		.4byte	0x3f7
 2622 07a4 4F060000 		.4byte	.LLST19
 2623 07a8 45060000 		.4byte	.LVUS19
 2624 07ac 21       		.uleb128 0x21
 2625 07ad EA030000 		.4byte	0x3ea
 2626 07b1 9A060000 		.4byte	.LLST20
 2627 07b5 96060000 		.4byte	.LVUS20
 2628 07b9 21       		.uleb128 0x21
 2629 07ba DD030000 		.4byte	0x3dd
 2630 07be BC060000 		.4byte	.LLST21
ARM GAS  C:\Users\hoodc\AppData\Local\Temp\cc4eu5v8.s 			page 74


 2631 07c2 B8060000 		.4byte	.LVUS21
 2632 07c6 21       		.uleb128 0x21
 2633 07c7 D0030000 		.4byte	0x3d0
 2634 07cb DE060000 		.4byte	.LLST22
 2635 07cf DA060000 		.4byte	.LVUS22
 2636 07d3 00       		.byte	0
 2637 07d4 00       		.byte	0
 2638 07d5 1D       		.uleb128 0x1d
 2639 07d6 01       		.byte	0x1
 2640 07d7 87010000 		.4byte	.LASF85
 2641 07db 01       		.byte	0x1
 2642 07dc AE01     		.2byte	0x1ae
 2643 07de 13       		.byte	0x13
 2644 07df 01       		.byte	0x1
 2645 07e0 6E010000 		.4byte	0x16e
 2646 07e4 C8010000 		.4byte	.LFB135
 2647 07e8 48020000 		.4byte	.LFE135
 2648 07ec FC060000 		.4byte	.LLST5
 2649 07f0 01       		.byte	0x1
 2650 07f1 A0080000 		.4byte	0x8a0
 2651 07f5 16       		.uleb128 0x16
 2652 07f6 1E030000 		.4byte	.LASF64
 2653 07fa 01       		.byte	0x1
 2654 07fb AE01     		.2byte	0x1ae
 2655 07fd 34       		.byte	0x34
 2656 07fe BB030000 		.4byte	0x3bb
 2657 0802 40070000 		.4byte	.LLST6
 2658 0806 34070000 		.4byte	.LVUS6
 2659 080a 17       		.uleb128 0x17
 2660 080b 02050000 		.4byte	.LASF65
 2661 080f 01       		.byte	0x1
 2662 0810 AE01     		.2byte	0x1ae
 2663 0812 43       		.byte	0x43
 2664 0813 77000000 		.4byte	0x77
 2665 0817 01       		.byte	0x1
 2666 0818 51       		.byte	0x51
 2667 0819 16       		.uleb128 0x16
 2668 081a 37040000 		.4byte	.LASF66
 2669 081e 01       		.byte	0x1
 2670 081f AE01     		.2byte	0x1ae
 2671 0821 58       		.byte	0x58
 2672 0822 77000000 		.4byte	0x77
 2673 0826 9D070000 		.4byte	.LLST7
 2674 082a 93070000 		.4byte	.LVUS7
 2675 082e 16       		.uleb128 0x16
 2676 082f 26050000 		.4byte	.LASF67
 2677 0833 01       		.byte	0x1
 2678 0834 AE01     		.2byte	0x1ae
 2679 0836 6D       		.byte	0x6d
 2680 0837 77000000 		.4byte	0x77
 2681 083b F2070000 		.4byte	.LLST8
 2682 083f E2070000 		.4byte	.LVUS8
 2683 0843 18       		.uleb128 0x18
 2684 0844 A8030000 		.4byte	.LASF74
 2685 0848 01       		.byte	0x1
 2686 0849 B001     		.2byte	0x1b0
 2687 084b 15       		.byte	0x15
ARM GAS  C:\Users\hoodc\AppData\Local\Temp\cc4eu5v8.s 			page 75


 2688 084c 6E010000 		.4byte	0x16e
 2689 0850 63080000 		.4byte	.LLST9
 2690 0854 5D080000 		.4byte	.LVUS9
 2691 0858 20       		.uleb128 0x20
 2692 0859 C1030000 		.4byte	0x3c1
 2693 085d 0A020000 		.4byte	.LBI4
 2694 0861 01       		.byte	.LVU172
 2695 0862 00000000 		.4byte	.Ldebug_ranges0+0
 2696 0866 01       		.byte	0x1
 2697 0867 C201     		.2byte	0x1c2
 2698 0869 05       		.byte	0x5
 2699 086a 21       		.uleb128 0x21
 2700 086b F7030000 		.4byte	0x3f7
 2701 086f 99080000 		.4byte	.LLST10
 2702 0873 8F080000 		.4byte	.LVUS10
 2703 0877 21       		.uleb128 0x21
 2704 0878 EA030000 		.4byte	0x3ea
 2705 087c E4080000 		.4byte	.LLST11
 2706 0880 E0080000 		.4byte	.LVUS11
 2707 0884 21       		.uleb128 0x21
 2708 0885 DD030000 		.4byte	0x3dd
 2709 0889 06090000 		.4byte	.LLST12
 2710 088d 02090000 		.4byte	.LVUS12
 2711 0891 21       		.uleb128 0x21
 2712 0892 D0030000 		.4byte	0x3d0
 2713 0896 28090000 		.4byte	.LLST13
 2714 089a 24090000 		.4byte	.LVUS13
 2715 089e 00       		.byte	0
 2716 089f 00       		.byte	0
 2717 08a0 1D       		.uleb128 0x1d
 2718 08a1 01       		.byte	0x1
 2719 08a2 EA020000 		.4byte	.LASF86
 2720 08a6 01       		.byte	0x1
 2721 08a7 2601     		.2byte	0x126
 2722 08a9 13       		.byte	0x13
 2723 08aa 01       		.byte	0x1
 2724 08ab 6E010000 		.4byte	0x16e
 2725 08af 04010000 		.4byte	.LFB134
 2726 08b3 C8010000 		.4byte	.LFE134
 2727 08b7 46090000 		.4byte	.LLST3
 2728 08bb 01       		.byte	0x1
 2729 08bc D6080000 		.4byte	0x8d6
 2730 08c0 16       		.uleb128 0x16
 2731 08c1 1E030000 		.4byte	.LASF64
 2732 08c5 01       		.byte	0x1
 2733 08c6 2601     		.2byte	0x126
 2734 08c8 35       		.byte	0x35
 2735 08c9 BB030000 		.4byte	0x3bb
 2736 08cd 8A090000 		.4byte	.LLST4
 2737 08d1 7E090000 		.4byte	.LVUS4
 2738 08d5 00       		.byte	0
 2739 08d6 22       		.uleb128 0x22
 2740 08d7 01       		.byte	0x1
 2741 08d8 AD000000 		.4byte	.LASF87
 2742 08dc 01       		.byte	0x1
 2743 08dd 99       		.byte	0x99
 2744 08de 13       		.byte	0x13
ARM GAS  C:\Users\hoodc\AppData\Local\Temp\cc4eu5v8.s 			page 76


 2745 08df 01       		.byte	0x1
 2746 08e0 6E010000 		.4byte	0x16e
 2747 08e4 00000000 		.4byte	.LFB133
 2748 08e8 04010000 		.4byte	.LFE133
 2749 08ec D4090000 		.4byte	.LLST0
 2750 08f0 01       		.byte	0x1
 2751 08f1 1E090000 		.4byte	0x91e
 2752 08f5 23       		.uleb128 0x23
 2753 08f6 1E030000 		.4byte	.LASF64
 2754 08fa 01       		.byte	0x1
 2755 08fb 99       		.byte	0x99
 2756 08fc 33       		.byte	0x33
 2757 08fd BB030000 		.4byte	0x3bb
 2758 0901 140A0000 		.4byte	.LLST1
 2759 0905 0C0A0000 		.4byte	.LVUS1
 2760 0909 24       		.uleb128 0x24
 2761 090a 746D7000 		.ascii	"tmp\000"
 2762 090e 01       		.byte	0x1
 2763 090f 9B       		.byte	0x9b
 2764 0910 0C       		.byte	0xc
 2765 0911 77000000 		.4byte	0x77
 2766 0915 520A0000 		.4byte	.LLST2
 2767 0919 480A0000 		.4byte	.LVUS2
 2768 091d 00       		.byte	0
 2769 091e 25       		.uleb128 0x25
 2770 091f 01       		.byte	0x1
 2771 0920 01       		.byte	0x1
 2772 0921 0C010000 		.4byte	.LASF94
 2773 0925 0C010000 		.4byte	.LASF94
 2774 0929 07       		.byte	0x7
 2775 092a 8102     		.2byte	0x281
 2776 092c 14       		.byte	0x14
 2777 092d 00       		.byte	0
 2778              		.section	.debug_abbrev,"",%progbits
 2779              	.Ldebug_abbrev0:
 2780 0000 01       		.uleb128 0x1
 2781 0001 11       		.uleb128 0x11
 2782 0002 01       		.byte	0x1
 2783 0003 25       		.uleb128 0x25
 2784 0004 0E       		.uleb128 0xe
 2785 0005 13       		.uleb128 0x13
 2786 0006 0B       		.uleb128 0xb
 2787 0007 03       		.uleb128 0x3
 2788 0008 0E       		.uleb128 0xe
 2789 0009 1B       		.uleb128 0x1b
 2790 000a 0E       		.uleb128 0xe
 2791 000b 11       		.uleb128 0x11
 2792 000c 01       		.uleb128 0x1
 2793 000d 12       		.uleb128 0x12
 2794 000e 01       		.uleb128 0x1
 2795 000f 10       		.uleb128 0x10
 2796 0010 06       		.uleb128 0x6
 2797 0011 00       		.byte	0
 2798 0012 00       		.byte	0
 2799 0013 02       		.uleb128 0x2
 2800 0014 24       		.uleb128 0x24
 2801 0015 00       		.byte	0
ARM GAS  C:\Users\hoodc\AppData\Local\Temp\cc4eu5v8.s 			page 77


 2802 0016 0B       		.uleb128 0xb
 2803 0017 0B       		.uleb128 0xb
 2804 0018 3E       		.uleb128 0x3e
 2805 0019 0B       		.uleb128 0xb
 2806 001a 03       		.uleb128 0x3
 2807 001b 0E       		.uleb128 0xe
 2808 001c 00       		.byte	0
 2809 001d 00       		.byte	0
 2810 001e 03       		.uleb128 0x3
 2811 001f 16       		.uleb128 0x16
 2812 0020 00       		.byte	0
 2813 0021 03       		.uleb128 0x3
 2814 0022 0E       		.uleb128 0xe
 2815 0023 3A       		.uleb128 0x3a
 2816 0024 0B       		.uleb128 0xb
 2817 0025 3B       		.uleb128 0x3b
 2818 0026 0B       		.uleb128 0xb
 2819 0027 39       		.uleb128 0x39
 2820 0028 0B       		.uleb128 0xb
 2821 0029 49       		.uleb128 0x49
 2822 002a 13       		.uleb128 0x13
 2823 002b 00       		.byte	0
 2824 002c 00       		.byte	0
 2825 002d 04       		.uleb128 0x4
 2826 002e 24       		.uleb128 0x24
 2827 002f 00       		.byte	0
 2828 0030 0B       		.uleb128 0xb
 2829 0031 0B       		.uleb128 0xb
 2830 0032 3E       		.uleb128 0x3e
 2831 0033 0B       		.uleb128 0xb
 2832 0034 03       		.uleb128 0x3
 2833 0035 08       		.uleb128 0x8
 2834 0036 00       		.byte	0
 2835 0037 00       		.byte	0
 2836 0038 05       		.uleb128 0x5
 2837 0039 35       		.uleb128 0x35
 2838 003a 00       		.byte	0
 2839 003b 49       		.uleb128 0x49
 2840 003c 13       		.uleb128 0x13
 2841 003d 00       		.byte	0
 2842 003e 00       		.byte	0
 2843 003f 06       		.uleb128 0x6
 2844 0040 13       		.uleb128 0x13
 2845 0041 01       		.byte	0x1
 2846 0042 0B       		.uleb128 0xb
 2847 0043 0B       		.uleb128 0xb
 2848 0044 3A       		.uleb128 0x3a
 2849 0045 0B       		.uleb128 0xb
 2850 0046 3B       		.uleb128 0x3b
 2851 0047 05       		.uleb128 0x5
 2852 0048 39       		.uleb128 0x39
 2853 0049 0B       		.uleb128 0xb
 2854 004a 01       		.uleb128 0x1
 2855 004b 13       		.uleb128 0x13
 2856 004c 00       		.byte	0
 2857 004d 00       		.byte	0
 2858 004e 07       		.uleb128 0x7
ARM GAS  C:\Users\hoodc\AppData\Local\Temp\cc4eu5v8.s 			page 78


 2859 004f 0D       		.uleb128 0xd
 2860 0050 00       		.byte	0
 2861 0051 03       		.uleb128 0x3
 2862 0052 08       		.uleb128 0x8
 2863 0053 3A       		.uleb128 0x3a
 2864 0054 0B       		.uleb128 0xb
 2865 0055 3B       		.uleb128 0x3b
 2866 0056 05       		.uleb128 0x5
 2867 0057 39       		.uleb128 0x39
 2868 0058 0B       		.uleb128 0xb
 2869 0059 49       		.uleb128 0x49
 2870 005a 13       		.uleb128 0x13
 2871 005b 38       		.uleb128 0x38
 2872 005c 0A       		.uleb128 0xa
 2873 005d 00       		.byte	0
 2874 005e 00       		.byte	0
 2875 005f 08       		.uleb128 0x8
 2876 0060 0D       		.uleb128 0xd
 2877 0061 00       		.byte	0
 2878 0062 03       		.uleb128 0x3
 2879 0063 0E       		.uleb128 0xe
 2880 0064 3A       		.uleb128 0x3a
 2881 0065 0B       		.uleb128 0xb
 2882 0066 3B       		.uleb128 0x3b
 2883 0067 05       		.uleb128 0x5
 2884 0068 39       		.uleb128 0x39
 2885 0069 0B       		.uleb128 0xb
 2886 006a 49       		.uleb128 0x49
 2887 006b 13       		.uleb128 0x13
 2888 006c 38       		.uleb128 0x38
 2889 006d 0A       		.uleb128 0xa
 2890 006e 00       		.byte	0
 2891 006f 00       		.byte	0
 2892 0070 09       		.uleb128 0x9
 2893 0071 16       		.uleb128 0x16
 2894 0072 00       		.byte	0
 2895 0073 03       		.uleb128 0x3
 2896 0074 0E       		.uleb128 0xe
 2897 0075 3A       		.uleb128 0x3a
 2898 0076 0B       		.uleb128 0xb
 2899 0077 3B       		.uleb128 0x3b
 2900 0078 05       		.uleb128 0x5
 2901 0079 39       		.uleb128 0x39
 2902 007a 0B       		.uleb128 0xb
 2903 007b 49       		.uleb128 0x49
 2904 007c 13       		.uleb128 0x13
 2905 007d 00       		.byte	0
 2906 007e 00       		.byte	0
 2907 007f 0A       		.uleb128 0xa
 2908 0080 04       		.uleb128 0x4
 2909 0081 01       		.byte	0x1
 2910 0082 3E       		.uleb128 0x3e
 2911 0083 0B       		.uleb128 0xb
 2912 0084 0B       		.uleb128 0xb
 2913 0085 0B       		.uleb128 0xb
 2914 0086 49       		.uleb128 0x49
 2915 0087 13       		.uleb128 0x13
ARM GAS  C:\Users\hoodc\AppData\Local\Temp\cc4eu5v8.s 			page 79


 2916 0088 3A       		.uleb128 0x3a
 2917 0089 0B       		.uleb128 0xb
 2918 008a 3B       		.uleb128 0x3b
 2919 008b 0B       		.uleb128 0xb
 2920 008c 39       		.uleb128 0x39
 2921 008d 0B       		.uleb128 0xb
 2922 008e 01       		.uleb128 0x1
 2923 008f 13       		.uleb128 0x13
 2924 0090 00       		.byte	0
 2925 0091 00       		.byte	0
 2926 0092 0B       		.uleb128 0xb
 2927 0093 28       		.uleb128 0x28
 2928 0094 00       		.byte	0
 2929 0095 03       		.uleb128 0x3
 2930 0096 0E       		.uleb128 0xe
 2931 0097 1C       		.uleb128 0x1c
 2932 0098 0B       		.uleb128 0xb
 2933 0099 00       		.byte	0
 2934 009a 00       		.byte	0
 2935 009b 0C       		.uleb128 0xc
 2936 009c 13       		.uleb128 0x13
 2937 009d 01       		.byte	0x1
 2938 009e 0B       		.uleb128 0xb
 2939 009f 0B       		.uleb128 0xb
 2940 00a0 3A       		.uleb128 0x3a
 2941 00a1 0B       		.uleb128 0xb
 2942 00a2 3B       		.uleb128 0x3b
 2943 00a3 0B       		.uleb128 0xb
 2944 00a4 39       		.uleb128 0x39
 2945 00a5 0B       		.uleb128 0xb
 2946 00a6 01       		.uleb128 0x1
 2947 00a7 13       		.uleb128 0x13
 2948 00a8 00       		.byte	0
 2949 00a9 00       		.byte	0
 2950 00aa 0D       		.uleb128 0xd
 2951 00ab 0D       		.uleb128 0xd
 2952 00ac 00       		.byte	0
 2953 00ad 03       		.uleb128 0x3
 2954 00ae 0E       		.uleb128 0xe
 2955 00af 3A       		.uleb128 0x3a
 2956 00b0 0B       		.uleb128 0xb
 2957 00b1 3B       		.uleb128 0x3b
 2958 00b2 0B       		.uleb128 0xb
 2959 00b3 39       		.uleb128 0x39
 2960 00b4 0B       		.uleb128 0xb
 2961 00b5 49       		.uleb128 0x49
 2962 00b6 13       		.uleb128 0x13
 2963 00b7 38       		.uleb128 0x38
 2964 00b8 0A       		.uleb128 0xa
 2965 00b9 00       		.byte	0
 2966 00ba 00       		.byte	0
 2967 00bb 0E       		.uleb128 0xe
 2968 00bc 13       		.uleb128 0x13
 2969 00bd 01       		.byte	0x1
 2970 00be 03       		.uleb128 0x3
 2971 00bf 0E       		.uleb128 0xe
 2972 00c0 0B       		.uleb128 0xb
ARM GAS  C:\Users\hoodc\AppData\Local\Temp\cc4eu5v8.s 			page 80


 2973 00c1 0B       		.uleb128 0xb
 2974 00c2 3A       		.uleb128 0x3a
 2975 00c3 0B       		.uleb128 0xb
 2976 00c4 3B       		.uleb128 0x3b
 2977 00c5 0B       		.uleb128 0xb
 2978 00c6 39       		.uleb128 0x39
 2979 00c7 0B       		.uleb128 0xb
 2980 00c8 01       		.uleb128 0x1
 2981 00c9 13       		.uleb128 0x13
 2982 00ca 00       		.byte	0
 2983 00cb 00       		.byte	0
 2984 00cc 0F       		.uleb128 0xf
 2985 00cd 0F       		.uleb128 0xf
 2986 00ce 00       		.byte	0
 2987 00cf 0B       		.uleb128 0xb
 2988 00d0 0B       		.uleb128 0xb
 2989 00d1 49       		.uleb128 0x49
 2990 00d2 13       		.uleb128 0x13
 2991 00d3 00       		.byte	0
 2992 00d4 00       		.byte	0
 2993 00d5 10       		.uleb128 0x10
 2994 00d6 0F       		.uleb128 0xf
 2995 00d7 00       		.byte	0
 2996 00d8 0B       		.uleb128 0xb
 2997 00d9 0B       		.uleb128 0xb
 2998 00da 00       		.byte	0
 2999 00db 00       		.byte	0
 3000 00dc 11       		.uleb128 0x11
 3001 00dd 15       		.uleb128 0x15
 3002 00de 01       		.byte	0x1
 3003 00df 27       		.uleb128 0x27
 3004 00e0 0C       		.uleb128 0xc
 3005 00e1 01       		.uleb128 0x1
 3006 00e2 13       		.uleb128 0x13
 3007 00e3 00       		.byte	0
 3008 00e4 00       		.byte	0
 3009 00e5 12       		.uleb128 0x12
 3010 00e6 05       		.uleb128 0x5
 3011 00e7 00       		.byte	0
 3012 00e8 49       		.uleb128 0x49
 3013 00e9 13       		.uleb128 0x13
 3014 00ea 00       		.byte	0
 3015 00eb 00       		.byte	0
 3016 00ec 13       		.uleb128 0x13
 3017 00ed 2E       		.uleb128 0x2e
 3018 00ee 01       		.byte	0x1
 3019 00ef 03       		.uleb128 0x3
 3020 00f0 0E       		.uleb128 0xe
 3021 00f1 3A       		.uleb128 0x3a
 3022 00f2 0B       		.uleb128 0xb
 3023 00f3 3B       		.uleb128 0x3b
 3024 00f4 05       		.uleb128 0x5
 3025 00f5 39       		.uleb128 0x39
 3026 00f6 0B       		.uleb128 0xb
 3027 00f7 27       		.uleb128 0x27
 3028 00f8 0C       		.uleb128 0xc
 3029 00f9 20       		.uleb128 0x20
ARM GAS  C:\Users\hoodc\AppData\Local\Temp\cc4eu5v8.s 			page 81


 3030 00fa 0B       		.uleb128 0xb
 3031 00fb 01       		.uleb128 0x1
 3032 00fc 13       		.uleb128 0x13
 3033 00fd 00       		.byte	0
 3034 00fe 00       		.byte	0
 3035 00ff 14       		.uleb128 0x14
 3036 0100 05       		.uleb128 0x5
 3037 0101 00       		.byte	0
 3038 0102 03       		.uleb128 0x3
 3039 0103 0E       		.uleb128 0xe
 3040 0104 3A       		.uleb128 0x3a
 3041 0105 0B       		.uleb128 0xb
 3042 0106 3B       		.uleb128 0x3b
 3043 0107 05       		.uleb128 0x5
 3044 0108 39       		.uleb128 0x39
 3045 0109 0B       		.uleb128 0xb
 3046 010a 49       		.uleb128 0x49
 3047 010b 13       		.uleb128 0x13
 3048 010c 00       		.byte	0
 3049 010d 00       		.byte	0
 3050 010e 15       		.uleb128 0x15
 3051 010f 2E       		.uleb128 0x2e
 3052 0110 01       		.byte	0x1
 3053 0111 3F       		.uleb128 0x3f
 3054 0112 0C       		.uleb128 0xc
 3055 0113 03       		.uleb128 0x3
 3056 0114 0E       		.uleb128 0xe
 3057 0115 3A       		.uleb128 0x3a
 3058 0116 0B       		.uleb128 0xb
 3059 0117 3B       		.uleb128 0x3b
 3060 0118 05       		.uleb128 0x5
 3061 0119 39       		.uleb128 0x39
 3062 011a 0B       		.uleb128 0xb
 3063 011b 27       		.uleb128 0x27
 3064 011c 0C       		.uleb128 0xc
 3065 011d 49       		.uleb128 0x49
 3066 011e 13       		.uleb128 0x13
 3067 011f 11       		.uleb128 0x11
 3068 0120 01       		.uleb128 0x1
 3069 0121 12       		.uleb128 0x12
 3070 0122 01       		.uleb128 0x1
 3071 0123 40       		.uleb128 0x40
 3072 0124 0A       		.uleb128 0xa
 3073 0125 9742     		.uleb128 0x2117
 3074 0127 0C       		.uleb128 0xc
 3075 0128 01       		.uleb128 0x1
 3076 0129 13       		.uleb128 0x13
 3077 012a 00       		.byte	0
 3078 012b 00       		.byte	0
 3079 012c 16       		.uleb128 0x16
 3080 012d 05       		.uleb128 0x5
 3081 012e 00       		.byte	0
 3082 012f 03       		.uleb128 0x3
 3083 0130 0E       		.uleb128 0xe
 3084 0131 3A       		.uleb128 0x3a
 3085 0132 0B       		.uleb128 0xb
 3086 0133 3B       		.uleb128 0x3b
ARM GAS  C:\Users\hoodc\AppData\Local\Temp\cc4eu5v8.s 			page 82


 3087 0134 05       		.uleb128 0x5
 3088 0135 39       		.uleb128 0x39
 3089 0136 0B       		.uleb128 0xb
 3090 0137 49       		.uleb128 0x49
 3091 0138 13       		.uleb128 0x13
 3092 0139 02       		.uleb128 0x2
 3093 013a 06       		.uleb128 0x6
 3094 013b B742     		.uleb128 0x2137
 3095 013d 06       		.uleb128 0x6
 3096 013e 00       		.byte	0
 3097 013f 00       		.byte	0
 3098 0140 17       		.uleb128 0x17
 3099 0141 05       		.uleb128 0x5
 3100 0142 00       		.byte	0
 3101 0143 03       		.uleb128 0x3
 3102 0144 0E       		.uleb128 0xe
 3103 0145 3A       		.uleb128 0x3a
 3104 0146 0B       		.uleb128 0xb
 3105 0147 3B       		.uleb128 0x3b
 3106 0148 05       		.uleb128 0x5
 3107 0149 39       		.uleb128 0x39
 3108 014a 0B       		.uleb128 0xb
 3109 014b 49       		.uleb128 0x49
 3110 014c 13       		.uleb128 0x13
 3111 014d 02       		.uleb128 0x2
 3112 014e 0A       		.uleb128 0xa
 3113 014f 00       		.byte	0
 3114 0150 00       		.byte	0
 3115 0151 18       		.uleb128 0x18
 3116 0152 34       		.uleb128 0x34
 3117 0153 00       		.byte	0
 3118 0154 03       		.uleb128 0x3
 3119 0155 0E       		.uleb128 0xe
 3120 0156 3A       		.uleb128 0x3a
 3121 0157 0B       		.uleb128 0xb
 3122 0158 3B       		.uleb128 0x3b
 3123 0159 05       		.uleb128 0x5
 3124 015a 39       		.uleb128 0x39
 3125 015b 0B       		.uleb128 0xb
 3126 015c 49       		.uleb128 0x49
 3127 015d 13       		.uleb128 0x13
 3128 015e 02       		.uleb128 0x2
 3129 015f 06       		.uleb128 0x6
 3130 0160 B742     		.uleb128 0x2137
 3131 0162 06       		.uleb128 0x6
 3132 0163 00       		.byte	0
 3133 0164 00       		.byte	0
 3134 0165 19       		.uleb128 0x19
 3135 0166 2E       		.uleb128 0x2e
 3136 0167 01       		.byte	0x1
 3137 0168 3F       		.uleb128 0x3f
 3138 0169 0C       		.uleb128 0xc
 3139 016a 03       		.uleb128 0x3
 3140 016b 0E       		.uleb128 0xe
 3141 016c 3A       		.uleb128 0x3a
 3142 016d 0B       		.uleb128 0xb
 3143 016e 3B       		.uleb128 0x3b
ARM GAS  C:\Users\hoodc\AppData\Local\Temp\cc4eu5v8.s 			page 83


 3144 016f 05       		.uleb128 0x5
 3145 0170 39       		.uleb128 0x39
 3146 0171 0B       		.uleb128 0xb
 3147 0172 27       		.uleb128 0x27
 3148 0173 0C       		.uleb128 0xc
 3149 0174 11       		.uleb128 0x11
 3150 0175 01       		.uleb128 0x1
 3151 0176 12       		.uleb128 0x12
 3152 0177 01       		.uleb128 0x1
 3153 0178 40       		.uleb128 0x40
 3154 0179 06       		.uleb128 0x6
 3155 017a 9742     		.uleb128 0x2117
 3156 017c 0C       		.uleb128 0xc
 3157 017d 01       		.uleb128 0x1
 3158 017e 13       		.uleb128 0x13
 3159 017f 00       		.byte	0
 3160 0180 00       		.byte	0
 3161 0181 1A       		.uleb128 0x1a
 3162 0182 898201   		.uleb128 0x4109
 3163 0185 01       		.byte	0x1
 3164 0186 11       		.uleb128 0x11
 3165 0187 01       		.uleb128 0x1
 3166 0188 01       		.uleb128 0x1
 3167 0189 13       		.uleb128 0x13
 3168 018a 00       		.byte	0
 3169 018b 00       		.byte	0
 3170 018c 1B       		.uleb128 0x1b
 3171 018d 8A8201   		.uleb128 0x410a
 3172 0190 00       		.byte	0
 3173 0191 02       		.uleb128 0x2
 3174 0192 0A       		.uleb128 0xa
 3175 0193 9142     		.uleb128 0x2111
 3176 0195 0A       		.uleb128 0xa
 3177 0196 00       		.byte	0
 3178 0197 00       		.byte	0
 3179 0198 1C       		.uleb128 0x1c
 3180 0199 898201   		.uleb128 0x4109
 3181 019c 01       		.byte	0x1
 3182 019d 11       		.uleb128 0x11
 3183 019e 01       		.uleb128 0x1
 3184 019f 00       		.byte	0
 3185 01a0 00       		.byte	0
 3186 01a1 1D       		.uleb128 0x1d
 3187 01a2 2E       		.uleb128 0x2e
 3188 01a3 01       		.byte	0x1
 3189 01a4 3F       		.uleb128 0x3f
 3190 01a5 0C       		.uleb128 0xc
 3191 01a6 03       		.uleb128 0x3
 3192 01a7 0E       		.uleb128 0xe
 3193 01a8 3A       		.uleb128 0x3a
 3194 01a9 0B       		.uleb128 0xb
 3195 01aa 3B       		.uleb128 0x3b
 3196 01ab 05       		.uleb128 0x5
 3197 01ac 39       		.uleb128 0x39
 3198 01ad 0B       		.uleb128 0xb
 3199 01ae 27       		.uleb128 0x27
 3200 01af 0C       		.uleb128 0xc
ARM GAS  C:\Users\hoodc\AppData\Local\Temp\cc4eu5v8.s 			page 84


 3201 01b0 49       		.uleb128 0x49
 3202 01b1 13       		.uleb128 0x13
 3203 01b2 11       		.uleb128 0x11
 3204 01b3 01       		.uleb128 0x1
 3205 01b4 12       		.uleb128 0x12
 3206 01b5 01       		.uleb128 0x1
 3207 01b6 40       		.uleb128 0x40
 3208 01b7 06       		.uleb128 0x6
 3209 01b8 9742     		.uleb128 0x2117
 3210 01ba 0C       		.uleb128 0xc
 3211 01bb 01       		.uleb128 0x1
 3212 01bc 13       		.uleb128 0x13
 3213 01bd 00       		.byte	0
 3214 01be 00       		.byte	0
 3215 01bf 1E       		.uleb128 0x1e
 3216 01c0 898201   		.uleb128 0x4109
 3217 01c3 00       		.byte	0
 3218 01c4 11       		.uleb128 0x11
 3219 01c5 01       		.uleb128 0x1
 3220 01c6 31       		.uleb128 0x31
 3221 01c7 13       		.uleb128 0x13
 3222 01c8 00       		.byte	0
 3223 01c9 00       		.byte	0
 3224 01ca 1F       		.uleb128 0x1f
 3225 01cb 34       		.uleb128 0x34
 3226 01cc 00       		.byte	0
 3227 01cd 03       		.uleb128 0x3
 3228 01ce 0E       		.uleb128 0xe
 3229 01cf 3A       		.uleb128 0x3a
 3230 01d0 0B       		.uleb128 0xb
 3231 01d1 3B       		.uleb128 0x3b
 3232 01d2 05       		.uleb128 0x5
 3233 01d3 39       		.uleb128 0x39
 3234 01d4 0B       		.uleb128 0xb
 3235 01d5 49       		.uleb128 0x49
 3236 01d6 13       		.uleb128 0x13
 3237 01d7 1C       		.uleb128 0x1c
 3238 01d8 0B       		.uleb128 0xb
 3239 01d9 00       		.byte	0
 3240 01da 00       		.byte	0
 3241 01db 20       		.uleb128 0x20
 3242 01dc 1D       		.uleb128 0x1d
 3243 01dd 01       		.byte	0x1
 3244 01de 31       		.uleb128 0x31
 3245 01df 13       		.uleb128 0x13
 3246 01e0 52       		.uleb128 0x52
 3247 01e1 01       		.uleb128 0x1
 3248 01e2 B842     		.uleb128 0x2138
 3249 01e4 0B       		.uleb128 0xb
 3250 01e5 55       		.uleb128 0x55
 3251 01e6 06       		.uleb128 0x6
 3252 01e7 58       		.uleb128 0x58
 3253 01e8 0B       		.uleb128 0xb
 3254 01e9 59       		.uleb128 0x59
 3255 01ea 05       		.uleb128 0x5
 3256 01eb 57       		.uleb128 0x57
 3257 01ec 0B       		.uleb128 0xb
ARM GAS  C:\Users\hoodc\AppData\Local\Temp\cc4eu5v8.s 			page 85


 3258 01ed 00       		.byte	0
 3259 01ee 00       		.byte	0
 3260 01ef 21       		.uleb128 0x21
 3261 01f0 05       		.uleb128 0x5
 3262 01f1 00       		.byte	0
 3263 01f2 31       		.uleb128 0x31
 3264 01f3 13       		.uleb128 0x13
 3265 01f4 02       		.uleb128 0x2
 3266 01f5 06       		.uleb128 0x6
 3267 01f6 B742     		.uleb128 0x2137
 3268 01f8 06       		.uleb128 0x6
 3269 01f9 00       		.byte	0
 3270 01fa 00       		.byte	0
 3271 01fb 22       		.uleb128 0x22
 3272 01fc 2E       		.uleb128 0x2e
 3273 01fd 01       		.byte	0x1
 3274 01fe 3F       		.uleb128 0x3f
 3275 01ff 0C       		.uleb128 0xc
 3276 0200 03       		.uleb128 0x3
 3277 0201 0E       		.uleb128 0xe
 3278 0202 3A       		.uleb128 0x3a
 3279 0203 0B       		.uleb128 0xb
 3280 0204 3B       		.uleb128 0x3b
 3281 0205 0B       		.uleb128 0xb
 3282 0206 39       		.uleb128 0x39
 3283 0207 0B       		.uleb128 0xb
 3284 0208 27       		.uleb128 0x27
 3285 0209 0C       		.uleb128 0xc
 3286 020a 49       		.uleb128 0x49
 3287 020b 13       		.uleb128 0x13
 3288 020c 11       		.uleb128 0x11
 3289 020d 01       		.uleb128 0x1
 3290 020e 12       		.uleb128 0x12
 3291 020f 01       		.uleb128 0x1
 3292 0210 40       		.uleb128 0x40
 3293 0211 06       		.uleb128 0x6
 3294 0212 9742     		.uleb128 0x2117
 3295 0214 0C       		.uleb128 0xc
 3296 0215 01       		.uleb128 0x1
 3297 0216 13       		.uleb128 0x13
 3298 0217 00       		.byte	0
 3299 0218 00       		.byte	0
 3300 0219 23       		.uleb128 0x23
 3301 021a 05       		.uleb128 0x5
 3302 021b 00       		.byte	0
 3303 021c 03       		.uleb128 0x3
 3304 021d 0E       		.uleb128 0xe
 3305 021e 3A       		.uleb128 0x3a
 3306 021f 0B       		.uleb128 0xb
 3307 0220 3B       		.uleb128 0x3b
 3308 0221 0B       		.uleb128 0xb
 3309 0222 39       		.uleb128 0x39
 3310 0223 0B       		.uleb128 0xb
 3311 0224 49       		.uleb128 0x49
 3312 0225 13       		.uleb128 0x13
 3313 0226 02       		.uleb128 0x2
 3314 0227 06       		.uleb128 0x6
ARM GAS  C:\Users\hoodc\AppData\Local\Temp\cc4eu5v8.s 			page 86


 3315 0228 B742     		.uleb128 0x2137
 3316 022a 06       		.uleb128 0x6
 3317 022b 00       		.byte	0
 3318 022c 00       		.byte	0
 3319 022d 24       		.uleb128 0x24
 3320 022e 34       		.uleb128 0x34
 3321 022f 00       		.byte	0
 3322 0230 03       		.uleb128 0x3
 3323 0231 08       		.uleb128 0x8
 3324 0232 3A       		.uleb128 0x3a
 3325 0233 0B       		.uleb128 0xb
 3326 0234 3B       		.uleb128 0x3b
 3327 0235 0B       		.uleb128 0xb
 3328 0236 39       		.uleb128 0x39
 3329 0237 0B       		.uleb128 0xb
 3330 0238 49       		.uleb128 0x49
 3331 0239 13       		.uleb128 0x13
 3332 023a 02       		.uleb128 0x2
 3333 023b 06       		.uleb128 0x6
 3334 023c B742     		.uleb128 0x2137
 3335 023e 06       		.uleb128 0x6
 3336 023f 00       		.byte	0
 3337 0240 00       		.byte	0
 3338 0241 25       		.uleb128 0x25
 3339 0242 2E       		.uleb128 0x2e
 3340 0243 00       		.byte	0
 3341 0244 3F       		.uleb128 0x3f
 3342 0245 0C       		.uleb128 0xc
 3343 0246 3C       		.uleb128 0x3c
 3344 0247 0C       		.uleb128 0xc
 3345 0248 8740     		.uleb128 0x2007
 3346 024a 0E       		.uleb128 0xe
 3347 024b 03       		.uleb128 0x3
 3348 024c 0E       		.uleb128 0xe
 3349 024d 3A       		.uleb128 0x3a
 3350 024e 0B       		.uleb128 0xb
 3351 024f 3B       		.uleb128 0x3b
 3352 0250 05       		.uleb128 0x5
 3353 0251 39       		.uleb128 0x39
 3354 0252 0B       		.uleb128 0xb
 3355 0253 00       		.byte	0
 3356 0254 00       		.byte	0
 3357 0255 00       		.byte	0
 3358              		.section	.debug_loc,"",%progbits
 3359              	.Ldebug_loc0:
 3360              	.LVUS43:
 3361 0000 00       		.uleb128 0
 3362 0001 00       		.uleb128 .LVU579
 3363 0002 00       		.uleb128 .LVU579
 3364 0003 00       		.uleb128 0
 3365              	.LLST43:
 3366 0004 D2050000 		.4byte	.LVL103-.Ltext0
 3367 0008 D4050000 		.4byte	.LVL104-.Ltext0
 3368 000c 0100     		.2byte	0x1
 3369 000e 50       		.byte	0x50
 3370 000f D4050000 		.4byte	.LVL104-.Ltext0
 3371 0013 D6050000 		.4byte	.LFE144-.Ltext0
ARM GAS  C:\Users\hoodc\AppData\Local\Temp\cc4eu5v8.s 			page 87


 3372 0017 0400     		.2byte	0x4
 3373 0019 F3       		.byte	0xf3
 3374 001a 01       		.uleb128 0x1
 3375 001b 50       		.byte	0x50
 3376 001c 9F       		.byte	0x9f
 3377 001d 00000000 		.4byte	0
 3378 0021 00000000 		.4byte	0
 3379              	.LVUS42:
 3380 0025 00       		.uleb128 0
 3381 0026 00       		.uleb128 .LVU575
 3382 0027 00       		.uleb128 .LVU575
 3383 0028 00       		.uleb128 0
 3384              	.LLST42:
 3385 0029 CC050000 		.4byte	.LVL101-.Ltext0
 3386 002d D0050000 		.4byte	.LVL102-.Ltext0
 3387 0031 0100     		.2byte	0x1
 3388 0033 50       		.byte	0x50
 3389 0034 D0050000 		.4byte	.LVL102-.Ltext0
 3390 0038 D2050000 		.4byte	.LFE143-.Ltext0
 3391 003c 0400     		.2byte	0x4
 3392 003e F3       		.byte	0xf3
 3393 003f 01       		.uleb128 0x1
 3394 0040 50       		.byte	0x50
 3395 0041 9F       		.byte	0x9f
 3396 0042 00000000 		.4byte	0
 3397 0046 00000000 		.4byte	0
 3398              	.LVUS40:
 3399 004a 00       		.uleb128 0
 3400 004b 00       		.uleb128 .LVU538
 3401 004c 00       		.uleb128 .LVU538
 3402 004d 00       		.uleb128 .LVU570
 3403 004e 00       		.uleb128 .LVU570
 3404 004f 00       		.uleb128 .LVU571
 3405 0050 00       		.uleb128 .LVU571
 3406 0051 00       		.uleb128 0
 3407              	.LLST40:
 3408 0052 70050000 		.4byte	.LVL94-.Ltext0
 3409 0056 84050000 		.4byte	.LVL96-.Ltext0
 3410 005a 0100     		.2byte	0x1
 3411 005c 50       		.byte	0x50
 3412 005d 84050000 		.4byte	.LVL96-.Ltext0
 3413 0061 C8050000 		.4byte	.LVL99-.Ltext0
 3414 0065 0100     		.2byte	0x1
 3415 0067 53       		.byte	0x53
 3416 0068 C8050000 		.4byte	.LVL99-.Ltext0
 3417 006c CA050000 		.4byte	.LVL100-.Ltext0
 3418 0070 0100     		.2byte	0x1
 3419 0072 50       		.byte	0x50
 3420 0073 CA050000 		.4byte	.LVL100-.Ltext0
 3421 0077 CC050000 		.4byte	.LFE142-.Ltext0
 3422 007b 0100     		.2byte	0x1
 3423 007d 53       		.byte	0x53
 3424 007e 00000000 		.4byte	0
 3425 0082 00000000 		.4byte	0
 3426              	.LVUS41:
 3427 0086 01       		.uleb128 .LVU532
 3428 0087 00       		.uleb128 .LVU541
ARM GAS  C:\Users\hoodc\AppData\Local\Temp\cc4eu5v8.s 			page 88


 3429 0088 00       		.uleb128 .LVU541
 3430 0089 00       		.uleb128 .LVU546
 3431 008a 00       		.uleb128 .LVU546
 3432 008b 00       		.uleb128 0
 3433              	.LLST41:
 3434 008c 72050000 		.4byte	.LVL95-.Ltext0
 3435 0090 8C050000 		.4byte	.LVL97-.Ltext0
 3436 0094 0200     		.2byte	0x2
 3437 0096 30       		.byte	0x30
 3438 0097 9F       		.byte	0x9f
 3439 0098 8C050000 		.4byte	.LVL97-.Ltext0
 3440 009c 94050000 		.4byte	.LVL98-.Ltext0
 3441 00a0 0100     		.2byte	0x1
 3442 00a2 50       		.byte	0x50
 3443 00a3 94050000 		.4byte	.LVL98-.Ltext0
 3444 00a7 CC050000 		.4byte	.LFE142-.Ltext0
 3445 00ab 0200     		.2byte	0x2
 3446 00ad 30       		.byte	0x30
 3447 00ae 9F       		.byte	0x9f
 3448 00af 00000000 		.4byte	0
 3449 00b3 00000000 		.4byte	0
 3450              	.LVUS37:
 3451 00b7 00       		.uleb128 0
 3452 00b8 00       		.uleb128 .LVU493
 3453 00b9 00       		.uleb128 .LVU493
 3454 00ba 00       		.uleb128 0
 3455              	.LLST37:
 3456 00bb 2A050000 		.4byte	.LVL88-.Ltext0
 3457 00bf 30050000 		.4byte	.LVL90-.Ltext0
 3458 00c3 0100     		.2byte	0x1
 3459 00c5 50       		.byte	0x50
 3460 00c6 30050000 		.4byte	.LVL90-.Ltext0
 3461 00ca 70050000 		.4byte	.LFE141-.Ltext0
 3462 00ce 0100     		.2byte	0x1
 3463 00d0 53       		.byte	0x53
 3464 00d1 00000000 		.4byte	0
 3465 00d5 00000000 		.4byte	0
 3466              	.LVUS38:
 3467 00d9 00       		.uleb128 0
 3468 00da 00       		.uleb128 .LVU502
 3469 00db 00       		.uleb128 .LVU502
 3470 00dc 00       		.uleb128 .LVU506
 3471 00dd 00       		.uleb128 .LVU506
 3472 00de 00       		.uleb128 0
 3473              	.LLST38:
 3474 00df 2A050000 		.4byte	.LVL88-.Ltext0
 3475 00e3 42050000 		.4byte	.LVL92-.Ltext0
 3476 00e7 0100     		.2byte	0x1
 3477 00e9 52       		.byte	0x52
 3478 00ea 42050000 		.4byte	.LVL92-.Ltext0
 3479 00ee 48050000 		.4byte	.LVL93-.Ltext0
 3480 00f2 0400     		.2byte	0x4
 3481 00f4 F3       		.byte	0xf3
 3482 00f5 01       		.uleb128 0x1
 3483 00f6 52       		.byte	0x52
 3484 00f7 9F       		.byte	0x9f
 3485 00f8 48050000 		.4byte	.LVL93-.Ltext0
ARM GAS  C:\Users\hoodc\AppData\Local\Temp\cc4eu5v8.s 			page 89


 3486 00fc 70050000 		.4byte	.LFE141-.Ltext0
 3487 0100 0100     		.2byte	0x1
 3488 0102 52       		.byte	0x52
 3489 0103 00000000 		.4byte	0
 3490 0107 00000000 		.4byte	0
 3491              	.LVUS39:
 3492 010b 01       		.uleb128 .LVU491
 3493 010c 00       		.uleb128 .LVU500
 3494 010d 00       		.uleb128 .LVU500
 3495 010e 00       		.uleb128 .LVU506
 3496 010f 00       		.uleb128 .LVU506
 3497 0110 00       		.uleb128 0
 3498              	.LLST39:
 3499 0111 2C050000 		.4byte	.LVL89-.Ltext0
 3500 0115 40050000 		.4byte	.LVL91-.Ltext0
 3501 0119 0200     		.2byte	0x2
 3502 011b 30       		.byte	0x30
 3503 011c 9F       		.byte	0x9f
 3504 011d 40050000 		.4byte	.LVL91-.Ltext0
 3505 0121 48050000 		.4byte	.LVL93-.Ltext0
 3506 0125 0100     		.2byte	0x1
 3507 0127 50       		.byte	0x50
 3508 0128 48050000 		.4byte	.LVL93-.Ltext0
 3509 012c 70050000 		.4byte	.LFE141-.Ltext0
 3510 0130 0200     		.2byte	0x2
 3511 0132 30       		.byte	0x30
 3512 0133 9F       		.byte	0x9f
 3513 0134 00000000 		.4byte	0
 3514 0138 00000000 		.4byte	0
 3515              	.LLST33:
 3516 013c 66040000 		.4byte	.LFB140-.Ltext0
 3517 0140 68040000 		.4byte	.LCFI14-.Ltext0
 3518 0144 0200     		.2byte	0x2
 3519 0146 7D       		.byte	0x7d
 3520 0147 00       		.sleb128 0
 3521 0148 68040000 		.4byte	.LCFI14-.Ltext0
 3522 014c 2A050000 		.4byte	.LFE140-.Ltext0
 3523 0150 0200     		.2byte	0x2
 3524 0152 7D       		.byte	0x7d
 3525 0153 10       		.sleb128 16
 3526 0154 00000000 		.4byte	0
 3527 0158 00000000 		.4byte	0
 3528              	.LVUS34:
 3529 015c 00       		.uleb128 0
 3530 015d 00       		.uleb128 .LVU441
 3531 015e 00       		.uleb128 .LVU441
 3532 015f 00       		.uleb128 .LVU442
 3533 0160 00       		.uleb128 .LVU442
 3534 0161 00       		.uleb128 .LVU464
 3535 0162 00       		.uleb128 .LVU464
 3536 0163 00       		.uleb128 .LVU465
 3537 0164 00       		.uleb128 .LVU465
 3538 0165 00       		.uleb128 .LVU486
 3539 0166 00       		.uleb128 .LVU486
 3540 0167 00       		.uleb128 0
 3541              	.LLST34:
 3542 0168 66040000 		.4byte	.LVL77-.Ltext0
ARM GAS  C:\Users\hoodc\AppData\Local\Temp\cc4eu5v8.s 			page 90


 3543 016c A7040000 		.4byte	.LVL81-1-.Ltext0
 3544 0170 0100     		.2byte	0x1
 3545 0172 50       		.byte	0x50
 3546 0173 A7040000 		.4byte	.LVL81-1-.Ltext0
 3547 0177 AA040000 		.4byte	.LVL82-.Ltext0
 3548 017b 0400     		.2byte	0x4
 3549 017d F3       		.byte	0xf3
 3550 017e 01       		.uleb128 0x1
 3551 017f 50       		.byte	0x50
 3552 0180 9F       		.byte	0x9f
 3553 0181 AA040000 		.4byte	.LVL82-.Ltext0
 3554 0185 E9040000 		.4byte	.LVL84-1-.Ltext0
 3555 0189 0100     		.2byte	0x1
 3556 018b 50       		.byte	0x50
 3557 018c E9040000 		.4byte	.LVL84-1-.Ltext0
 3558 0190 EC040000 		.4byte	.LVL85-.Ltext0
 3559 0194 0400     		.2byte	0x4
 3560 0196 F3       		.byte	0xf3
 3561 0197 01       		.uleb128 0x1
 3562 0198 50       		.byte	0x50
 3563 0199 9F       		.byte	0x9f
 3564 019a EC040000 		.4byte	.LVL85-.Ltext0
 3565 019e 27050000 		.4byte	.LVL87-1-.Ltext0
 3566 01a2 0100     		.2byte	0x1
 3567 01a4 50       		.byte	0x50
 3568 01a5 27050000 		.4byte	.LVL87-1-.Ltext0
 3569 01a9 2A050000 		.4byte	.LFE140-.Ltext0
 3570 01ad 0400     		.2byte	0x4
 3571 01af F3       		.byte	0xf3
 3572 01b0 01       		.uleb128 0x1
 3573 01b1 50       		.byte	0x50
 3574 01b2 9F       		.byte	0x9f
 3575 01b3 00000000 		.4byte	0
 3576 01b7 00000000 		.4byte	0
 3577              	.LVUS35:
 3578 01bb 00       		.uleb128 .LVU420
 3579 01bc 00       		.uleb128 .LVU434
 3580 01bd 00       		.uleb128 .LVU442
 3581 01be 00       		.uleb128 .LVU454
 3582 01bf 00       		.uleb128 .LVU465
 3583 01c0 00       		.uleb128 .LVU472
 3584              	.LLST35:
 3585 01c1 6C040000 		.4byte	.LVL78-.Ltext0
 3586 01c5 96040000 		.4byte	.LVL80-.Ltext0
 3587 01c9 0100     		.2byte	0x1
 3588 01cb 51       		.byte	0x51
 3589 01cc AA040000 		.4byte	.LVL82-.Ltext0
 3590 01d0 D0040000 		.4byte	.LVL83-.Ltext0
 3591 01d4 0100     		.2byte	0x1
 3592 01d6 51       		.byte	0x51
 3593 01d7 EC040000 		.4byte	.LVL85-.Ltext0
 3594 01db 06050000 		.4byte	.LVL86-.Ltext0
 3595 01df 0100     		.2byte	0x1
 3596 01e1 51       		.byte	0x51
 3597 01e2 00000000 		.4byte	0
 3598 01e6 00000000 		.4byte	0
 3599              	.LVUS36:
ARM GAS  C:\Users\hoodc\AppData\Local\Temp\cc4eu5v8.s 			page 91


 3600 01ea 00       		.uleb128 .LVU423
 3601 01eb 00       		.uleb128 0
 3602              	.LLST36:
 3603 01ec 70040000 		.4byte	.LVL79-.Ltext0
 3604 01f0 2A050000 		.4byte	.LFE140-.Ltext0
 3605 01f4 0100     		.2byte	0x1
 3606 01f6 55       		.byte	0x55
 3607 01f7 00000000 		.4byte	0
 3608 01fb 00000000 		.4byte	0
 3609              	.LLST27:
 3610 01ff 86030000 		.4byte	.LFB139-.Ltext0
 3611 0203 8A030000 		.4byte	.LCFI13-.Ltext0
 3612 0207 0200     		.2byte	0x2
 3613 0209 7D       		.byte	0x7d
 3614 020a 00       		.sleb128 0
 3615 020b 8A030000 		.4byte	.LCFI13-.Ltext0
 3616 020f 66040000 		.4byte	.LFE139-.Ltext0
 3617 0213 0200     		.2byte	0x2
 3618 0215 7D       		.byte	0x7d
 3619 0216 20       		.sleb128 32
 3620 0217 00000000 		.4byte	0
 3621 021b 00000000 		.4byte	0
 3622              	.LVUS28:
 3623 021f 00       		.uleb128 0
 3624 0220 00       		.uleb128 .LVU337
 3625 0221 00       		.uleb128 .LVU337
 3626 0222 00       		.uleb128 .LVU338
 3627 0223 00       		.uleb128 .LVU338
 3628 0224 00       		.uleb128 .LVU349
 3629 0225 00       		.uleb128 .LVU349
 3630 0226 00       		.uleb128 .LVU377
 3631 0227 00       		.uleb128 .LVU377
 3632 0228 00       		.uleb128 .LVU381
 3633 0229 00       		.uleb128 .LVU381
 3634 022a 00       		.uleb128 .LVU382
 3635 022b 00       		.uleb128 .LVU382
 3636 022c 00       		.uleb128 .LVU386
 3637 022d 00       		.uleb128 .LVU386
 3638 022e 00       		.uleb128 0
 3639              	.LLST28:
 3640 022f 86030000 		.4byte	.LVL64-.Ltext0
 3641 0233 A6030000 		.4byte	.LVL65-.Ltext0
 3642 0237 0100     		.2byte	0x1
 3643 0239 50       		.byte	0x50
 3644 023a A6030000 		.4byte	.LVL65-.Ltext0
 3645 023e AA030000 		.4byte	.LVL66-.Ltext0
 3646 0242 0100     		.2byte	0x1
 3647 0244 54       		.byte	0x54
 3648 0245 AA030000 		.4byte	.LVL66-.Ltext0
 3649 0249 C5030000 		.4byte	.LVL68-1-.Ltext0
 3650 024d 0100     		.2byte	0x1
 3651 024f 50       		.byte	0x50
 3652 0250 C5030000 		.4byte	.LVL68-1-.Ltext0
 3653 0254 0A040000 		.4byte	.LVL72-.Ltext0
 3654 0258 0100     		.2byte	0x1
 3655 025a 54       		.byte	0x54
 3656 025b 0A040000 		.4byte	.LVL72-.Ltext0
ARM GAS  C:\Users\hoodc\AppData\Local\Temp\cc4eu5v8.s 			page 92


 3657 025f 12040000 		.4byte	.LVL73-.Ltext0
 3658 0263 0100     		.2byte	0x1
 3659 0265 50       		.byte	0x50
 3660 0266 12040000 		.4byte	.LVL73-.Ltext0
 3661 026a 14040000 		.4byte	.LVL74-.Ltext0
 3662 026e 0100     		.2byte	0x1
 3663 0270 54       		.byte	0x54
 3664 0271 14040000 		.4byte	.LVL74-.Ltext0
 3665 0275 22040000 		.4byte	.LVL76-.Ltext0
 3666 0279 0100     		.2byte	0x1
 3667 027b 50       		.byte	0x50
 3668 027c 22040000 		.4byte	.LVL76-.Ltext0
 3669 0280 66040000 		.4byte	.LFE139-.Ltext0
 3670 0284 0100     		.2byte	0x1
 3671 0286 54       		.byte	0x54
 3672 0287 00000000 		.4byte	0
 3673 028b 00000000 		.4byte	0
 3674              	.LVUS29:
 3675 028f 00       		.uleb128 0
 3676 0290 00       		.uleb128 .LVU337
 3677 0291 00       		.uleb128 .LVU337
 3678 0292 00       		.uleb128 .LVU338
 3679 0293 00       		.uleb128 .LVU338
 3680 0294 00       		.uleb128 .LVU349
 3681 0295 00       		.uleb128 .LVU349
 3682 0296 00       		.uleb128 .LVU377
 3683 0297 00       		.uleb128 .LVU377
 3684 0298 00       		.uleb128 .LVU386
 3685 0299 00       		.uleb128 .LVU386
 3686 029a 00       		.uleb128 0
 3687              	.LLST29:
 3688 029b 86030000 		.4byte	.LVL64-.Ltext0
 3689 029f A6030000 		.4byte	.LVL65-.Ltext0
 3690 02a3 0100     		.2byte	0x1
 3691 02a5 51       		.byte	0x51
 3692 02a6 A6030000 		.4byte	.LVL65-.Ltext0
 3693 02aa AA030000 		.4byte	.LVL66-.Ltext0
 3694 02ae 0400     		.2byte	0x4
 3695 02b0 F3       		.byte	0xf3
 3696 02b1 01       		.uleb128 0x1
 3697 02b2 51       		.byte	0x51
 3698 02b3 9F       		.byte	0x9f
 3699 02b4 AA030000 		.4byte	.LVL66-.Ltext0
 3700 02b8 C5030000 		.4byte	.LVL68-1-.Ltext0
 3701 02bc 0100     		.2byte	0x1
 3702 02be 51       		.byte	0x51
 3703 02bf C5030000 		.4byte	.LVL68-1-.Ltext0
 3704 02c3 0A040000 		.4byte	.LVL72-.Ltext0
 3705 02c7 0400     		.2byte	0x4
 3706 02c9 F3       		.byte	0xf3
 3707 02ca 01       		.uleb128 0x1
 3708 02cb 51       		.byte	0x51
 3709 02cc 9F       		.byte	0x9f
 3710 02cd 0A040000 		.4byte	.LVL72-.Ltext0
 3711 02d1 22040000 		.4byte	.LVL76-.Ltext0
 3712 02d5 0100     		.2byte	0x1
 3713 02d7 51       		.byte	0x51
ARM GAS  C:\Users\hoodc\AppData\Local\Temp\cc4eu5v8.s 			page 93


 3714 02d8 22040000 		.4byte	.LVL76-.Ltext0
 3715 02dc 66040000 		.4byte	.LFE139-.Ltext0
 3716 02e0 0400     		.2byte	0x4
 3717 02e2 F3       		.byte	0xf3
 3718 02e3 01       		.uleb128 0x1
 3719 02e4 51       		.byte	0x51
 3720 02e5 9F       		.byte	0x9f
 3721 02e6 00000000 		.4byte	0
 3722 02ea 00000000 		.4byte	0
 3723              	.LVUS30:
 3724 02ee 00       		.uleb128 0
 3725 02ef 00       		.uleb128 .LVU337
 3726 02f0 00       		.uleb128 .LVU337
 3727 02f1 00       		.uleb128 .LVU338
 3728 02f2 00       		.uleb128 .LVU338
 3729 02f3 00       		.uleb128 .LVU349
 3730 02f4 00       		.uleb128 .LVU349
 3731 02f5 00       		.uleb128 .LVU377
 3732 02f6 00       		.uleb128 .LVU377
 3733 02f7 00       		.uleb128 .LVU386
 3734 02f8 00       		.uleb128 .LVU386
 3735 02f9 00       		.uleb128 0
 3736              	.LLST30:
 3737 02fa 86030000 		.4byte	.LVL64-.Ltext0
 3738 02fe A6030000 		.4byte	.LVL65-.Ltext0
 3739 0302 0100     		.2byte	0x1
 3740 0304 52       		.byte	0x52
 3741 0305 A6030000 		.4byte	.LVL65-.Ltext0
 3742 0309 AA030000 		.4byte	.LVL66-.Ltext0
 3743 030d 0100     		.2byte	0x1
 3744 030f 55       		.byte	0x55
 3745 0310 AA030000 		.4byte	.LVL66-.Ltext0
 3746 0314 C5030000 		.4byte	.LVL68-1-.Ltext0
 3747 0318 0100     		.2byte	0x1
 3748 031a 52       		.byte	0x52
 3749 031b C5030000 		.4byte	.LVL68-1-.Ltext0
 3750 031f 0A040000 		.4byte	.LVL72-.Ltext0
 3751 0323 0100     		.2byte	0x1
 3752 0325 55       		.byte	0x55
 3753 0326 0A040000 		.4byte	.LVL72-.Ltext0
 3754 032a 22040000 		.4byte	.LVL76-.Ltext0
 3755 032e 0100     		.2byte	0x1
 3756 0330 52       		.byte	0x52
 3757 0331 22040000 		.4byte	.LVL76-.Ltext0
 3758 0335 66040000 		.4byte	.LFE139-.Ltext0
 3759 0339 0100     		.2byte	0x1
 3760 033b 55       		.byte	0x55
 3761 033c 00000000 		.4byte	0
 3762 0340 00000000 		.4byte	0
 3763              	.LVUS31:
 3764 0344 00       		.uleb128 .LVU347
 3765 0345 00       		.uleb128 .LVU377
 3766 0346 00       		.uleb128 .LVU385
 3767 0347 00       		.uleb128 0
 3768              	.LLST31:
 3769 0348 C2030000 		.4byte	.LVL67-.Ltext0
 3770 034c 0A040000 		.4byte	.LVL72-.Ltext0
ARM GAS  C:\Users\hoodc\AppData\Local\Temp\cc4eu5v8.s 			page 94


 3771 0350 0100     		.2byte	0x1
 3772 0352 56       		.byte	0x56
 3773 0353 20040000 		.4byte	.LVL75-.Ltext0
 3774 0357 66040000 		.4byte	.LFE139-.Ltext0
 3775 035b 0100     		.2byte	0x1
 3776 035d 56       		.byte	0x56
 3777 035e 00000000 		.4byte	0
 3778 0362 00000000 		.4byte	0
 3779              	.LVUS32:
 3780 0366 00       		.uleb128 .LVU350
 3781 0367 00       		.uleb128 .LVU352
 3782 0368 00       		.uleb128 .LVU352
 3783 0369 00       		.uleb128 .LVU377
 3784 036a 00       		.uleb128 .LVU386
 3785 036b 00       		.uleb128 0
 3786              	.LLST32:
 3787 036c C8030000 		.4byte	.LVL69-.Ltext0
 3788 0370 CA030000 		.4byte	.LVL70-.Ltext0
 3789 0374 0100     		.2byte	0x1
 3790 0376 50       		.byte	0x50
 3791 0377 CA030000 		.4byte	.LVL70-.Ltext0
 3792 037b 0A040000 		.4byte	.LVL72-.Ltext0
 3793 037f 0100     		.2byte	0x1
 3794 0381 59       		.byte	0x59
 3795 0382 22040000 		.4byte	.LVL76-.Ltext0
 3796 0386 66040000 		.4byte	.LFE139-.Ltext0
 3797 038a 0100     		.2byte	0x1
 3798 038c 59       		.byte	0x59
 3799 038d 00000000 		.4byte	0
 3800 0391 00000000 		.4byte	0
 3801              	.LLST24:
 3802 0395 36030000 		.4byte	.LFB138-.Ltext0
 3803 0399 38030000 		.4byte	.LCFI12-.Ltext0
 3804 039d 0200     		.2byte	0x2
 3805 039f 7D       		.byte	0x7d
 3806 03a0 00       		.sleb128 0
 3807 03a1 38030000 		.4byte	.LCFI12-.Ltext0
 3808 03a5 86030000 		.4byte	.LFE138-.Ltext0
 3809 03a9 0200     		.2byte	0x2
 3810 03ab 7D       		.byte	0x7d
 3811 03ac 08       		.sleb128 8
 3812 03ad 00000000 		.4byte	0
 3813 03b1 00000000 		.4byte	0
 3814              	.LVUS25:
 3815 03b5 00       		.uleb128 0
 3816 03b6 00       		.uleb128 .LVU302
 3817 03b7 00       		.uleb128 .LVU302
 3818 03b8 00       		.uleb128 .LVU304
 3819 03b9 00       		.uleb128 .LVU304
 3820 03ba 00       		.uleb128 .LVU320
 3821 03bb 00       		.uleb128 .LVU320
 3822 03bc 00       		.uleb128 .LVU321
 3823 03bd 00       		.uleb128 .LVU321
 3824 03be 00       		.uleb128 .LVU322
 3825 03bf 00       		.uleb128 .LVU322
 3826 03c0 00       		.uleb128 0
 3827              	.LLST25:
ARM GAS  C:\Users\hoodc\AppData\Local\Temp\cc4eu5v8.s 			page 95


 3828 03c1 36030000 		.4byte	.LVL56-.Ltext0
 3829 03c5 48030000 		.4byte	.LVL59-.Ltext0
 3830 03c9 0100     		.2byte	0x1
 3831 03cb 50       		.byte	0x50
 3832 03cc 48030000 		.4byte	.LVL59-.Ltext0
 3833 03d0 4A030000 		.4byte	.LVL60-.Ltext0
 3834 03d4 0400     		.2byte	0x4
 3835 03d6 F3       		.byte	0xf3
 3836 03d7 01       		.uleb128 0x1
 3837 03d8 50       		.byte	0x50
 3838 03d9 9F       		.byte	0x9f
 3839 03da 4A030000 		.4byte	.LVL60-.Ltext0
 3840 03de 7D030000 		.4byte	.LVL61-1-.Ltext0
 3841 03e2 0100     		.2byte	0x1
 3842 03e4 50       		.byte	0x50
 3843 03e5 7D030000 		.4byte	.LVL61-1-.Ltext0
 3844 03e9 82030000 		.4byte	.LVL62-.Ltext0
 3845 03ed 0400     		.2byte	0x4
 3846 03ef F3       		.byte	0xf3
 3847 03f0 01       		.uleb128 0x1
 3848 03f1 50       		.byte	0x50
 3849 03f2 9F       		.byte	0x9f
 3850 03f3 82030000 		.4byte	.LVL62-.Ltext0
 3851 03f7 84030000 		.4byte	.LVL63-.Ltext0
 3852 03fb 0100     		.2byte	0x1
 3853 03fd 50       		.byte	0x50
 3854 03fe 84030000 		.4byte	.LVL63-.Ltext0
 3855 0402 86030000 		.4byte	.LFE138-.Ltext0
 3856 0406 0400     		.2byte	0x4
 3857 0408 F3       		.byte	0xf3
 3858 0409 01       		.uleb128 0x1
 3859 040a 50       		.byte	0x50
 3860 040b 9F       		.byte	0x9f
 3861 040c 00000000 		.4byte	0
 3862 0410 00000000 		.4byte	0
 3863              	.LVUS26:
 3864 0414 01       		.uleb128 .LVU295
 3865 0415 01       		.uleb128 .LVU301
 3866 0416 01       		.uleb128 .LVU301
 3867 0417 00       		.uleb128 .LVU302
 3868 0418 00       		.uleb128 .LVU302
 3869 0419 00       		.uleb128 .LVU304
 3870 041a 00       		.uleb128 .LVU304
 3871 041b 00       		.uleb128 0
 3872              	.LLST26:
 3873 041c 38030000 		.4byte	.LVL57-.Ltext0
 3874 0420 46030000 		.4byte	.LVL58-.Ltext0
 3875 0424 0200     		.2byte	0x2
 3876 0426 30       		.byte	0x30
 3877 0427 9F       		.byte	0x9f
 3878 0428 46030000 		.4byte	.LVL58-.Ltext0
 3879 042c 48030000 		.4byte	.LVL59-.Ltext0
 3880 0430 0200     		.2byte	0x2
 3881 0432 31       		.byte	0x31
 3882 0433 9F       		.byte	0x9f
 3883 0434 48030000 		.4byte	.LVL59-.Ltext0
 3884 0438 4A030000 		.4byte	.LVL60-.Ltext0
ARM GAS  C:\Users\hoodc\AppData\Local\Temp\cc4eu5v8.s 			page 96


 3885 043c 0100     		.2byte	0x1
 3886 043e 50       		.byte	0x50
 3887 043f 4A030000 		.4byte	.LVL60-.Ltext0
 3888 0443 86030000 		.4byte	.LFE138-.Ltext0
 3889 0447 0200     		.2byte	0x2
 3890 0449 30       		.byte	0x30
 3891 044a 9F       		.byte	0x9f
 3892 044b 00000000 		.4byte	0
 3893 044f 00000000 		.4byte	0
 3894              	.LVUS23:
 3895 0453 00       		.uleb128 0
 3896 0454 00       		.uleb128 .LVU276
 3897 0455 00       		.uleb128 .LVU276
 3898 0456 00       		.uleb128 .LVU277
 3899 0457 00       		.uleb128 .LVU277
 3900 0458 00       		.uleb128 .LVU291
 3901 0459 00       		.uleb128 .LVU291
 3902 045a 00       		.uleb128 0
 3903              	.LLST23:
 3904 045b EC020000 		.4byte	.LVL52-.Ltext0
 3905 045f 02030000 		.4byte	.LVL53-.Ltext0
 3906 0463 0100     		.2byte	0x1
 3907 0465 50       		.byte	0x50
 3908 0466 02030000 		.4byte	.LVL53-.Ltext0
 3909 046a 04030000 		.4byte	.LVL54-.Ltext0
 3910 046e 0400     		.2byte	0x4
 3911 0470 F3       		.byte	0xf3
 3912 0471 01       		.uleb128 0x1
 3913 0472 50       		.byte	0x50
 3914 0473 9F       		.byte	0x9f
 3915 0474 04030000 		.4byte	.LVL54-.Ltext0
 3916 0478 34030000 		.4byte	.LVL55-.Ltext0
 3917 047c 0100     		.2byte	0x1
 3918 047e 50       		.byte	0x50
 3919 047f 34030000 		.4byte	.LVL55-.Ltext0
 3920 0483 36030000 		.4byte	.LFE137-.Ltext0
 3921 0487 0400     		.2byte	0x4
 3922 0489 F3       		.byte	0xf3
 3923 048a 01       		.uleb128 0x1
 3924 048b 50       		.byte	0x50
 3925 048c 9F       		.byte	0x9f
 3926 048d 00000000 		.4byte	0
 3927 0491 00000000 		.4byte	0
 3928              	.LLST14:
 3929 0495 48020000 		.4byte	.LFB136-.Ltext0
 3930 0499 4A020000 		.4byte	.LCFI9-.Ltext0
 3931 049d 0200     		.2byte	0x2
 3932 049f 7D       		.byte	0x7d
 3933 04a0 00       		.sleb128 0
 3934 04a1 4A020000 		.4byte	.LCFI9-.Ltext0
 3935 04a5 74020000 		.4byte	.LCFI10-.Ltext0
 3936 04a9 0200     		.2byte	0x2
 3937 04ab 7D       		.byte	0x7d
 3938 04ac 08       		.sleb128 8
 3939 04ad 74020000 		.4byte	.LCFI10-.Ltext0
 3940 04b1 76020000 		.4byte	.LCFI11-.Ltext0
 3941 04b5 0200     		.2byte	0x2
ARM GAS  C:\Users\hoodc\AppData\Local\Temp\cc4eu5v8.s 			page 97


 3942 04b7 7D       		.byte	0x7d
 3943 04b8 00       		.sleb128 0
 3944 04b9 76020000 		.4byte	.LCFI11-.Ltext0
 3945 04bd EC020000 		.4byte	.LFE136-.Ltext0
 3946 04c1 0200     		.2byte	0x2
 3947 04c3 7D       		.byte	0x7d
 3948 04c4 08       		.sleb128 8
 3949 04c5 00000000 		.4byte	0
 3950 04c9 00000000 		.4byte	0
 3951              	.LVUS15:
 3952 04cd 00       		.uleb128 0
 3953 04ce 00       		.uleb128 .LVU220
 3954 04cf 00       		.uleb128 .LVU220
 3955 04d0 00       		.uleb128 .LVU221
 3956 04d1 00       		.uleb128 .LVU221
 3957 04d2 00       		.uleb128 .LVU251
 3958 04d3 00       		.uleb128 .LVU251
 3959 04d4 00       		.uleb128 .LVU252
 3960 04d5 00       		.uleb128 .LVU252
 3961 04d6 00       		.uleb128 .LVU263
 3962 04d7 00       		.uleb128 .LVU263
 3963 04d8 00       		.uleb128 0
 3964              	.LLST15:
 3965 04d9 48020000 		.4byte	.LVL34-.Ltext0
 3966 04dd 72020000 		.4byte	.LVL38-.Ltext0
 3967 04e1 0100     		.2byte	0x1
 3968 04e3 50       		.byte	0x50
 3969 04e4 72020000 		.4byte	.LVL38-.Ltext0
 3970 04e8 76020000 		.4byte	.LVL39-.Ltext0
 3971 04ec 0400     		.2byte	0x4
 3972 04ee F3       		.byte	0xf3
 3973 04ef 01       		.uleb128 0x1
 3974 04f0 50       		.byte	0x50
 3975 04f1 9F       		.byte	0x9f
 3976 04f2 76020000 		.4byte	.LVL39-.Ltext0
 3977 04f6 C6020000 		.4byte	.LVL45-.Ltext0
 3978 04fa 0100     		.2byte	0x1
 3979 04fc 50       		.byte	0x50
 3980 04fd C6020000 		.4byte	.LVL45-.Ltext0
 3981 0501 C8020000 		.4byte	.LVL46-.Ltext0
 3982 0505 0400     		.2byte	0x4
 3983 0507 F3       		.byte	0xf3
 3984 0508 01       		.uleb128 0x1
 3985 0509 50       		.byte	0x50
 3986 050a 9F       		.byte	0x9f
 3987 050b C8020000 		.4byte	.LVL46-.Ltext0
 3988 050f EA020000 		.4byte	.LVL51-.Ltext0
 3989 0513 0100     		.2byte	0x1
 3990 0515 50       		.byte	0x50
 3991 0516 EA020000 		.4byte	.LVL51-.Ltext0
 3992 051a EC020000 		.4byte	.LFE136-.Ltext0
 3993 051e 0400     		.2byte	0x4
 3994 0520 F3       		.byte	0xf3
 3995 0521 01       		.uleb128 0x1
 3996 0522 50       		.byte	0x50
 3997 0523 9F       		.byte	0x9f
 3998 0524 00000000 		.4byte	0
ARM GAS  C:\Users\hoodc\AppData\Local\Temp\cc4eu5v8.s 			page 98


 3999 0528 00000000 		.4byte	0
 4000              	.LVUS16:
 4001 052c 00       		.uleb128 0
 4002 052d 00       		.uleb128 .LVU220
 4003 052e 00       		.uleb128 .LVU220
 4004 052f 00       		.uleb128 .LVU221
 4005 0530 00       		.uleb128 .LVU221
 4006 0531 00       		.uleb128 .LVU248
 4007 0532 00       		.uleb128 .LVU248
 4008 0533 00       		.uleb128 .LVU252
 4009 0534 00       		.uleb128 .LVU252
 4010 0535 00       		.uleb128 .LVU260
 4011 0536 00       		.uleb128 .LVU260
 4012 0537 00       		.uleb128 .LVU262
 4013 0538 00       		.uleb128 .LVU262
 4014 0539 00       		.uleb128 0
 4015              	.LLST16:
 4016 053a 48020000 		.4byte	.LVL34-.Ltext0
 4017 053e 72020000 		.4byte	.LVL38-.Ltext0
 4018 0542 0100     		.2byte	0x1
 4019 0544 52       		.byte	0x52
 4020 0545 72020000 		.4byte	.LVL38-.Ltext0
 4021 0549 76020000 		.4byte	.LVL39-.Ltext0
 4022 054d 0400     		.2byte	0x4
 4023 054f F3       		.byte	0xf3
 4024 0550 01       		.uleb128 0x1
 4025 0551 52       		.byte	0x52
 4026 0552 9F       		.byte	0x9f
 4027 0553 76020000 		.4byte	.LVL39-.Ltext0
 4028 0557 B2020000 		.4byte	.LVL44-.Ltext0
 4029 055b 0100     		.2byte	0x1
 4030 055d 52       		.byte	0x52
 4031 055e B2020000 		.4byte	.LVL44-.Ltext0
 4032 0562 C8020000 		.4byte	.LVL46-.Ltext0
 4033 0566 0400     		.2byte	0x4
 4034 0568 F3       		.byte	0xf3
 4035 0569 01       		.uleb128 0x1
 4036 056a 52       		.byte	0x52
 4037 056b 9F       		.byte	0x9f
 4038 056c C8020000 		.4byte	.LVL46-.Ltext0
 4039 0570 D4020000 		.4byte	.LVL49-.Ltext0
 4040 0574 0100     		.2byte	0x1
 4041 0576 52       		.byte	0x52
 4042 0577 D4020000 		.4byte	.LVL49-.Ltext0
 4043 057b E8020000 		.4byte	.LVL50-.Ltext0
 4044 057f 0400     		.2byte	0x4
 4045 0581 F3       		.byte	0xf3
 4046 0582 01       		.uleb128 0x1
 4047 0583 52       		.byte	0x52
 4048 0584 9F       		.byte	0x9f
 4049 0585 E8020000 		.4byte	.LVL50-.Ltext0
 4050 0589 EC020000 		.4byte	.LFE136-.Ltext0
 4051 058d 0100     		.2byte	0x1
 4052 058f 52       		.byte	0x52
 4053 0590 00000000 		.4byte	0
 4054 0594 00000000 		.4byte	0
 4055              	.LVUS17:
ARM GAS  C:\Users\hoodc\AppData\Local\Temp\cc4eu5v8.s 			page 99


 4056 0598 00       		.uleb128 0
 4057 0599 00       		.uleb128 .LVU216
 4058 059a 00       		.uleb128 .LVU216
 4059 059b 00       		.uleb128 .LVU221
 4060 059c 00       		.uleb128 .LVU221
 4061 059d 00       		.uleb128 .LVU237
 4062 059e 00       		.uleb128 .LVU237
 4063 059f 00       		.uleb128 .LVU241
 4064 05a0 00       		.uleb128 .LVU241
 4065 05a1 00       		.uleb128 .LVU252
 4066 05a2 00       		.uleb128 .LVU252
 4067 05a3 00       		.uleb128 .LVU255
 4068 05a4 00       		.uleb128 .LVU255
 4069 05a5 00       		.uleb128 .LVU262
 4070 05a6 00       		.uleb128 .LVU262
 4071 05a7 00       		.uleb128 0
 4072              	.LLST17:
 4073 05a8 48020000 		.4byte	.LVL34-.Ltext0
 4074 05ac 6C020000 		.4byte	.LVL36-.Ltext0
 4075 05b0 0100     		.2byte	0x1
 4076 05b2 53       		.byte	0x53
 4077 05b3 6C020000 		.4byte	.LVL36-.Ltext0
 4078 05b7 76020000 		.4byte	.LVL39-.Ltext0
 4079 05bb 0400     		.2byte	0x4
 4080 05bd F3       		.byte	0xf3
 4081 05be 01       		.uleb128 0x1
 4082 05bf 53       		.byte	0x53
 4083 05c0 9F       		.byte	0x9f
 4084 05c1 76020000 		.4byte	.LVL39-.Ltext0
 4085 05c5 A0020000 		.4byte	.LVL41-.Ltext0
 4086 05c9 0100     		.2byte	0x1
 4087 05cb 53       		.byte	0x53
 4088 05cc A0020000 		.4byte	.LVL41-.Ltext0
 4089 05d0 A8020000 		.4byte	.LVL42-.Ltext0
 4090 05d4 0200     		.2byte	0x2
 4091 05d6 74       		.byte	0x74
 4092 05d7 04       		.sleb128 4
 4093 05d8 A8020000 		.4byte	.LVL42-.Ltext0
 4094 05dc C8020000 		.4byte	.LVL46-.Ltext0
 4095 05e0 0400     		.2byte	0x4
 4096 05e2 F3       		.byte	0xf3
 4097 05e3 01       		.uleb128 0x1
 4098 05e4 53       		.byte	0x53
 4099 05e5 9F       		.byte	0x9f
 4100 05e6 C8020000 		.4byte	.LVL46-.Ltext0
 4101 05ea CC020000 		.4byte	.LVL47-.Ltext0
 4102 05ee 0200     		.2byte	0x2
 4103 05f0 74       		.byte	0x74
 4104 05f1 04       		.sleb128 4
 4105 05f2 CC020000 		.4byte	.LVL47-.Ltext0
 4106 05f6 E8020000 		.4byte	.LVL50-.Ltext0
 4107 05fa 0400     		.2byte	0x4
 4108 05fc F3       		.byte	0xf3
 4109 05fd 01       		.uleb128 0x1
 4110 05fe 53       		.byte	0x53
 4111 05ff 9F       		.byte	0x9f
 4112 0600 E8020000 		.4byte	.LVL50-.Ltext0
ARM GAS  C:\Users\hoodc\AppData\Local\Temp\cc4eu5v8.s 			page 100


 4113 0604 EC020000 		.4byte	.LFE136-.Ltext0
 4114 0608 0100     		.2byte	0x1
 4115 060a 53       		.byte	0x53
 4116 060b 00000000 		.4byte	0
 4117 060f 00000000 		.4byte	0
 4118              	.LVUS18:
 4119 0613 01       		.uleb128 .LVU206
 4120 0614 02       		.uleb128 .LVU219
 4121 0615 02       		.uleb128 .LVU219
 4122 0616 00       		.uleb128 .LVU220
 4123 0617 00       		.uleb128 .LVU221
 4124 0618 00       		.uleb128 0
 4125              	.LLST18:
 4126 0619 4A020000 		.4byte	.LVL35-.Ltext0
 4127 061d 70020000 		.4byte	.LVL37-.Ltext0
 4128 0621 0200     		.2byte	0x2
 4129 0623 30       		.byte	0x30
 4130 0624 9F       		.byte	0x9f
 4131 0625 70020000 		.4byte	.LVL37-.Ltext0
 4132 0629 72020000 		.4byte	.LVL38-.Ltext0
 4133 062d 0200     		.2byte	0x2
 4134 062f 32       		.byte	0x32
 4135 0630 9F       		.byte	0x9f
 4136 0631 76020000 		.4byte	.LVL39-.Ltext0
 4137 0635 EC020000 		.4byte	.LFE136-.Ltext0
 4138 0639 0200     		.2byte	0x2
 4139 063b 30       		.byte	0x30
 4140 063c 9F       		.byte	0x9f
 4141 063d 00000000 		.4byte	0
 4142 0641 00000000 		.4byte	0
 4143              	.LVUS19:
 4144 0645 01       		.uleb128 .LVU227
 4145 0646 00       		.uleb128 .LVU237
 4146 0647 00       		.uleb128 .LVU237
 4147 0648 00       		.uleb128 .LVU241
 4148 0649 00       		.uleb128 .LVU241
 4149 064a 00       		.uleb128 .LVU244
 4150 064b 00       		.uleb128 .LVU252
 4151 064c 00       		.uleb128 .LVU255
 4152 064d 00       		.uleb128 .LVU255
 4153 064e 00       		.uleb128 .LVU258
 4154              	.LLST19:
 4155 064f 8A020000 		.4byte	.LVL40-.Ltext0
 4156 0653 A0020000 		.4byte	.LVL41-.Ltext0
 4157 0657 0100     		.2byte	0x1
 4158 0659 53       		.byte	0x53
 4159 065a A0020000 		.4byte	.LVL41-.Ltext0
 4160 065e A8020000 		.4byte	.LVL42-.Ltext0
 4161 0662 0200     		.2byte	0x2
 4162 0664 74       		.byte	0x74
 4163 0665 04       		.sleb128 4
 4164 0666 A8020000 		.4byte	.LVL42-.Ltext0
 4165 066a AC020000 		.4byte	.LVL43-.Ltext0
 4166 066e 0400     		.2byte	0x4
 4167 0670 F3       		.byte	0xf3
 4168 0671 01       		.uleb128 0x1
 4169 0672 53       		.byte	0x53
ARM GAS  C:\Users\hoodc\AppData\Local\Temp\cc4eu5v8.s 			page 101


 4170 0673 9F       		.byte	0x9f
 4171 0674 C8020000 		.4byte	.LVL46-.Ltext0
 4172 0678 CC020000 		.4byte	.LVL47-.Ltext0
 4173 067c 0200     		.2byte	0x2
 4174 067e 74       		.byte	0x74
 4175 067f 04       		.sleb128 4
 4176 0680 CC020000 		.4byte	.LVL47-.Ltext0
 4177 0684 D2020000 		.4byte	.LVL48-.Ltext0
 4178 0688 0400     		.2byte	0x4
 4179 068a F3       		.byte	0xf3
 4180 068b 01       		.uleb128 0x1
 4181 068c 53       		.byte	0x53
 4182 068d 9F       		.byte	0x9f
 4183 068e 00000000 		.4byte	0
 4184 0692 00000000 		.4byte	0
 4185              	.LVUS20:
 4186 0696 01       		.uleb128 .LVU227
 4187 0697 00       		.uleb128 .LVU244
 4188 0698 00       		.uleb128 .LVU252
 4189 0699 00       		.uleb128 .LVU258
 4190              	.LLST20:
 4191 069a 8A020000 		.4byte	.LVL40-.Ltext0
 4192 069e AC020000 		.4byte	.LVL43-.Ltext0
 4193 06a2 0100     		.2byte	0x1
 4194 06a4 52       		.byte	0x52
 4195 06a5 C8020000 		.4byte	.LVL46-.Ltext0
 4196 06a9 D2020000 		.4byte	.LVL48-.Ltext0
 4197 06ad 0100     		.2byte	0x1
 4198 06af 52       		.byte	0x52
 4199 06b0 00000000 		.4byte	0
 4200 06b4 00000000 		.4byte	0
 4201              	.LVUS21:
 4202 06b8 01       		.uleb128 .LVU227
 4203 06b9 00       		.uleb128 .LVU244
 4204 06ba 00       		.uleb128 .LVU252
 4205 06bb 00       		.uleb128 .LVU258
 4206              	.LLST21:
 4207 06bc 8A020000 		.4byte	.LVL40-.Ltext0
 4208 06c0 AC020000 		.4byte	.LVL43-.Ltext0
 4209 06c4 0100     		.2byte	0x1
 4210 06c6 51       		.byte	0x51
 4211 06c7 C8020000 		.4byte	.LVL46-.Ltext0
 4212 06cb D2020000 		.4byte	.LVL48-.Ltext0
 4213 06cf 0100     		.2byte	0x1
 4214 06d1 51       		.byte	0x51
 4215 06d2 00000000 		.4byte	0
 4216 06d6 00000000 		.4byte	0
 4217              	.LVUS22:
 4218 06da 01       		.uleb128 .LVU227
 4219 06db 00       		.uleb128 .LVU244
 4220 06dc 00       		.uleb128 .LVU252
 4221 06dd 00       		.uleb128 .LVU258
 4222              	.LLST22:
 4223 06de 8A020000 		.4byte	.LVL40-.Ltext0
 4224 06e2 AC020000 		.4byte	.LVL43-.Ltext0
 4225 06e6 0100     		.2byte	0x1
 4226 06e8 50       		.byte	0x50
ARM GAS  C:\Users\hoodc\AppData\Local\Temp\cc4eu5v8.s 			page 102


 4227 06e9 C8020000 		.4byte	.LVL46-.Ltext0
 4228 06ed D2020000 		.4byte	.LVL48-.Ltext0
 4229 06f1 0100     		.2byte	0x1
 4230 06f3 50       		.byte	0x50
 4231 06f4 00000000 		.4byte	0
 4232 06f8 00000000 		.4byte	0
 4233              	.LLST5:
 4234 06fc C8010000 		.4byte	.LFB135-.Ltext0
 4235 0700 CA010000 		.4byte	.LCFI6-.Ltext0
 4236 0704 0200     		.2byte	0x2
 4237 0706 7D       		.byte	0x7d
 4238 0707 00       		.sleb128 0
 4239 0708 CA010000 		.4byte	.LCFI6-.Ltext0
 4240 070c F4010000 		.4byte	.LCFI7-.Ltext0
 4241 0710 0200     		.2byte	0x2
 4242 0712 7D       		.byte	0x7d
 4243 0713 08       		.sleb128 8
 4244 0714 F4010000 		.4byte	.LCFI7-.Ltext0
 4245 0718 F6010000 		.4byte	.LCFI8-.Ltext0
 4246 071c 0200     		.2byte	0x2
 4247 071e 7D       		.byte	0x7d
 4248 071f 00       		.sleb128 0
 4249 0720 F6010000 		.4byte	.LCFI8-.Ltext0
 4250 0724 48020000 		.4byte	.LFE135-.Ltext0
 4251 0728 0200     		.2byte	0x2
 4252 072a 7D       		.byte	0x7d
 4253 072b 08       		.sleb128 8
 4254 072c 00000000 		.4byte	0
 4255 0730 00000000 		.4byte	0
 4256              	.LVUS6:
 4257 0734 00       		.uleb128 0
 4258 0735 00       		.uleb128 .LVU165
 4259 0736 00       		.uleb128 .LVU165
 4260 0737 00       		.uleb128 .LVU166
 4261 0738 00       		.uleb128 .LVU166
 4262 0739 00       		.uleb128 .LVU193
 4263 073a 00       		.uleb128 .LVU193
 4264 073b 00       		.uleb128 .LVU194
 4265 073c 00       		.uleb128 .LVU194
 4266 073d 00       		.uleb128 .LVU202
 4267 073e 00       		.uleb128 .LVU202
 4268 073f 00       		.uleb128 0
 4269              	.LLST6:
 4270 0740 C8010000 		.4byte	.LVL18-.Ltext0
 4271 0744 F2010000 		.4byte	.LVL22-.Ltext0
 4272 0748 0100     		.2byte	0x1
 4273 074a 50       		.byte	0x50
 4274 074b F2010000 		.4byte	.LVL22-.Ltext0
 4275 074f F6010000 		.4byte	.LVL23-.Ltext0
 4276 0753 0400     		.2byte	0x4
 4277 0755 F3       		.byte	0xf3
 4278 0756 01       		.uleb128 0x1
 4279 0757 50       		.byte	0x50
 4280 0758 9F       		.byte	0x9f
 4281 0759 F6010000 		.4byte	.LVL23-.Ltext0
 4282 075d 38020000 		.4byte	.LVL29-.Ltext0
 4283 0761 0100     		.2byte	0x1
ARM GAS  C:\Users\hoodc\AppData\Local\Temp\cc4eu5v8.s 			page 103


 4284 0763 50       		.byte	0x50
 4285 0764 38020000 		.4byte	.LVL29-.Ltext0
 4286 0768 3A020000 		.4byte	.LVL30-.Ltext0
 4287 076c 0400     		.2byte	0x4
 4288 076e F3       		.byte	0xf3
 4289 076f 01       		.uleb128 0x1
 4290 0770 50       		.byte	0x50
 4291 0771 9F       		.byte	0x9f
 4292 0772 3A020000 		.4byte	.LVL30-.Ltext0
 4293 0776 46020000 		.4byte	.LVL33-.Ltext0
 4294 077a 0100     		.2byte	0x1
 4295 077c 50       		.byte	0x50
 4296 077d 46020000 		.4byte	.LVL33-.Ltext0
 4297 0781 48020000 		.4byte	.LFE135-.Ltext0
 4298 0785 0400     		.2byte	0x4
 4299 0787 F3       		.byte	0xf3
 4300 0788 01       		.uleb128 0x1
 4301 0789 50       		.byte	0x50
 4302 078a 9F       		.byte	0x9f
 4303 078b 00000000 		.4byte	0
 4304 078f 00000000 		.4byte	0
 4305              	.LVUS7:
 4306 0793 00       		.uleb128 0
 4307 0794 00       		.uleb128 .LVU165
 4308 0795 00       		.uleb128 .LVU165
 4309 0796 00       		.uleb128 .LVU166
 4310 0797 00       		.uleb128 .LVU166
 4311 0798 00       		.uleb128 .LVU191
 4312 0799 00       		.uleb128 .LVU191
 4313 079a 00       		.uleb128 .LVU194
 4314 079b 00       		.uleb128 .LVU194
 4315 079c 00       		.uleb128 0
 4316              	.LLST7:
 4317 079d C8010000 		.4byte	.LVL18-.Ltext0
 4318 07a1 F2010000 		.4byte	.LVL22-.Ltext0
 4319 07a5 0100     		.2byte	0x1
 4320 07a7 52       		.byte	0x52
 4321 07a8 F2010000 		.4byte	.LVL22-.Ltext0
 4322 07ac F6010000 		.4byte	.LVL23-.Ltext0
 4323 07b0 0400     		.2byte	0x4
 4324 07b2 F3       		.byte	0xf3
 4325 07b3 01       		.uleb128 0x1
 4326 07b4 52       		.byte	0x52
 4327 07b5 9F       		.byte	0x9f
 4328 07b6 F6010000 		.4byte	.LVL23-.Ltext0
 4329 07ba 2E020000 		.4byte	.LVL28-.Ltext0
 4330 07be 0100     		.2byte	0x1
 4331 07c0 52       		.byte	0x52
 4332 07c1 2E020000 		.4byte	.LVL28-.Ltext0
 4333 07c5 3A020000 		.4byte	.LVL30-.Ltext0
 4334 07c9 0400     		.2byte	0x4
 4335 07cb F3       		.byte	0xf3
 4336 07cc 01       		.uleb128 0x1
 4337 07cd 52       		.byte	0x52
 4338 07ce 9F       		.byte	0x9f
 4339 07cf 3A020000 		.4byte	.LVL30-.Ltext0
 4340 07d3 48020000 		.4byte	.LFE135-.Ltext0
ARM GAS  C:\Users\hoodc\AppData\Local\Temp\cc4eu5v8.s 			page 104


 4341 07d7 0100     		.2byte	0x1
 4342 07d9 52       		.byte	0x52
 4343 07da 00000000 		.4byte	0
 4344 07de 00000000 		.4byte	0
 4345              	.LVUS8:
 4346 07e2 00       		.uleb128 0
 4347 07e3 00       		.uleb128 .LVU161
 4348 07e4 00       		.uleb128 .LVU161
 4349 07e5 00       		.uleb128 .LVU166
 4350 07e6 00       		.uleb128 .LVU166
 4351 07e7 00       		.uleb128 .LVU182
 4352 07e8 00       		.uleb128 .LVU182
 4353 07e9 00       		.uleb128 .LVU186
 4354 07ea 00       		.uleb128 .LVU186
 4355 07eb 00       		.uleb128 .LVU194
 4356 07ec 00       		.uleb128 .LVU194
 4357 07ed 00       		.uleb128 .LVU197
 4358 07ee 00       		.uleb128 .LVU197
 4359 07ef 00       		.uleb128 .LVU200
 4360 07f0 00       		.uleb128 .LVU200
 4361 07f1 00       		.uleb128 0
 4362              	.LLST8:
 4363 07f2 C8010000 		.4byte	.LVL18-.Ltext0
 4364 07f6 EC010000 		.4byte	.LVL20-.Ltext0
 4365 07fa 0100     		.2byte	0x1
 4366 07fc 53       		.byte	0x53
 4367 07fd EC010000 		.4byte	.LVL20-.Ltext0
 4368 0801 F6010000 		.4byte	.LVL23-.Ltext0
 4369 0805 0400     		.2byte	0x4
 4370 0807 F3       		.byte	0xf3
 4371 0808 01       		.uleb128 0x1
 4372 0809 53       		.byte	0x53
 4373 080a 9F       		.byte	0x9f
 4374 080b F6010000 		.4byte	.LVL23-.Ltext0
 4375 080f 20020000 		.4byte	.LVL25-.Ltext0
 4376 0813 0100     		.2byte	0x1
 4377 0815 53       		.byte	0x53
 4378 0816 20020000 		.4byte	.LVL25-.Ltext0
 4379 081a 28020000 		.4byte	.LVL26-.Ltext0
 4380 081e 0200     		.2byte	0x2
 4381 0820 74       		.byte	0x74
 4382 0821 04       		.sleb128 4
 4383 0822 28020000 		.4byte	.LVL26-.Ltext0
 4384 0826 3A020000 		.4byte	.LVL30-.Ltext0
 4385 082a 0400     		.2byte	0x4
 4386 082c F3       		.byte	0xf3
 4387 082d 01       		.uleb128 0x1
 4388 082e 53       		.byte	0x53
 4389 082f 9F       		.byte	0x9f
 4390 0830 3A020000 		.4byte	.LVL30-.Ltext0
 4391 0834 3E020000 		.4byte	.LVL31-.Ltext0
 4392 0838 0200     		.2byte	0x2
 4393 083a 74       		.byte	0x74
 4394 083b 04       		.sleb128 4
 4395 083c 3E020000 		.4byte	.LVL31-.Ltext0
 4396 0840 44020000 		.4byte	.LVL32-.Ltext0
 4397 0844 0400     		.2byte	0x4
ARM GAS  C:\Users\hoodc\AppData\Local\Temp\cc4eu5v8.s 			page 105


 4398 0846 F3       		.byte	0xf3
 4399 0847 01       		.uleb128 0x1
 4400 0848 53       		.byte	0x53
 4401 0849 9F       		.byte	0x9f
 4402 084a 44020000 		.4byte	.LVL32-.Ltext0
 4403 084e 48020000 		.4byte	.LFE135-.Ltext0
 4404 0852 0100     		.2byte	0x1
 4405 0854 53       		.byte	0x53
 4406 0855 00000000 		.4byte	0
 4407 0859 00000000 		.4byte	0
 4408              	.LVUS9:
 4409 085d 01       		.uleb128 .LVU151
 4410 085e 02       		.uleb128 .LVU164
 4411 085f 02       		.uleb128 .LVU164
 4412 0860 00       		.uleb128 .LVU165
 4413 0861 00       		.uleb128 .LVU166
 4414 0862 00       		.uleb128 0
 4415              	.LLST9:
 4416 0863 CA010000 		.4byte	.LVL19-.Ltext0
 4417 0867 F0010000 		.4byte	.LVL21-.Ltext0
 4418 086b 0200     		.2byte	0x2
 4419 086d 30       		.byte	0x30
 4420 086e 9F       		.byte	0x9f
 4421 086f F0010000 		.4byte	.LVL21-.Ltext0
 4422 0873 F2010000 		.4byte	.LVL22-.Ltext0
 4423 0877 0200     		.2byte	0x2
 4424 0879 32       		.byte	0x32
 4425 087a 9F       		.byte	0x9f
 4426 087b F6010000 		.4byte	.LVL23-.Ltext0
 4427 087f 48020000 		.4byte	.LFE135-.Ltext0
 4428 0883 0200     		.2byte	0x2
 4429 0885 30       		.byte	0x30
 4430 0886 9F       		.byte	0x9f
 4431 0887 00000000 		.4byte	0
 4432 088b 00000000 		.4byte	0
 4433              	.LVUS10:
 4434 088f 01       		.uleb128 .LVU172
 4435 0890 00       		.uleb128 .LVU182
 4436 0891 00       		.uleb128 .LVU182
 4437 0892 00       		.uleb128 .LVU186
 4438 0893 00       		.uleb128 .LVU186
 4439 0894 00       		.uleb128 .LVU189
 4440 0895 00       		.uleb128 .LVU194
 4441 0896 00       		.uleb128 .LVU197
 4442 0897 00       		.uleb128 .LVU197
 4443 0898 00       		.uleb128 .LVU200
 4444              	.LLST10:
 4445 0899 0A020000 		.4byte	.LVL24-.Ltext0
 4446 089d 20020000 		.4byte	.LVL25-.Ltext0
 4447 08a1 0100     		.2byte	0x1
 4448 08a3 53       		.byte	0x53
 4449 08a4 20020000 		.4byte	.LVL25-.Ltext0
 4450 08a8 28020000 		.4byte	.LVL26-.Ltext0
 4451 08ac 0200     		.2byte	0x2
 4452 08ae 74       		.byte	0x74
 4453 08af 04       		.sleb128 4
 4454 08b0 28020000 		.4byte	.LVL26-.Ltext0
ARM GAS  C:\Users\hoodc\AppData\Local\Temp\cc4eu5v8.s 			page 106


 4455 08b4 2C020000 		.4byte	.LVL27-.Ltext0
 4456 08b8 0400     		.2byte	0x4
 4457 08ba F3       		.byte	0xf3
 4458 08bb 01       		.uleb128 0x1
 4459 08bc 53       		.byte	0x53
 4460 08bd 9F       		.byte	0x9f
 4461 08be 3A020000 		.4byte	.LVL30-.Ltext0
 4462 08c2 3E020000 		.4byte	.LVL31-.Ltext0
 4463 08c6 0200     		.2byte	0x2
 4464 08c8 74       		.byte	0x74
 4465 08c9 04       		.sleb128 4
 4466 08ca 3E020000 		.4byte	.LVL31-.Ltext0
 4467 08ce 44020000 		.4byte	.LVL32-.Ltext0
 4468 08d2 0400     		.2byte	0x4
 4469 08d4 F3       		.byte	0xf3
 4470 08d5 01       		.uleb128 0x1
 4471 08d6 53       		.byte	0x53
 4472 08d7 9F       		.byte	0x9f
 4473 08d8 00000000 		.4byte	0
 4474 08dc 00000000 		.4byte	0
 4475              	.LVUS11:
 4476 08e0 01       		.uleb128 .LVU172
 4477 08e1 00       		.uleb128 .LVU189
 4478 08e2 00       		.uleb128 .LVU194
 4479 08e3 00       		.uleb128 .LVU200
 4480              	.LLST11:
 4481 08e4 0A020000 		.4byte	.LVL24-.Ltext0
 4482 08e8 2C020000 		.4byte	.LVL27-.Ltext0
 4483 08ec 0100     		.2byte	0x1
 4484 08ee 52       		.byte	0x52
 4485 08ef 3A020000 		.4byte	.LVL30-.Ltext0
 4486 08f3 44020000 		.4byte	.LVL32-.Ltext0
 4487 08f7 0100     		.2byte	0x1
 4488 08f9 52       		.byte	0x52
 4489 08fa 00000000 		.4byte	0
 4490 08fe 00000000 		.4byte	0
 4491              	.LVUS12:
 4492 0902 01       		.uleb128 .LVU172
 4493 0903 00       		.uleb128 .LVU189
 4494 0904 00       		.uleb128 .LVU194
 4495 0905 00       		.uleb128 .LVU200
 4496              	.LLST12:
 4497 0906 0A020000 		.4byte	.LVL24-.Ltext0
 4498 090a 2C020000 		.4byte	.LVL27-.Ltext0
 4499 090e 0100     		.2byte	0x1
 4500 0910 51       		.byte	0x51
 4501 0911 3A020000 		.4byte	.LVL30-.Ltext0
 4502 0915 44020000 		.4byte	.LVL32-.Ltext0
 4503 0919 0100     		.2byte	0x1
 4504 091b 51       		.byte	0x51
 4505 091c 00000000 		.4byte	0
 4506 0920 00000000 		.4byte	0
 4507              	.LVUS13:
 4508 0924 01       		.uleb128 .LVU172
 4509 0925 00       		.uleb128 .LVU189
 4510 0926 00       		.uleb128 .LVU194
 4511 0927 00       		.uleb128 .LVU200
ARM GAS  C:\Users\hoodc\AppData\Local\Temp\cc4eu5v8.s 			page 107


 4512              	.LLST13:
 4513 0928 0A020000 		.4byte	.LVL24-.Ltext0
 4514 092c 2C020000 		.4byte	.LVL27-.Ltext0
 4515 0930 0100     		.2byte	0x1
 4516 0932 50       		.byte	0x50
 4517 0933 3A020000 		.4byte	.LVL30-.Ltext0
 4518 0937 44020000 		.4byte	.LVL32-.Ltext0
 4519 093b 0100     		.2byte	0x1
 4520 093d 50       		.byte	0x50
 4521 093e 00000000 		.4byte	0
 4522 0942 00000000 		.4byte	0
 4523              	.LLST3:
 4524 0946 04010000 		.4byte	.LFB134-.Ltext0
 4525 094a 06010000 		.4byte	.LCFI3-.Ltext0
 4526 094e 0200     		.2byte	0x2
 4527 0950 7D       		.byte	0x7d
 4528 0951 00       		.sleb128 0
 4529 0952 06010000 		.4byte	.LCFI3-.Ltext0
 4530 0956 7A010000 		.4byte	.LCFI4-.Ltext0
 4531 095a 0200     		.2byte	0x2
 4532 095c 7D       		.byte	0x7d
 4533 095d 04       		.sleb128 4
 4534 095e 7A010000 		.4byte	.LCFI4-.Ltext0
 4535 0962 7C010000 		.4byte	.LCFI5-.Ltext0
 4536 0966 0200     		.2byte	0x2
 4537 0968 7D       		.byte	0x7d
 4538 0969 00       		.sleb128 0
 4539 096a 7C010000 		.4byte	.LCFI5-.Ltext0
 4540 096e C8010000 		.4byte	.LFE134-.Ltext0
 4541 0972 0200     		.2byte	0x2
 4542 0974 7D       		.byte	0x7d
 4543 0975 04       		.sleb128 4
 4544 0976 00000000 		.4byte	0
 4545 097a 00000000 		.4byte	0
 4546              	.LVUS4:
 4547 097e 00       		.uleb128 0
 4548 097f 00       		.uleb128 .LVU97
 4549 0980 00       		.uleb128 .LVU97
 4550 0981 00       		.uleb128 .LVU133
 4551 0982 00       		.uleb128 .LVU133
 4552 0983 00       		.uleb128 .LVU136
 4553 0984 00       		.uleb128 .LVU136
 4554 0985 00       		.uleb128 .LVU146
 4555 0986 00       		.uleb128 .LVU146
 4556 0987 00       		.uleb128 .LVU147
 4557 0988 00       		.uleb128 .LVU147
 4558 0989 00       		.uleb128 0
 4559              	.LLST4:
 4560 098a 04010000 		.4byte	.LVL12-.Ltext0
 4561 098e 24010000 		.4byte	.LVL13-.Ltext0
 4562 0992 0100     		.2byte	0x1
 4563 0994 50       		.byte	0x50
 4564 0995 24010000 		.4byte	.LVL13-.Ltext0
 4565 0999 7C010000 		.4byte	.LVL14-.Ltext0
 4566 099d 0100     		.2byte	0x1
 4567 099f 53       		.byte	0x53
 4568 09a0 7C010000 		.4byte	.LVL14-.Ltext0
ARM GAS  C:\Users\hoodc\AppData\Local\Temp\cc4eu5v8.s 			page 108


 4569 09a4 82010000 		.4byte	.LVL15-.Ltext0
 4570 09a8 0100     		.2byte	0x1
 4571 09aa 50       		.byte	0x50
 4572 09ab 82010000 		.4byte	.LVL15-.Ltext0
 4573 09af AC010000 		.4byte	.LVL16-.Ltext0
 4574 09b3 0100     		.2byte	0x1
 4575 09b5 53       		.byte	0x53
 4576 09b6 AC010000 		.4byte	.LVL16-.Ltext0
 4577 09ba AE010000 		.4byte	.LVL17-.Ltext0
 4578 09be 0100     		.2byte	0x1
 4579 09c0 50       		.byte	0x50
 4580 09c1 AE010000 		.4byte	.LVL17-.Ltext0
 4581 09c5 C8010000 		.4byte	.LFE134-.Ltext0
 4582 09c9 0100     		.2byte	0x1
 4583 09cb 53       		.byte	0x53
 4584 09cc 00000000 		.4byte	0
 4585 09d0 00000000 		.4byte	0
 4586              	.LLST0:
 4587 09d4 00000000 		.4byte	.LFB133-.Ltext0
 4588 09d8 02000000 		.4byte	.LCFI0-.Ltext0
 4589 09dc 0200     		.2byte	0x2
 4590 09de 7D       		.byte	0x7d
 4591 09df 00       		.sleb128 0
 4592 09e0 02000000 		.4byte	.LCFI0-.Ltext0
 4593 09e4 A0000000 		.4byte	.LCFI1-.Ltext0
 4594 09e8 0200     		.2byte	0x2
 4595 09ea 7D       		.byte	0x7d
 4596 09eb 04       		.sleb128 4
 4597 09ec A0000000 		.4byte	.LCFI1-.Ltext0
 4598 09f0 A2000000 		.4byte	.LCFI2-.Ltext0
 4599 09f4 0200     		.2byte	0x2
 4600 09f6 7D       		.byte	0x7d
 4601 09f7 00       		.sleb128 0
 4602 09f8 A2000000 		.4byte	.LCFI2-.Ltext0
 4603 09fc 04010000 		.4byte	.LFE133-.Ltext0
 4604 0a00 0200     		.2byte	0x2
 4605 0a02 7D       		.byte	0x7d
 4606 0a03 04       		.sleb128 4
 4607 0a04 00000000 		.4byte	0
 4608 0a08 00000000 		.4byte	0
 4609              	.LVUS1:
 4610 0a0c 00       		.uleb128 0
 4611 0a0d 00       		.uleb128 .LVU16
 4612 0a0e 00       		.uleb128 .LVU16
 4613 0a0f 00       		.uleb128 .LVU83
 4614 0a10 00       		.uleb128 .LVU83
 4615 0a11 00       		.uleb128 .LVU84
 4616 0a12 00       		.uleb128 .LVU84
 4617 0a13 00       		.uleb128 0
 4618              	.LLST1:
 4619 0a14 00000000 		.4byte	.LVL0-.Ltext0
 4620 0a18 0A000000 		.4byte	.LVL1-.Ltext0
 4621 0a1c 0100     		.2byte	0x1
 4622 0a1e 50       		.byte	0x50
 4623 0a1f 0A000000 		.4byte	.LVL1-.Ltext0
 4624 0a23 E6000000 		.4byte	.LVL10-.Ltext0
 4625 0a27 0100     		.2byte	0x1
ARM GAS  C:\Users\hoodc\AppData\Local\Temp\cc4eu5v8.s 			page 109


 4626 0a29 53       		.byte	0x53
 4627 0a2a E6000000 		.4byte	.LVL10-.Ltext0
 4628 0a2e E8000000 		.4byte	.LVL11-.Ltext0
 4629 0a32 0100     		.2byte	0x1
 4630 0a34 50       		.byte	0x50
 4631 0a35 E8000000 		.4byte	.LVL11-.Ltext0
 4632 0a39 04010000 		.4byte	.LFE133-.Ltext0
 4633 0a3d 0100     		.2byte	0x1
 4634 0a3f 53       		.byte	0x53
 4635 0a40 00000000 		.4byte	0
 4636 0a44 00000000 		.4byte	0
 4637              	.LVUS2:
 4638 0a48 00       		.uleb128 .LVU28
 4639 0a49 00       		.uleb128 .LVU30
 4640 0a4a 00       		.uleb128 .LVU31
 4641 0a4b 00       		.uleb128 .LVU39
 4642 0a4c 00       		.uleb128 .LVU39
 4643 0a4d 00       		.uleb128 .LVU43
 4644 0a4e 00       		.uleb128 .LVU43
 4645 0a4f 00       		.uleb128 .LVU49
 4646 0a50 00       		.uleb128 .LVU72
 4647 0a51 00       		.uleb128 .LVU75
 4648              	.LLST2:
 4649 0a52 2C000000 		.4byte	.LVL2-.Ltext0
 4650 0a56 30000000 		.4byte	.LVL3-.Ltext0
 4651 0a5a 0100     		.2byte	0x1
 4652 0a5c 51       		.byte	0x51
 4653 0a5d 34000000 		.4byte	.LVL4-.Ltext0
 4654 0a61 50000000 		.4byte	.LVL5-.Ltext0
 4655 0a65 0100     		.2byte	0x1
 4656 0a67 51       		.byte	0x51
 4657 0a68 50000000 		.4byte	.LVL5-.Ltext0
 4658 0a6c 54000000 		.4byte	.LVL6-.Ltext0
 4659 0a70 0100     		.2byte	0x1
 4660 0a72 52       		.byte	0x52
 4661 0a73 54000000 		.4byte	.LVL6-.Ltext0
 4662 0a77 6A000000 		.4byte	.LVL7-.Ltext0
 4663 0a7b 0200     		.2byte	0x2
 4664 0a7d 70       		.byte	0x70
 4665 0a7e 00       		.sleb128 0
 4666 0a7f B8000000 		.4byte	.LVL8-.Ltext0
 4667 0a83 C0000000 		.4byte	.LVL9-.Ltext0
 4668 0a87 0200     		.2byte	0x2
 4669 0a89 70       		.byte	0x70
 4670 0a8a 00       		.sleb128 0
 4671 0a8b 00000000 		.4byte	0
 4672 0a8f 00000000 		.4byte	0
 4673              		.section	.debug_aranges,"",%progbits
 4674 0000 1C000000 		.4byte	0x1c
 4675 0004 0200     		.2byte	0x2
 4676 0006 00000000 		.4byte	.Ldebug_info0
 4677 000a 04       		.byte	0x4
 4678 000b 00       		.byte	0
 4679 000c 0000     		.2byte	0
 4680 000e 0000     		.2byte	0
 4681 0010 00000000 		.4byte	.Ltext0
 4682 0014 D6050000 		.4byte	.Letext0-.Ltext0
ARM GAS  C:\Users\hoodc\AppData\Local\Temp\cc4eu5v8.s 			page 110


 4683 0018 00000000 		.4byte	0
 4684 001c 00000000 		.4byte	0
 4685              		.section	.debug_ranges,"",%progbits
 4686              	.Ldebug_ranges0:
 4687 0000 0A020000 		.4byte	.LBB4-.Ltext0
 4688 0004 2C020000 		.4byte	.LBE4-.Ltext0
 4689 0008 3A020000 		.4byte	.LBB7-.Ltext0
 4690 000c 44020000 		.4byte	.LBE7-.Ltext0
 4691 0010 00000000 		.4byte	0
 4692 0014 00000000 		.4byte	0
 4693 0018 8A020000 		.4byte	.LBB10-.Ltext0
 4694 001c AC020000 		.4byte	.LBE10-.Ltext0
 4695 0020 C8020000 		.4byte	.LBB13-.Ltext0
 4696 0024 D2020000 		.4byte	.LBE13-.Ltext0
 4697 0028 00000000 		.4byte	0
 4698 002c 00000000 		.4byte	0
 4699              		.section	.debug_line,"",%progbits
 4700              	.Ldebug_line0:
 4701 0000 580A0000 		.section	.debug_str,"MS",%progbits,1
 4701      03000D02 
 4701      00000201 
 4701      FB0E0D00 
 4701      01010101 
 4702              	.LASF48:
 4703 0000 48414C5F 		.ascii	"HAL_DMA_XFER_ABORT_CB_ID\000"
 4703      444D415F 
 4703      58464552 
 4703      5F41424F 
 4703      52545F43 
 4704              	.LASF29:
 4705 0019 44697265 		.ascii	"Direction\000"
 4705      6374696F 
 4705      6E00
 4706              	.LASF84:
 4707 0023 48414C5F 		.ascii	"HAL_DMA_Start_IT\000"
 4707      444D415F 
 4707      53746172 
 4707      745F4954 
 4707      00
 4708              	.LASF25:
 4709 0034 48414C5F 		.ascii	"HAL_UNLOCKED\000"
 4709      554E4C4F 
 4709      434B4544 
 4709      00
 4710              	.LASF23:
 4711 0041 48414C5F 		.ascii	"HAL_TIMEOUT\000"
 4711      54494D45 
 4711      4F555400 
 4712              	.LASF69:
 4713 004d 48414C5F 		.ascii	"HAL_DMA_GetState\000"
 4713      444D415F 
 4713      47657453 
 4713      74617465 
 4713      00
 4714              	.LASF35:
 4715 005e 5072696F 		.ascii	"Priority\000"
 4715      72697479 
ARM GAS  C:\Users\hoodc\AppData\Local\Temp\cc4eu5v8.s 			page 111


 4715      00
 4716              	.LASF59:
 4717 0067 58666572 		.ascii	"XferAbortCallback\000"
 4717      41626F72 
 4717      7443616C 
 4717      6C626163 
 4717      6B00
 4718              	.LASF14:
 4719 0079 444D415F 		.ascii	"DMA_Channel_TypeDef\000"
 4719      4368616E 
 4719      6E656C5F 
 4719      54797065 
 4719      44656600 
 4720              	.LASF2:
 4721 008d 73686F72 		.ascii	"short int\000"
 4721      7420696E 
 4721      7400
 4722              	.LASF40:
 4723 0097 48414C5F 		.ascii	"HAL_DMA_STATE_TIMEOUT\000"
 4723      444D415F 
 4723      53544154 
 4723      455F5449 
 4723      4D454F55 
 4724              	.LASF87:
 4725 00ad 48414C5F 		.ascii	"HAL_DMA_Init\000"
 4725      444D415F 
 4725      496E6974 
 4725      00
 4726              	.LASF75:
 4727 00ba 666C6167 		.ascii	"flag_it\000"
 4727      5F697400 
 4728              	.LASF71:
 4729 00c2 48414C5F 		.ascii	"HAL_DMA_RegisterCallback\000"
 4729      444D415F 
 4729      52656769 
 4729      73746572 
 4729      43616C6C 
 4730              	.LASF37:
 4731 00db 48414C5F 		.ascii	"HAL_DMA_STATE_RESET\000"
 4731      444D415F 
 4731      53544154 
 4731      455F5245 
 4731      53455400 
 4732              	.LASF63:
 4733 00ef 444D415F 		.ascii	"DMA_HandleTypeDef\000"
 4733      48616E64 
 4733      6C655479 
 4733      70654465 
 4733      6600
 4734              	.LASF9:
 4735 0101 5F5F7569 		.ascii	"__uint32_t\000"
 4735      6E743332 
 4735      5F7400
 4736              	.LASF94:
 4737 010c 48414C5F 		.ascii	"HAL_GetTick\000"
 4737      47657454 
 4737      69636B00 
ARM GAS  C:\Users\hoodc\AppData\Local\Temp\cc4eu5v8.s 			page 112


 4738              	.LASF61:
 4739 0118 446D6142 		.ascii	"DmaBaseAddress\000"
 4739      61736541 
 4739      64647265 
 4739      737300
 4740              	.LASF16:
 4741 0127 444D415F 		.ascii	"DMA_TypeDef\000"
 4741      54797065 
 4741      44656600 
 4742              	.LASF20:
 4743 0133 48414C5F 		.ascii	"HAL_OK\000"
 4743      4F4B00
 4744              	.LASF41:
 4745 013a 48414C5F 		.ascii	"HAL_DMA_StateTypeDef\000"
 4745      444D415F 
 4745      53746174 
 4745      65547970 
 4745      65446566 
 4746              	.LASF39:
 4747 014f 48414C5F 		.ascii	"HAL_DMA_STATE_BUSY\000"
 4747      444D415F 
 4747      53544154 
 4747      455F4255 
 4747      535900
 4748              	.LASF91:
 4749 0162 5F5F444D 		.ascii	"__DMA_HandleTypeDef\000"
 4749      415F4861 
 4749      6E646C65 
 4749      54797065 
 4749      44656600 
 4750              	.LASF28:
 4751 0176 52657175 		.ascii	"Request\000"
 4751      65737400 
 4752              	.LASF22:
 4753 017e 48414C5F 		.ascii	"HAL_BUSY\000"
 4753      42555359 
 4753      00
 4754              	.LASF85:
 4755 0187 48414C5F 		.ascii	"HAL_DMA_Start\000"
 4755      444D415F 
 4755      53746172 
 4755      7400
 4756              	.LASF19:
 4757 0195 6C6F6E67 		.ascii	"long double\000"
 4757      20646F75 
 4757      626C6500 
 4758              	.LASF80:
 4759 01a1 74656D70 		.ascii	"temp\000"
 4759      00
 4760              	.LASF6:
 4761 01a6 6C6F6E67 		.ascii	"long long int\000"
 4761      206C6F6E 
 4761      6720696E 
 4761      7400
 4762              	.LASF7:
 4763 01b4 6C6F6E67 		.ascii	"long long unsigned int\000"
 4763      206C6F6E 
ARM GAS  C:\Users\hoodc\AppData\Local\Temp\cc4eu5v8.s 			page 113


 4763      6720756E 
 4763      7369676E 
 4763      65642069 
 4764              	.LASF54:
 4765 01cb 53746174 		.ascii	"State\000"
 4765      6500
 4766              	.LASF52:
 4767 01d1 496E6974 		.ascii	"Init\000"
 4767      00
 4768              	.LASF90:
 4769 01d6 433A5C55 		.ascii	"C:\\Users\\hoodc\\Documents\\Github\\indago-embedde"
 4769      73657273 
 4769      5C686F6F 
 4769      64635C44 
 4769      6F63756D 
 4770 0204 642D6465 		.ascii	"d-dev\\Indago-Smart-Board-v4\\MDK-ARM\000"
 4770      765C496E 
 4770      6461676F 
 4770      2D536D61 
 4770      72742D42 
 4771              	.LASF4:
 4772 0228 6C6F6E67 		.ascii	"long int\000"
 4772      20696E74 
 4772      00
 4773              	.LASF30:
 4774 0231 50657269 		.ascii	"PeriphInc\000"
 4774      7068496E 
 4774      6300
 4775              	.LASF53:
 4776 023b 4C6F636B 		.ascii	"Lock\000"
 4776      00
 4777              	.LASF68:
 4778 0240 48414C5F 		.ascii	"HAL_DMA_GetError\000"
 4778      444D415F 
 4778      47657445 
 4778      72726F72 
 4778      00
 4779              	.LASF81:
 4780 0251 7469636B 		.ascii	"tickstart\000"
 4780      73746172 
 4780      7400
 4781              	.LASF24:
 4782 025b 48414C5F 		.ascii	"HAL_StatusTypeDef\000"
 4782      53746174 
 4782      75735479 
 4782      70654465 
 4782      6600
 4783              	.LASF89:
 4784 026d 2E2E2F44 		.ascii	"../Drivers/STM32L4xx_HAL_Driver/Src/stm32l4xx_hal_d"
 4784      72697665 
 4784      72732F53 
 4784      544D3332 
 4784      4C347878 
 4785 02a0 6D612E63 		.ascii	"ma.c\000"
 4785      00
 4786              	.LASF12:
 4787 02a5 43504152 		.ascii	"CPAR\000"
ARM GAS  C:\Users\hoodc\AppData\Local\Temp\cc4eu5v8.s 			page 114


 4787      00
 4788              	.LASF82:
 4789 02aa 48414C5F 		.ascii	"HAL_DMA_Abort_IT\000"
 4789      444D415F 
 4789      41626F72 
 4789      745F4954 
 4789      00
 4790              	.LASF36:
 4791 02bb 444D415F 		.ascii	"DMA_InitTypeDef\000"
 4791      496E6974 
 4791      54797065 
 4791      44656600 
 4792              	.LASF55:
 4793 02cb 50617265 		.ascii	"Parent\000"
 4793      6E7400
 4794              	.LASF21:
 4795 02d2 48414C5F 		.ascii	"HAL_ERROR\000"
 4795      4552524F 
 4795      5200
 4796              	.LASF1:
 4797 02dc 756E7369 		.ascii	"unsigned char\000"
 4797      676E6564 
 4797      20636861 
 4797      7200
 4798              	.LASF86:
 4799 02ea 48414C5F 		.ascii	"HAL_DMA_DeInit\000"
 4799      444D415F 
 4799      4465496E 
 4799      697400
 4800              	.LASF0:
 4801 02f9 7369676E 		.ascii	"signed char\000"
 4801      65642063 
 4801      68617200 
 4802              	.LASF47:
 4803 0305 48414C5F 		.ascii	"HAL_DMA_XFER_ERROR_CB_ID\000"
 4803      444D415F 
 4803      58464552 
 4803      5F455252 
 4803      4F525F43 
 4804              	.LASF64:
 4805 031e 68646D61 		.ascii	"hdma\000"
 4805      00
 4806              	.LASF10:
 4807 0323 75696E74 		.ascii	"uint32_t\000"
 4807      33325F74 
 4807      00
 4808              	.LASF43:
 4809 032c 48414C5F 		.ascii	"HAL_DMA_HALF_TRANSFER\000"
 4809      444D415F 
 4809      48414C46 
 4809      5F545241 
 4809      4E534645 
 4810              	.LASF92:
 4811 0342 444D415F 		.ascii	"DMA_SetConfig\000"
 4811      53657443 
 4811      6F6E6669 
 4811      6700
ARM GAS  C:\Users\hoodc\AppData\Local\Temp\cc4eu5v8.s 			page 115


 4812              	.LASF51:
 4813 0350 496E7374 		.ascii	"Instance\000"
 4813      616E6365 
 4813      00
 4814              	.LASF56:
 4815 0359 58666572 		.ascii	"XferCpltCallback\000"
 4815      43706C74 
 4815      43616C6C 
 4815      6261636B 
 4815      00
 4816              	.LASF26:
 4817 036a 48414C5F 		.ascii	"HAL_LOCKED\000"
 4817      4C4F434B 
 4817      454400
 4818              	.LASF44:
 4819 0375 48414C5F 		.ascii	"HAL_DMA_LevelCompleteTypeDef\000"
 4819      444D415F 
 4819      4C657665 
 4819      6C436F6D 
 4819      706C6574 
 4820              	.LASF42:
 4821 0392 48414C5F 		.ascii	"HAL_DMA_FULL_TRANSFER\000"
 4821      444D415F 
 4821      46554C4C 
 4821      5F545241 
 4821      4E534645 
 4822              	.LASF74:
 4823 03a8 73746174 		.ascii	"status\000"
 4823      757300
 4824              	.LASF3:
 4825 03af 73686F72 		.ascii	"short unsigned int\000"
 4825      7420756E 
 4825      7369676E 
 4825      65642069 
 4825      6E7400
 4826              	.LASF79:
 4827 03c2 54696D65 		.ascii	"Timeout\000"
 4827      6F757400 
 4828              	.LASF58:
 4829 03ca 58666572 		.ascii	"XferErrorCallback\000"
 4829      4572726F 
 4829      7243616C 
 4829      6C626163 
 4829      6B00
 4830              	.LASF11:
 4831 03dc 434E4454 		.ascii	"CNDTR\000"
 4831      5200
 4832              	.LASF50:
 4833 03e2 48414C5F 		.ascii	"HAL_DMA_CallbackIDTypeDef\000"
 4833      444D415F 
 4833      43616C6C 
 4833      6261636B 
 4833      49445479 
 4834              	.LASF18:
 4835 03fc 444D415F 		.ascii	"DMA_Request_TypeDef\000"
 4835      52657175 
 4835      6573745F 
ARM GAS  C:\Users\hoodc\AppData\Local\Temp\cc4eu5v8.s 			page 116


 4835      54797065 
 4835      44656600 
 4836              	.LASF78:
 4837 0410 436F6D70 		.ascii	"CompleteLevel\000"
 4837      6C657465 
 4837      4C657665 
 4837      6C00
 4838              	.LASF17:
 4839 041e 4353454C 		.ascii	"CSELR\000"
 4839      5200
 4840              	.LASF83:
 4841 0424 48414C5F 		.ascii	"HAL_DMA_Abort\000"
 4841      444D415F 
 4841      41626F72 
 4841      7400
 4842              	.LASF15:
 4843 0432 49464352 		.ascii	"IFCR\000"
 4843      00
 4844              	.LASF66:
 4845 0437 44737441 		.ascii	"DstAddress\000"
 4845      64647265 
 4845      737300
 4846              	.LASF72:
 4847 0442 43616C6C 		.ascii	"CallbackID\000"
 4847      6261636B 
 4847      494400
 4848              	.LASF70:
 4849 044d 48414C5F 		.ascii	"HAL_DMA_UnRegisterCallback\000"
 4849      444D415F 
 4849      556E5265 
 4849      67697374 
 4849      65724361 
 4850              	.LASF93:
 4851 0468 48414C5F 		.ascii	"HAL_DMA_IRQHandler\000"
 4851      444D415F 
 4851      49525148 
 4851      616E646C 
 4851      657200
 4852              	.LASF5:
 4853 047b 6C6F6E67 		.ascii	"long unsigned int\000"
 4853      20756E73 
 4853      69676E65 
 4853      6420696E 
 4853      7400
 4854              	.LASF31:
 4855 048d 4D656D49 		.ascii	"MemInc\000"
 4855      6E6300
 4856              	.LASF49:
 4857 0494 48414C5F 		.ascii	"HAL_DMA_XFER_ALL_CB_ID\000"
 4857      444D415F 
 4857      58464552 
 4857      5F414C4C 
 4857      5F43425F 
 4858              	.LASF46:
 4859 04ab 48414C5F 		.ascii	"HAL_DMA_XFER_HALFCPLT_CB_ID\000"
 4859      444D415F 
 4859      58464552 
ARM GAS  C:\Users\hoodc\AppData\Local\Temp\cc4eu5v8.s 			page 117


 4859      5F48414C 
 4859      4643504C 
 4860              	.LASF62:
 4861 04c7 4368616E 		.ascii	"ChannelIndex\000"
 4861      6E656C49 
 4861      6E646578 
 4861      00
 4862              	.LASF13:
 4863 04d4 434D4152 		.ascii	"CMAR\000"
 4863      00
 4864              	.LASF33:
 4865 04d9 4D656D44 		.ascii	"MemDataAlignment\000"
 4865      61746141 
 4865      6C69676E 
 4865      6D656E74 
 4865      00
 4866              	.LASF45:
 4867 04ea 48414C5F 		.ascii	"HAL_DMA_XFER_CPLT_CB_ID\000"
 4867      444D415F 
 4867      58464552 
 4867      5F43504C 
 4867      545F4342 
 4868              	.LASF65:
 4869 0502 53726341 		.ascii	"SrcAddress\000"
 4869      64647265 
 4869      737300
 4870              	.LASF32:
 4871 050d 50657269 		.ascii	"PeriphDataAlignment\000"
 4871      70684461 
 4871      7461416C 
 4871      69676E6D 
 4871      656E7400 
 4872              	.LASF34:
 4873 0521 4D6F6465 		.ascii	"Mode\000"
 4873      00
 4874              	.LASF67:
 4875 0526 44617461 		.ascii	"DataLength\000"
 4875      4C656E67 
 4875      746800
 4876              	.LASF88:
 4877 0531 474E5520 		.ascii	"GNU C17 10.2.1 20201103 (release) -mthumb -mapcs-fr"
 4877      43313720 
 4877      31302E32 
 4877      2E312032 
 4877      30323031 
 4878 0564 616D6520 		.ascii	"ame -mthumb-interwork -mcpu=cortex-m4 -mfloat-abi=s"
 4878      2D6D7468 
 4878      756D622D 
 4878      696E7465 
 4878      72776F72 
 4879 0597 6F667420 		.ascii	"oft -march=armv7e-m -gdwarf-2 -O\000"
 4879      2D6D6172 
 4879      63683D61 
 4879      726D7637 
 4879      652D6D20 
 4880              	.LASF8:
 4881 05b8 756E7369 		.ascii	"unsigned int\000"
ARM GAS  C:\Users\hoodc\AppData\Local\Temp\cc4eu5v8.s 			page 118


 4881      676E6564 
 4881      20696E74 
 4881      00
 4882              	.LASF73:
 4883 05c5 7043616C 		.ascii	"pCallback\000"
 4883      6C626163 
 4883      6B00
 4884              	.LASF57:
 4885 05cf 58666572 		.ascii	"XferHalfCpltCallback\000"
 4885      48616C66 
 4885      43706C74 
 4885      43616C6C 
 4885      6261636B 
 4886              	.LASF27:
 4887 05e4 48414C5F 		.ascii	"HAL_LockTypeDef\000"
 4887      4C6F636B 
 4887      54797065 
 4887      44656600 
 4888              	.LASF60:
 4889 05f4 4572726F 		.ascii	"ErrorCode\000"
 4889      72436F64 
 4889      6500
 4890              	.LASF38:
 4891 05fe 48414C5F 		.ascii	"HAL_DMA_STATE_READY\000"
 4891      444D415F 
 4891      53544154 
 4891      455F5245 
 4891      41445900 
 4892              	.LASF76:
 4893 0612 736F7572 		.ascii	"source_it\000"
 4893      63655F69 
 4893      7400
 4894              	.LASF77:
 4895 061c 48414C5F 		.ascii	"HAL_DMA_PollForTransfer\000"
 4895      444D415F 
 4895      506F6C6C 
 4895      466F7254 
 4895      72616E73 
 4896              		.ident	"GCC: (GNU Arm Embedded Toolchain 10-2020-q4-major) 10.2.1 20201103 (release)"
ARM GAS  C:\Users\hoodc\AppData\Local\Temp\cc4eu5v8.s 			page 119


DEFINED SYMBOLS
                            *ABS*:00000000 stm32l4xx_hal_dma.c
C:\Users\hoodc\AppData\Local\Temp\cc4eu5v8.s:15     .text:00000000 $t
C:\Users\hoodc\AppData\Local\Temp\cc4eu5v8.s:23     .text:00000000 HAL_DMA_Init
C:\Users\hoodc\AppData\Local\Temp\cc4eu5v8.s:239    .text:000000ec $d
C:\Users\hoodc\AppData\Local\Temp\cc4eu5v8.s:248    .text:00000104 $t
C:\Users\hoodc\AppData\Local\Temp\cc4eu5v8.s:255    .text:00000104 HAL_DMA_DeInit
C:\Users\hoodc\AppData\Local\Temp\cc4eu5v8.s:420    .text:000001b0 $d
C:\Users\hoodc\AppData\Local\Temp\cc4eu5v8.s:429    .text:000001c8 $t
C:\Users\hoodc\AppData\Local\Temp\cc4eu5v8.s:436    .text:000001c8 HAL_DMA_Start
C:\Users\hoodc\AppData\Local\Temp\cc4eu5v8.s:599    .text:00000248 HAL_DMA_Start_IT
C:\Users\hoodc\AppData\Local\Temp\cc4eu5v8.s:787    .text:000002ec HAL_DMA_Abort
C:\Users\hoodc\AppData\Local\Temp\cc4eu5v8.s:865    .text:00000336 HAL_DMA_Abort_IT
C:\Users\hoodc\AppData\Local\Temp\cc4eu5v8.s:959    .text:00000386 HAL_DMA_PollForTransfer
C:\Users\hoodc\AppData\Local\Temp\cc4eu5v8.s:1187   .text:00000466 HAL_DMA_IRQHandler
C:\Users\hoodc\AppData\Local\Temp\cc4eu5v8.s:1377   .text:0000052a HAL_DMA_RegisterCallback
C:\Users\hoodc\AppData\Local\Temp\cc4eu5v8.s:1426   .text:00000550 $d
C:\Users\hoodc\AppData\Local\Temp\cc4eu5v8.s:1430   .text:00000554 $t
C:\Users\hoodc\AppData\Local\Temp\cc4eu5v8.s:1482   .text:00000570 HAL_DMA_UnRegisterCallback
C:\Users\hoodc\AppData\Local\Temp\cc4eu5v8.s:1531   .text:0000059c $d
C:\Users\hoodc\AppData\Local\Temp\cc4eu5v8.s:1601   .text:000005cc HAL_DMA_GetState
C:\Users\hoodc\AppData\Local\Temp\cc4eu5v8.s:1625   .text:000005d2 HAL_DMA_GetError
C:\Users\hoodc\AppData\Local\Temp\cc4eu5v8.s:1536   .text:000005a1 $d
C:\Users\hoodc\AppData\Local\Temp\cc4eu5v8.s:1536   .text:000005a2 $t

UNDEFINED SYMBOLS
HAL_GetTick
