ARM GAS  C:\Users\hoodc\AppData\Local\Temp\ccOMsNkt.s 			page 1


   1              		.cpu cortex-m4
   2              		.eabi_attribute 20, 1
   3              		.eabi_attribute 21, 1
   4              		.eabi_attribute 23, 3
   5              		.eabi_attribute 24, 1
   6              		.eabi_attribute 25, 1
   7              		.eabi_attribute 26, 1
   8              		.eabi_attribute 30, 1
   9              		.eabi_attribute 34, 1
  10              		.eabi_attribute 18, 4
  11              		.file	"stm32l4xx_hal_msp.c"
  12              		.text
  13              	.Ltext0:
  14              		.cfi_sections	.debug_frame
  15              		.align	1
  16              		.global	HAL_MspInit
  17              		.arch armv7e-m
  18              		.syntax unified
  19              		.thumb
  20              		.thumb_func
  21              		.fpu softvfp
  22              		.type	HAL_MspInit, %function
  23              	HAL_MspInit:
  24              	.LFB133:
  25              		.file 1 "../Src/stm32l4xx_hal_msp.c"
   1:../Src/stm32l4xx_hal_msp.c **** /* USER CODE BEGIN Header */
   2:../Src/stm32l4xx_hal_msp.c **** /**
   3:../Src/stm32l4xx_hal_msp.c ****   ******************************************************************************
   4:../Src/stm32l4xx_hal_msp.c ****   * File Name          : stm32l4xx_hal_msp.c
   5:../Src/stm32l4xx_hal_msp.c ****   * Description        : This file provides code for the MSP Initialization
   6:../Src/stm32l4xx_hal_msp.c ****   *                      and de-Initialization codes.
   7:../Src/stm32l4xx_hal_msp.c ****   ******************************************************************************
   8:../Src/stm32l4xx_hal_msp.c ****   * @attention
   9:../Src/stm32l4xx_hal_msp.c ****   *
  10:../Src/stm32l4xx_hal_msp.c ****   * <h2><center>&copy; Copyright (c) 2020 STMicroelectronics.
  11:../Src/stm32l4xx_hal_msp.c ****   * All rights reserved.</center></h2>
  12:../Src/stm32l4xx_hal_msp.c ****   *
  13:../Src/stm32l4xx_hal_msp.c ****   * This software component is licensed by ST under BSD 3-Clause license,
  14:../Src/stm32l4xx_hal_msp.c ****   * the "License"; You may not use this file except in compliance with the
  15:../Src/stm32l4xx_hal_msp.c ****   * License. You may obtain a copy of the License at:
  16:../Src/stm32l4xx_hal_msp.c ****   *                        opensource.org/licenses/BSD-3-Clause
  17:../Src/stm32l4xx_hal_msp.c ****   *
  18:../Src/stm32l4xx_hal_msp.c ****   ******************************************************************************
  19:../Src/stm32l4xx_hal_msp.c ****   */
  20:../Src/stm32l4xx_hal_msp.c **** /* USER CODE END Header */
  21:../Src/stm32l4xx_hal_msp.c **** 
  22:../Src/stm32l4xx_hal_msp.c **** /* Includes ------------------------------------------------------------------*/
  23:../Src/stm32l4xx_hal_msp.c **** #include "main.h"
  24:../Src/stm32l4xx_hal_msp.c **** /* USER CODE BEGIN Includes */
  25:../Src/stm32l4xx_hal_msp.c **** 
  26:../Src/stm32l4xx_hal_msp.c **** /* USER CODE END Includes */
  27:../Src/stm32l4xx_hal_msp.c **** 
  28:../Src/stm32l4xx_hal_msp.c **** /* Private typedef -----------------------------------------------------------*/
  29:../Src/stm32l4xx_hal_msp.c **** /* USER CODE BEGIN TD */
  30:../Src/stm32l4xx_hal_msp.c **** 
  31:../Src/stm32l4xx_hal_msp.c **** /* USER CODE END TD */
  32:../Src/stm32l4xx_hal_msp.c **** 
ARM GAS  C:\Users\hoodc\AppData\Local\Temp\ccOMsNkt.s 			page 2


  33:../Src/stm32l4xx_hal_msp.c **** /* Private define ------------------------------------------------------------*/
  34:../Src/stm32l4xx_hal_msp.c **** /* USER CODE BEGIN Define */
  35:../Src/stm32l4xx_hal_msp.c **** 
  36:../Src/stm32l4xx_hal_msp.c **** /* USER CODE END Define */
  37:../Src/stm32l4xx_hal_msp.c **** 
  38:../Src/stm32l4xx_hal_msp.c **** /* Private macro -------------------------------------------------------------*/
  39:../Src/stm32l4xx_hal_msp.c **** /* USER CODE BEGIN Macro */
  40:../Src/stm32l4xx_hal_msp.c **** 
  41:../Src/stm32l4xx_hal_msp.c **** /* USER CODE END Macro */
  42:../Src/stm32l4xx_hal_msp.c **** 
  43:../Src/stm32l4xx_hal_msp.c **** /* Private variables ---------------------------------------------------------*/
  44:../Src/stm32l4xx_hal_msp.c **** /* USER CODE BEGIN PV */
  45:../Src/stm32l4xx_hal_msp.c **** 
  46:../Src/stm32l4xx_hal_msp.c **** /* USER CODE END PV */
  47:../Src/stm32l4xx_hal_msp.c **** 
  48:../Src/stm32l4xx_hal_msp.c **** /* Private function prototypes -----------------------------------------------*/
  49:../Src/stm32l4xx_hal_msp.c **** /* USER CODE BEGIN PFP */
  50:../Src/stm32l4xx_hal_msp.c **** 
  51:../Src/stm32l4xx_hal_msp.c **** /* USER CODE END PFP */
  52:../Src/stm32l4xx_hal_msp.c **** 
  53:../Src/stm32l4xx_hal_msp.c **** /* External functions --------------------------------------------------------*/
  54:../Src/stm32l4xx_hal_msp.c **** /* USER CODE BEGIN ExternalFunctions */
  55:../Src/stm32l4xx_hal_msp.c **** 
  56:../Src/stm32l4xx_hal_msp.c **** /* USER CODE END ExternalFunctions */
  57:../Src/stm32l4xx_hal_msp.c **** 
  58:../Src/stm32l4xx_hal_msp.c **** /* USER CODE BEGIN 0 */
  59:../Src/stm32l4xx_hal_msp.c **** 
  60:../Src/stm32l4xx_hal_msp.c **** /* USER CODE END 0 */
  61:../Src/stm32l4xx_hal_msp.c **** /**
  62:../Src/stm32l4xx_hal_msp.c ****   * Initializes the Global MSP.
  63:../Src/stm32l4xx_hal_msp.c ****   */
  64:../Src/stm32l4xx_hal_msp.c **** void HAL_MspInit(void)
  65:../Src/stm32l4xx_hal_msp.c **** {
  26              		.loc 1 65 1 view -0
  27              		.cfi_startproc
  28              		@ args = 0, pretend = 0, frame = 8
  29              		@ frame_needed = 0, uses_anonymous_args = 0
  30              		@ link register save eliminated.
  31 0000 82B0     		sub	sp, sp, #8
  32              	.LCFI0:
  33              		.cfi_def_cfa_offset 8
  66:../Src/stm32l4xx_hal_msp.c ****   /* USER CODE BEGIN MspInit 0 */
  67:../Src/stm32l4xx_hal_msp.c **** 
  68:../Src/stm32l4xx_hal_msp.c ****   /* USER CODE END MspInit 0 */
  69:../Src/stm32l4xx_hal_msp.c **** 
  70:../Src/stm32l4xx_hal_msp.c ****   __HAL_RCC_SYSCFG_CLK_ENABLE();
  34              		.loc 1 70 3 view .LVU1
  35              	.LBB2:
  36              		.loc 1 70 3 view .LVU2
  37              		.loc 1 70 3 view .LVU3
  38 0002 0A4B     		ldr	r3, .L2
  39 0004 1A6E     		ldr	r2, [r3, #96]
  40 0006 42F00102 		orr	r2, r2, #1
  41 000a 1A66     		str	r2, [r3, #96]
  42              		.loc 1 70 3 view .LVU4
  43 000c 1A6E     		ldr	r2, [r3, #96]
  44 000e 02F00102 		and	r2, r2, #1
ARM GAS  C:\Users\hoodc\AppData\Local\Temp\ccOMsNkt.s 			page 3


  45 0012 0092     		str	r2, [sp]
  46              		.loc 1 70 3 view .LVU5
  47 0014 009A     		ldr	r2, [sp]
  48              	.LBE2:
  49              		.loc 1 70 3 view .LVU6
  71:../Src/stm32l4xx_hal_msp.c ****   __HAL_RCC_PWR_CLK_ENABLE();
  50              		.loc 1 71 3 view .LVU7
  51              	.LBB3:
  52              		.loc 1 71 3 view .LVU8
  53              		.loc 1 71 3 view .LVU9
  54 0016 9A6D     		ldr	r2, [r3, #88]
  55 0018 42F08052 		orr	r2, r2, #268435456
  56 001c 9A65     		str	r2, [r3, #88]
  57              		.loc 1 71 3 view .LVU10
  58 001e 9B6D     		ldr	r3, [r3, #88]
  59 0020 03F08053 		and	r3, r3, #268435456
  60 0024 0193     		str	r3, [sp, #4]
  61              		.loc 1 71 3 view .LVU11
  62 0026 019B     		ldr	r3, [sp, #4]
  63              	.LBE3:
  64              		.loc 1 71 3 view .LVU12
  72:../Src/stm32l4xx_hal_msp.c **** 
  73:../Src/stm32l4xx_hal_msp.c ****   /* System interrupt init*/
  74:../Src/stm32l4xx_hal_msp.c **** 
  75:../Src/stm32l4xx_hal_msp.c ****   /* USER CODE BEGIN MspInit 1 */
  76:../Src/stm32l4xx_hal_msp.c **** 
  77:../Src/stm32l4xx_hal_msp.c ****   /* USER CODE END MspInit 1 */
  78:../Src/stm32l4xx_hal_msp.c **** }
  65              		.loc 1 78 1 is_stmt 0 view .LVU13
  66 0028 02B0     		add	sp, sp, #8
  67              	.LCFI1:
  68              		.cfi_def_cfa_offset 0
  69              		@ sp needed
  70 002a 7047     		bx	lr
  71              	.L3:
  72              		.align	2
  73              	.L2:
  74 002c 00100240 		.word	1073876992
  75              		.cfi_endproc
  76              	.LFE133:
  77              		.size	HAL_MspInit, .-HAL_MspInit
  78              		.align	1
  79              		.global	HAL_UART_MspInit
  80              		.syntax unified
  81              		.thumb
  82              		.thumb_func
  83              		.fpu softvfp
  84              		.type	HAL_UART_MspInit, %function
  85              	HAL_UART_MspInit:
  86              	.LVL0:
  87              	.LFB134:
  79:../Src/stm32l4xx_hal_msp.c **** 
  80:../Src/stm32l4xx_hal_msp.c **** /**
  81:../Src/stm32l4xx_hal_msp.c **** * @brief UART MSP Initialization
  82:../Src/stm32l4xx_hal_msp.c **** * This function configures the hardware resources used in this example
  83:../Src/stm32l4xx_hal_msp.c **** * @param huart: UART handle pointer
  84:../Src/stm32l4xx_hal_msp.c **** * @retval None
ARM GAS  C:\Users\hoodc\AppData\Local\Temp\ccOMsNkt.s 			page 4


  85:../Src/stm32l4xx_hal_msp.c **** */
  86:../Src/stm32l4xx_hal_msp.c **** void HAL_UART_MspInit(UART_HandleTypeDef* huart)
  87:../Src/stm32l4xx_hal_msp.c **** {
  88              		.loc 1 87 1 is_stmt 1 view -0
  89              		.cfi_startproc
  90              		@ args = 0, pretend = 0, frame = 40
  91              		@ frame_needed = 0, uses_anonymous_args = 0
  92              		.loc 1 87 1 is_stmt 0 view .LVU15
  93 0030 00B5     		push	{lr}
  94              	.LCFI2:
  95              		.cfi_def_cfa_offset 4
  96              		.cfi_offset 14, -4
  97 0032 8BB0     		sub	sp, sp, #44
  98              	.LCFI3:
  99              		.cfi_def_cfa_offset 48
  88:../Src/stm32l4xx_hal_msp.c ****   GPIO_InitTypeDef GPIO_InitStruct = {0};
 100              		.loc 1 88 3 is_stmt 1 view .LVU16
 101              		.loc 1 88 20 is_stmt 0 view .LVU17
 102 0034 0023     		movs	r3, #0
 103 0036 0593     		str	r3, [sp, #20]
 104 0038 0693     		str	r3, [sp, #24]
 105 003a 0793     		str	r3, [sp, #28]
 106 003c 0893     		str	r3, [sp, #32]
 107 003e 0993     		str	r3, [sp, #36]
  89:../Src/stm32l4xx_hal_msp.c ****   if(huart->Instance==USART1)
 108              		.loc 1 89 3 is_stmt 1 view .LVU18
 109              		.loc 1 89 11 is_stmt 0 view .LVU19
 110 0040 0368     		ldr	r3, [r0]
 111              		.loc 1 89 5 view .LVU20
 112 0042 2E4A     		ldr	r2, .L9
 113 0044 9342     		cmp	r3, r2
 114 0046 05D0     		beq	.L7
  90:../Src/stm32l4xx_hal_msp.c ****   {
  91:../Src/stm32l4xx_hal_msp.c ****     /* Peripheral clock enable */
  92:../Src/stm32l4xx_hal_msp.c ****     __HAL_RCC_USART1_CLK_ENABLE();
  93:../Src/stm32l4xx_hal_msp.c **** 
  94:../Src/stm32l4xx_hal_msp.c ****     __HAL_RCC_GPIOA_CLK_ENABLE();
  95:../Src/stm32l4xx_hal_msp.c ****     /**USART1 GPIO Configuration
  96:../Src/stm32l4xx_hal_msp.c ****     PA9     ------> USART1_TX
  97:../Src/stm32l4xx_hal_msp.c ****     PA10     ------> USART1_RX
  98:../Src/stm32l4xx_hal_msp.c ****     */
  99:../Src/stm32l4xx_hal_msp.c ****     GPIO_InitStruct.Pin = GPIO_PIN_9|GPIO_PIN_10;
 100:../Src/stm32l4xx_hal_msp.c ****     GPIO_InitStruct.Mode = GPIO_MODE_AF_PP;
 101:../Src/stm32l4xx_hal_msp.c ****     GPIO_InitStruct.Pull = GPIO_NOPULL;
 102:../Src/stm32l4xx_hal_msp.c ****     GPIO_InitStruct.Speed = GPIO_SPEED_FREQ_VERY_HIGH;
 103:../Src/stm32l4xx_hal_msp.c ****     GPIO_InitStruct.Alternate = GPIO_AF7_USART1;
 104:../Src/stm32l4xx_hal_msp.c ****     HAL_GPIO_Init(GPIOA, &GPIO_InitStruct);
 105:../Src/stm32l4xx_hal_msp.c **** 
 106:../Src/stm32l4xx_hal_msp.c ****     HAL_NVIC_SetPriority(USART1_IRQn, 0, 1);
 107:../Src/stm32l4xx_hal_msp.c ****     HAL_NVIC_EnableIRQ(USART1_IRQn);
 108:../Src/stm32l4xx_hal_msp.c ****   }
 109:../Src/stm32l4xx_hal_msp.c ****   else if(huart->Instance==USART2)
 115              		.loc 1 109 8 is_stmt 1 view .LVU21
 116              		.loc 1 109 10 is_stmt 0 view .LVU22
 117 0048 2D4A     		ldr	r2, .L9+4
 118 004a 9342     		cmp	r3, r2
 119 004c 2CD0     		beq	.L8
ARM GAS  C:\Users\hoodc\AppData\Local\Temp\ccOMsNkt.s 			page 5


 120              	.LVL1:
 121              	.L4:
 110:../Src/stm32l4xx_hal_msp.c ****   {
 111:../Src/stm32l4xx_hal_msp.c ****     /* Peripheral clock enable */
 112:../Src/stm32l4xx_hal_msp.c ****     __HAL_RCC_USART2_CLK_ENABLE();
 113:../Src/stm32l4xx_hal_msp.c **** 
 114:../Src/stm32l4xx_hal_msp.c ****     __HAL_RCC_GPIOA_CLK_ENABLE();
 115:../Src/stm32l4xx_hal_msp.c ****     /**USART2 GPIO Configuration
 116:../Src/stm32l4xx_hal_msp.c ****     PA0     ------> USART2_CTS
 117:../Src/stm32l4xx_hal_msp.c ****     PA1     ------> USART2_RTS
 118:../Src/stm32l4xx_hal_msp.c ****     PA2     ------> USART2_TX
 119:../Src/stm32l4xx_hal_msp.c ****     PA3     ------> USART2_RX
 120:../Src/stm32l4xx_hal_msp.c ****     */
 121:../Src/stm32l4xx_hal_msp.c ****     GPIO_InitStruct.Pin = GPIO_PIN_1|GPIO_PIN_2|GPIO_PIN_3;//GPIO_PIN_0|
 122:../Src/stm32l4xx_hal_msp.c ****     GPIO_InitStruct.Mode = GPIO_MODE_AF_PP;
 123:../Src/stm32l4xx_hal_msp.c ****     GPIO_InitStruct.Pull = GPIO_NOPULL;
 124:../Src/stm32l4xx_hal_msp.c ****     GPIO_InitStruct.Speed = GPIO_SPEED_FREQ_VERY_HIGH;
 125:../Src/stm32l4xx_hal_msp.c ****     GPIO_InitStruct.Alternate = GPIO_AF7_USART2;
 126:../Src/stm32l4xx_hal_msp.c ****     HAL_GPIO_Init(GPIOA, &GPIO_InitStruct);
 127:../Src/stm32l4xx_hal_msp.c **** 
 128:../Src/stm32l4xx_hal_msp.c ****     HAL_NVIC_SetPriority(USART2_IRQn, 0, 1);
 129:../Src/stm32l4xx_hal_msp.c ****     HAL_NVIC_EnableIRQ(USART2_IRQn);
 130:../Src/stm32l4xx_hal_msp.c ****   }
 131:../Src/stm32l4xx_hal_msp.c **** 
 132:../Src/stm32l4xx_hal_msp.c **** }
 122              		.loc 1 132 1 view .LVU23
 123 004e 0BB0     		add	sp, sp, #44
 124              	.LCFI4:
 125              		.cfi_remember_state
 126              		.cfi_def_cfa_offset 4
 127              		@ sp needed
 128 0050 5DF804FB 		ldr	pc, [sp], #4
 129              	.LVL2:
 130              	.L7:
 131              	.LCFI5:
 132              		.cfi_restore_state
  92:../Src/stm32l4xx_hal_msp.c **** 
 133              		.loc 1 92 5 is_stmt 1 view .LVU24
 134              	.LBB4:
  92:../Src/stm32l4xx_hal_msp.c **** 
 135              		.loc 1 92 5 view .LVU25
  92:../Src/stm32l4xx_hal_msp.c **** 
 136              		.loc 1 92 5 view .LVU26
 137 0054 2B4B     		ldr	r3, .L9+8
 138 0056 1A6E     		ldr	r2, [r3, #96]
 139 0058 42F48042 		orr	r2, r2, #16384
 140 005c 1A66     		str	r2, [r3, #96]
  92:../Src/stm32l4xx_hal_msp.c **** 
 141              		.loc 1 92 5 view .LVU27
 142 005e 1A6E     		ldr	r2, [r3, #96]
 143 0060 02F48042 		and	r2, r2, #16384
 144 0064 0192     		str	r2, [sp, #4]
  92:../Src/stm32l4xx_hal_msp.c **** 
 145              		.loc 1 92 5 view .LVU28
 146 0066 019A     		ldr	r2, [sp, #4]
 147              	.LBE4:
  92:../Src/stm32l4xx_hal_msp.c **** 
ARM GAS  C:\Users\hoodc\AppData\Local\Temp\ccOMsNkt.s 			page 6


 148              		.loc 1 92 5 view .LVU29
  94:../Src/stm32l4xx_hal_msp.c ****     /**USART1 GPIO Configuration
 149              		.loc 1 94 5 view .LVU30
 150              	.LBB5:
  94:../Src/stm32l4xx_hal_msp.c ****     /**USART1 GPIO Configuration
 151              		.loc 1 94 5 view .LVU31
  94:../Src/stm32l4xx_hal_msp.c ****     /**USART1 GPIO Configuration
 152              		.loc 1 94 5 view .LVU32
 153 0068 DA6C     		ldr	r2, [r3, #76]
 154 006a 42F00102 		orr	r2, r2, #1
 155 006e DA64     		str	r2, [r3, #76]
  94:../Src/stm32l4xx_hal_msp.c ****     /**USART1 GPIO Configuration
 156              		.loc 1 94 5 view .LVU33
 157 0070 DB6C     		ldr	r3, [r3, #76]
 158 0072 03F00103 		and	r3, r3, #1
 159 0076 0293     		str	r3, [sp, #8]
  94:../Src/stm32l4xx_hal_msp.c ****     /**USART1 GPIO Configuration
 160              		.loc 1 94 5 view .LVU34
 161 0078 029B     		ldr	r3, [sp, #8]
 162              	.LBE5:
  94:../Src/stm32l4xx_hal_msp.c ****     /**USART1 GPIO Configuration
 163              		.loc 1 94 5 view .LVU35
  99:../Src/stm32l4xx_hal_msp.c ****     GPIO_InitStruct.Mode = GPIO_MODE_AF_PP;
 164              		.loc 1 99 5 view .LVU36
  99:../Src/stm32l4xx_hal_msp.c ****     GPIO_InitStruct.Mode = GPIO_MODE_AF_PP;
 165              		.loc 1 99 25 is_stmt 0 view .LVU37
 166 007a 4FF4C063 		mov	r3, #1536
 167 007e 0593     		str	r3, [sp, #20]
 100:../Src/stm32l4xx_hal_msp.c ****     GPIO_InitStruct.Pull = GPIO_NOPULL;
 168              		.loc 1 100 5 is_stmt 1 view .LVU38
 100:../Src/stm32l4xx_hal_msp.c ****     GPIO_InitStruct.Pull = GPIO_NOPULL;
 169              		.loc 1 100 26 is_stmt 0 view .LVU39
 170 0080 0223     		movs	r3, #2
 171 0082 0693     		str	r3, [sp, #24]
 101:../Src/stm32l4xx_hal_msp.c ****     GPIO_InitStruct.Speed = GPIO_SPEED_FREQ_VERY_HIGH;
 172              		.loc 1 101 5 is_stmt 1 view .LVU40
 102:../Src/stm32l4xx_hal_msp.c ****     GPIO_InitStruct.Alternate = GPIO_AF7_USART1;
 173              		.loc 1 102 5 view .LVU41
 102:../Src/stm32l4xx_hal_msp.c ****     GPIO_InitStruct.Alternate = GPIO_AF7_USART1;
 174              		.loc 1 102 27 is_stmt 0 view .LVU42
 175 0084 0323     		movs	r3, #3
 176 0086 0893     		str	r3, [sp, #32]
 103:../Src/stm32l4xx_hal_msp.c ****     HAL_GPIO_Init(GPIOA, &GPIO_InitStruct);
 177              		.loc 1 103 5 is_stmt 1 view .LVU43
 103:../Src/stm32l4xx_hal_msp.c ****     HAL_GPIO_Init(GPIOA, &GPIO_InitStruct);
 178              		.loc 1 103 31 is_stmt 0 view .LVU44
 179 0088 0723     		movs	r3, #7
 180 008a 0993     		str	r3, [sp, #36]
 104:../Src/stm32l4xx_hal_msp.c **** 
 181              		.loc 1 104 5 is_stmt 1 view .LVU45
 182 008c 05A9     		add	r1, sp, #20
 183 008e 4FF09040 		mov	r0, #1207959552
 184              	.LVL3:
 104:../Src/stm32l4xx_hal_msp.c **** 
 185              		.loc 1 104 5 is_stmt 0 view .LVU46
 186 0092 FFF7FEFF 		bl	HAL_GPIO_Init
 187              	.LVL4:
ARM GAS  C:\Users\hoodc\AppData\Local\Temp\ccOMsNkt.s 			page 7


 106:../Src/stm32l4xx_hal_msp.c ****     HAL_NVIC_EnableIRQ(USART1_IRQn);
 188              		.loc 1 106 5 is_stmt 1 view .LVU47
 189 0096 0122     		movs	r2, #1
 190 0098 0021     		movs	r1, #0
 191 009a 2520     		movs	r0, #37
 192 009c FFF7FEFF 		bl	HAL_NVIC_SetPriority
 193              	.LVL5:
 107:../Src/stm32l4xx_hal_msp.c ****   }
 194              		.loc 1 107 5 view .LVU48
 195 00a0 2520     		movs	r0, #37
 196 00a2 FFF7FEFF 		bl	HAL_NVIC_EnableIRQ
 197              	.LVL6:
 198 00a6 D2E7     		b	.L4
 199              	.LVL7:
 200              	.L8:
 112:../Src/stm32l4xx_hal_msp.c **** 
 201              		.loc 1 112 5 view .LVU49
 202              	.LBB6:
 112:../Src/stm32l4xx_hal_msp.c **** 
 203              		.loc 1 112 5 view .LVU50
 112:../Src/stm32l4xx_hal_msp.c **** 
 204              		.loc 1 112 5 view .LVU51
 205 00a8 164B     		ldr	r3, .L9+8
 206 00aa 9A6D     		ldr	r2, [r3, #88]
 207 00ac 42F40032 		orr	r2, r2, #131072
 208 00b0 9A65     		str	r2, [r3, #88]
 112:../Src/stm32l4xx_hal_msp.c **** 
 209              		.loc 1 112 5 view .LVU52
 210 00b2 9A6D     		ldr	r2, [r3, #88]
 211 00b4 02F40032 		and	r2, r2, #131072
 212 00b8 0392     		str	r2, [sp, #12]
 112:../Src/stm32l4xx_hal_msp.c **** 
 213              		.loc 1 112 5 view .LVU53
 214 00ba 039A     		ldr	r2, [sp, #12]
 215              	.LBE6:
 112:../Src/stm32l4xx_hal_msp.c **** 
 216              		.loc 1 112 5 view .LVU54
 114:../Src/stm32l4xx_hal_msp.c ****     /**USART2 GPIO Configuration
 217              		.loc 1 114 5 view .LVU55
 218              	.LBB7:
 114:../Src/stm32l4xx_hal_msp.c ****     /**USART2 GPIO Configuration
 219              		.loc 1 114 5 view .LVU56
 114:../Src/stm32l4xx_hal_msp.c ****     /**USART2 GPIO Configuration
 220              		.loc 1 114 5 view .LVU57
 221 00bc DA6C     		ldr	r2, [r3, #76]
 222 00be 42F00102 		orr	r2, r2, #1
 223 00c2 DA64     		str	r2, [r3, #76]
 114:../Src/stm32l4xx_hal_msp.c ****     /**USART2 GPIO Configuration
 224              		.loc 1 114 5 view .LVU58
 225 00c4 DB6C     		ldr	r3, [r3, #76]
 226 00c6 03F00103 		and	r3, r3, #1
 227 00ca 0493     		str	r3, [sp, #16]
 114:../Src/stm32l4xx_hal_msp.c ****     /**USART2 GPIO Configuration
 228              		.loc 1 114 5 view .LVU59
 229 00cc 049B     		ldr	r3, [sp, #16]
 230              	.LBE7:
 114:../Src/stm32l4xx_hal_msp.c ****     /**USART2 GPIO Configuration
ARM GAS  C:\Users\hoodc\AppData\Local\Temp\ccOMsNkt.s 			page 8


 231              		.loc 1 114 5 view .LVU60
 121:../Src/stm32l4xx_hal_msp.c ****     GPIO_InitStruct.Mode = GPIO_MODE_AF_PP;
 232              		.loc 1 121 5 view .LVU61
 121:../Src/stm32l4xx_hal_msp.c ****     GPIO_InitStruct.Mode = GPIO_MODE_AF_PP;
 233              		.loc 1 121 25 is_stmt 0 view .LVU62
 234 00ce 0E23     		movs	r3, #14
 235 00d0 0593     		str	r3, [sp, #20]
 122:../Src/stm32l4xx_hal_msp.c ****     GPIO_InitStruct.Pull = GPIO_NOPULL;
 236              		.loc 1 122 5 is_stmt 1 view .LVU63
 122:../Src/stm32l4xx_hal_msp.c ****     GPIO_InitStruct.Pull = GPIO_NOPULL;
 237              		.loc 1 122 26 is_stmt 0 view .LVU64
 238 00d2 0223     		movs	r3, #2
 239 00d4 0693     		str	r3, [sp, #24]
 123:../Src/stm32l4xx_hal_msp.c ****     GPIO_InitStruct.Speed = GPIO_SPEED_FREQ_VERY_HIGH;
 240              		.loc 1 123 5 is_stmt 1 view .LVU65
 124:../Src/stm32l4xx_hal_msp.c ****     GPIO_InitStruct.Alternate = GPIO_AF7_USART2;
 241              		.loc 1 124 5 view .LVU66
 124:../Src/stm32l4xx_hal_msp.c ****     GPIO_InitStruct.Alternate = GPIO_AF7_USART2;
 242              		.loc 1 124 27 is_stmt 0 view .LVU67
 243 00d6 0323     		movs	r3, #3
 244 00d8 0893     		str	r3, [sp, #32]
 125:../Src/stm32l4xx_hal_msp.c ****     HAL_GPIO_Init(GPIOA, &GPIO_InitStruct);
 245              		.loc 1 125 5 is_stmt 1 view .LVU68
 125:../Src/stm32l4xx_hal_msp.c ****     HAL_GPIO_Init(GPIOA, &GPIO_InitStruct);
 246              		.loc 1 125 31 is_stmt 0 view .LVU69
 247 00da 0723     		movs	r3, #7
 248 00dc 0993     		str	r3, [sp, #36]
 126:../Src/stm32l4xx_hal_msp.c **** 
 249              		.loc 1 126 5 is_stmt 1 view .LVU70
 250 00de 05A9     		add	r1, sp, #20
 251 00e0 4FF09040 		mov	r0, #1207959552
 252              	.LVL8:
 126:../Src/stm32l4xx_hal_msp.c **** 
 253              		.loc 1 126 5 is_stmt 0 view .LVU71
 254 00e4 FFF7FEFF 		bl	HAL_GPIO_Init
 255              	.LVL9:
 128:../Src/stm32l4xx_hal_msp.c ****     HAL_NVIC_EnableIRQ(USART2_IRQn);
 256              		.loc 1 128 5 is_stmt 1 view .LVU72
 257 00e8 0122     		movs	r2, #1
 258 00ea 0021     		movs	r1, #0
 259 00ec 2620     		movs	r0, #38
 260 00ee FFF7FEFF 		bl	HAL_NVIC_SetPriority
 261              	.LVL10:
 129:../Src/stm32l4xx_hal_msp.c ****   }
 262              		.loc 1 129 5 view .LVU73
 263 00f2 2620     		movs	r0, #38
 264 00f4 FFF7FEFF 		bl	HAL_NVIC_EnableIRQ
 265              	.LVL11:
 266              		.loc 1 132 1 is_stmt 0 view .LVU74
 267 00f8 A9E7     		b	.L4
 268              	.L10:
 269 00fa 00BF     		.align	2
 270              	.L9:
 271 00fc 00380140 		.word	1073821696
 272 0100 00440040 		.word	1073759232
 273 0104 00100240 		.word	1073876992
 274              		.cfi_endproc
ARM GAS  C:\Users\hoodc\AppData\Local\Temp\ccOMsNkt.s 			page 9


 275              	.LFE134:
 276              		.size	HAL_UART_MspInit, .-HAL_UART_MspInit
 277              		.align	1
 278              		.global	HAL_UART_MspDeInit
 279              		.syntax unified
 280              		.thumb
 281              		.thumb_func
 282              		.fpu softvfp
 283              		.type	HAL_UART_MspDeInit, %function
 284              	HAL_UART_MspDeInit:
 285              	.LVL12:
 286              	.LFB135:
 133:../Src/stm32l4xx_hal_msp.c **** 
 134:../Src/stm32l4xx_hal_msp.c **** /**
 135:../Src/stm32l4xx_hal_msp.c **** * @brief UART MSP De-Initialization
 136:../Src/stm32l4xx_hal_msp.c **** * This function freeze the hardware resources used in this example
 137:../Src/stm32l4xx_hal_msp.c **** * @param huart: UART handle pointer
 138:../Src/stm32l4xx_hal_msp.c **** * @retval None
 139:../Src/stm32l4xx_hal_msp.c **** */
 140:../Src/stm32l4xx_hal_msp.c **** void HAL_UART_MspDeInit(UART_HandleTypeDef* huart)
 141:../Src/stm32l4xx_hal_msp.c **** {
 287              		.loc 1 141 1 is_stmt 1 view -0
 288              		.cfi_startproc
 289              		@ args = 0, pretend = 0, frame = 0
 290              		@ frame_needed = 0, uses_anonymous_args = 0
 291              		.loc 1 141 1 is_stmt 0 view .LVU76
 292 0108 08B5     		push	{r3, lr}
 293              	.LCFI6:
 294              		.cfi_def_cfa_offset 8
 295              		.cfi_offset 3, -8
 296              		.cfi_offset 14, -4
 142:../Src/stm32l4xx_hal_msp.c ****   if(huart->Instance==USART1)
 297              		.loc 1 142 3 is_stmt 1 view .LVU77
 298              		.loc 1 142 11 is_stmt 0 view .LVU78
 299 010a 0368     		ldr	r3, [r0]
 300              		.loc 1 142 5 view .LVU79
 301 010c 0F4A     		ldr	r2, .L16
 302 010e 9342     		cmp	r3, r2
 303 0110 03D0     		beq	.L14
 143:../Src/stm32l4xx_hal_msp.c ****   {
 144:../Src/stm32l4xx_hal_msp.c ****   /* USER CODE BEGIN USART1_MspDeInit 0 */
 145:../Src/stm32l4xx_hal_msp.c **** 
 146:../Src/stm32l4xx_hal_msp.c ****   /* USER CODE END USART1_MspDeInit 0 */
 147:../Src/stm32l4xx_hal_msp.c ****     /* Peripheral clock disable */
 148:../Src/stm32l4xx_hal_msp.c ****     __HAL_RCC_USART1_CLK_DISABLE();
 149:../Src/stm32l4xx_hal_msp.c **** 
 150:../Src/stm32l4xx_hal_msp.c ****     /**USART1 GPIO Configuration
 151:../Src/stm32l4xx_hal_msp.c ****     PA9     ------> USART1_TX
 152:../Src/stm32l4xx_hal_msp.c ****     PA10     ------> USART1_RX
 153:../Src/stm32l4xx_hal_msp.c ****     */
 154:../Src/stm32l4xx_hal_msp.c ****     HAL_GPIO_DeInit(GPIOA, GPIO_PIN_9|GPIO_PIN_10);
 155:../Src/stm32l4xx_hal_msp.c **** 
 156:../Src/stm32l4xx_hal_msp.c ****   /* USER CODE BEGIN USART1_MspDeInit 1 */
 157:../Src/stm32l4xx_hal_msp.c **** 
 158:../Src/stm32l4xx_hal_msp.c ****   /* USER CODE END USART1_MspDeInit 1 */
 159:../Src/stm32l4xx_hal_msp.c ****   }
 160:../Src/stm32l4xx_hal_msp.c ****   else if(huart->Instance==USART2)
ARM GAS  C:\Users\hoodc\AppData\Local\Temp\ccOMsNkt.s 			page 10


 304              		.loc 1 160 8 is_stmt 1 view .LVU80
 305              		.loc 1 160 10 is_stmt 0 view .LVU81
 306 0112 0F4A     		ldr	r2, .L16+4
 307 0114 9342     		cmp	r3, r2
 308 0116 0DD0     		beq	.L15
 309              	.LVL13:
 310              	.L11:
 161:../Src/stm32l4xx_hal_msp.c ****   {
 162:../Src/stm32l4xx_hal_msp.c ****   /* USER CODE BEGIN USART2_MspDeInit 0 */
 163:../Src/stm32l4xx_hal_msp.c **** 
 164:../Src/stm32l4xx_hal_msp.c ****   /* USER CODE END USART2_MspDeInit 0 */
 165:../Src/stm32l4xx_hal_msp.c ****     /* Peripheral clock disable */
 166:../Src/stm32l4xx_hal_msp.c ****     __HAL_RCC_USART2_CLK_DISABLE();
 167:../Src/stm32l4xx_hal_msp.c **** 
 168:../Src/stm32l4xx_hal_msp.c ****     /**USART2 GPIO Configuration
 169:../Src/stm32l4xx_hal_msp.c ****     PA0     ------> USART2_CTS
 170:../Src/stm32l4xx_hal_msp.c ****     PA1     ------> USART2_RTS
 171:../Src/stm32l4xx_hal_msp.c ****     PA2     ------> USART2_TX
 172:../Src/stm32l4xx_hal_msp.c ****     PA3     ------> USART2_RX
 173:../Src/stm32l4xx_hal_msp.c ****     */
 174:../Src/stm32l4xx_hal_msp.c ****     HAL_GPIO_DeInit(GPIOA, GPIO_PIN_0|GPIO_PIN_1|GPIO_PIN_2|GPIO_PIN_3);
 175:../Src/stm32l4xx_hal_msp.c **** 
 176:../Src/stm32l4xx_hal_msp.c ****   /* USER CODE BEGIN USART2_MspDeInit 1 */
 177:../Src/stm32l4xx_hal_msp.c **** 
 178:../Src/stm32l4xx_hal_msp.c ****   /* USER CODE END USART2_MspDeInit 1 */
 179:../Src/stm32l4xx_hal_msp.c ****   }
 180:../Src/stm32l4xx_hal_msp.c **** 
 181:../Src/stm32l4xx_hal_msp.c **** }
 311              		.loc 1 181 1 view .LVU82
 312 0118 08BD     		pop	{r3, pc}
 313              	.LVL14:
 314              	.L14:
 148:../Src/stm32l4xx_hal_msp.c **** 
 315              		.loc 1 148 5 is_stmt 1 view .LVU83
 316 011a 02F55842 		add	r2, r2, #55296
 317 011e 136E     		ldr	r3, [r2, #96]
 318 0120 23F48043 		bic	r3, r3, #16384
 319 0124 1366     		str	r3, [r2, #96]
 154:../Src/stm32l4xx_hal_msp.c **** 
 320              		.loc 1 154 5 view .LVU84
 321 0126 4FF4C061 		mov	r1, #1536
 322 012a 4FF09040 		mov	r0, #1207959552
 323              	.LVL15:
 154:../Src/stm32l4xx_hal_msp.c **** 
 324              		.loc 1 154 5 is_stmt 0 view .LVU85
 325 012e FFF7FEFF 		bl	HAL_GPIO_DeInit
 326              	.LVL16:
 327 0132 F1E7     		b	.L11
 328              	.LVL17:
 329              	.L15:
 166:../Src/stm32l4xx_hal_msp.c **** 
 330              		.loc 1 166 5 is_stmt 1 view .LVU86
 331 0134 02F5E632 		add	r2, r2, #117760
 332 0138 936D     		ldr	r3, [r2, #88]
 333 013a 23F40033 		bic	r3, r3, #131072
 334 013e 9365     		str	r3, [r2, #88]
 174:../Src/stm32l4xx_hal_msp.c **** 
ARM GAS  C:\Users\hoodc\AppData\Local\Temp\ccOMsNkt.s 			page 11


 335              		.loc 1 174 5 view .LVU87
 336 0140 0F21     		movs	r1, #15
 337 0142 4FF09040 		mov	r0, #1207959552
 338              	.LVL18:
 174:../Src/stm32l4xx_hal_msp.c **** 
 339              		.loc 1 174 5 is_stmt 0 view .LVU88
 340 0146 FFF7FEFF 		bl	HAL_GPIO_DeInit
 341              	.LVL19:
 342              		.loc 1 181 1 view .LVU89
 343 014a E5E7     		b	.L11
 344              	.L17:
 345              		.align	2
 346              	.L16:
 347 014c 00380140 		.word	1073821696
 348 0150 00440040 		.word	1073759232
 349              		.cfi_endproc
 350              	.LFE135:
 351              		.size	HAL_UART_MspDeInit, .-HAL_UART_MspDeInit
 352              	.Letext0:
 353              		.file 2 "c:\\program files (x86)\\gnu arm embedded toolchain\\10 2020-q4-major\\arm-none-eabi\\inc
 354              		.file 3 "c:\\program files (x86)\\gnu arm embedded toolchain\\10 2020-q4-major\\arm-none-eabi\\inc
 355              		.file 4 "C:/Users/hoodc/AppData/Local/Arm/Packs/Keil/STM32L4xx_DFP/2.5.0/Drivers/CMSIS/Device/ST/S
 356              		.file 5 "../Drivers/STM32L4xx_HAL_Driver/Inc/stm32l4xx_hal_def.h"
 357              		.file 6 "../Drivers/STM32L4xx_HAL_Driver/Inc/stm32l4xx_hal_gpio.h"
 358              		.file 7 "../Drivers/STM32L4xx_HAL_Driver/Inc/stm32l4xx_hal_dma.h"
 359              		.file 8 "../Drivers/STM32L4xx_HAL_Driver/Inc/stm32l4xx_hal_uart.h"
 360              		.file 9 "../Drivers/STM32L4xx_HAL_Driver/Inc/stm32l4xx_hal_cortex.h"